   1              		.syntax unified
   2              		.cpu cortex-m4
   3              		.eabi_attribute 27, 3
   4              		.fpu fpv4-sp-d16
   5              		.eabi_attribute 20, 1
   6              		.eabi_attribute 21, 1
   7              		.eabi_attribute 23, 3
   8              		.eabi_attribute 24, 1
   9              		.eabi_attribute 25, 1
  10              		.eabi_attribute 26, 1
  11              		.eabi_attribute 30, 4
  12              		.eabi_attribute 34, 1
  13              		.eabi_attribute 18, 4
  14              		.thumb
  15              		.file	"dct32.c"
  16              		.section	.text.MULSHIFT32,"ax",%progbits
  17              		.align	1
  18              		.thumb
  19              		.thumb_func
  21              	MULSHIFT32:
  22              		@ args = 0, pretend = 0, frame = 0
  23              		@ frame_needed = 0, uses_anonymous_args = 0
  24              		@ link register save eliminated.
  25 0000 0B46     		mov	r3, r1
  26              	@ 285 "../src/mp3dec/real/assembly.h" 1
  27 0002 80FB0323 		smull r2,r3,r0,r3
  28              	@ 0 "" 2
  29              		.thumb
  30 0006 1846     		mov	r0, r3
  31 0008 7047     		bx	lr
  33              		.section	.text.xmp3fixpt_FDCT32,"ax",%progbits
  34              		.align	1
  35              		.global	xmp3fixpt_FDCT32
  36              		.thumb
  37              		.thumb_func
  39              	xmp3fixpt_FDCT32:
  40              		@ args = 4, pretend = 0, frame = 40
  41              		@ frame_needed = 0, uses_anonymous_args = 0
  42 0000 2DE9F04F 		push	{r4, r5, r6, r7, r8, r9, sl, fp, lr}
  43 0004 8BB0     		sub	sp, sp, #44
  44 0006 0446     		mov	r4, r0
  45 0008 0393     		str	r3, [sp, #12]
  46 000a 149B     		ldr	r3, [sp, #80]
  47 000c 0492     		str	r2, [sp, #16]
  48 000e 052B     		cmp	r3, #5
  49 0010 0D46     		mov	r5, r1
  50 0012 0ADC     		bgt	.L18
  51 0014 C3F10608 		rsb	r8, r3, #6
  52 0018 0023     		movs	r3, #0
  53              	.L4:
  54 001a E058     		ldr	r0, [r4, r3]
  55 001c 40FA08F2 		asr	r2, r0, r8
  56 0020 E250     		str	r2, [r4, r3]
  57 0022 0433     		adds	r3, r3, #4
  58 0024 802B     		cmp	r3, #128
  59 0026 F8D1     		bne	.L4
  60 0028 01E0     		b	.L3
  61              	.L18:
  62 002a 4FF00008 		mov	r8, #0
  63              	.L3:
  64 002e E66F     		ldr	r6, [r4, #124]
  65 0030 2168     		ldr	r1, [r4, #0]
  66 0032 AB48     		ldr	r0, .L29
  67 0034 D4F83CB0 		ldr	fp, [r4, #60]
  68 0038 D4F840A0 		ldr	sl, [r4, #64]
  69 003c 01EB0609 		add	r9, r1, r6
  70 0040 891B     		subs	r1, r1, r6
  71 0042 FFF7FEFF 		bl	MULSHIFT32
  72 0046 CAEB0B01 		rsb	r1, sl, fp
  73 004a 4600     		lsls	r6, r0, #1
  74 004c A548     		ldr	r0, .L29+4
  75 004e FFF7FEFF 		bl	MULSHIFT32
  76 0052 0BEB0A07 		add	r7, fp, sl
  77 0056 09EB0702 		add	r2, r9, r7
  78 005a 2260     		str	r2, [r4, #0]
  79 005c 4FEA401A 		lsl	sl, r0, #5
  80 0060 C7EB0901 		rsb	r1, r7, r9
  81 0064 A048     		ldr	r0, .L29+8
  82 0066 FFF7FEFF 		bl	MULSHIFT32
  83 006a 0AEB0603 		add	r3, sl, r6
  84 006e 4700     		lsls	r7, r0, #1
  85 0070 2364     		str	r3, [r4, #64]
  86 0072 CAEB0601 		rsb	r1, sl, r6
  87 0076 E763     		str	r7, [r4, #60]
  88 0078 9B48     		ldr	r0, .L29+8
  89 007a FFF7FEFF 		bl	MULSHIFT32
  90 007e A66F     		ldr	r6, [r4, #120]
  91 0080 6168     		ldr	r1, [r4, #4]
  92 0082 D4F838B0 		ldr	fp, [r4, #56]
  93 0086 D4F844A0 		ldr	sl, [r4, #68]
  94 008a 4000     		lsls	r0, r0, #1
  95 008c 01EB0609 		add	r9, r1, r6
  96 0090 E067     		str	r0, [r4, #124]
  97 0092 891B     		subs	r1, r1, r6
  98 0094 9548     		ldr	r0, .L29+12
  99 0096 FFF7FEFF 		bl	MULSHIFT32
 100 009a CAEB0B01 		rsb	r1, sl, fp
 101 009e 4600     		lsls	r6, r0, #1
 102 00a0 9348     		ldr	r0, .L29+16
 103 00a2 FFF7FEFF 		bl	MULSHIFT32
 104 00a6 0BEB0A07 		add	r7, fp, sl
 105 00aa 09EB0702 		add	r2, r9, r7
 106 00ae 6260     		str	r2, [r4, #4]
 107 00b0 4FEAC00A 		lsl	sl, r0, #3
 108 00b4 C7EB0901 		rsb	r1, r7, r9
 109 00b8 8E48     		ldr	r0, .L29+20
 110 00ba FFF7FEFF 		bl	MULSHIFT32
 111 00be 0AEB0603 		add	r3, sl, r6
 112 00c2 4700     		lsls	r7, r0, #1
 113 00c4 6364     		str	r3, [r4, #68]
 114 00c6 CAEB0601 		rsb	r1, sl, r6
 115 00ca A763     		str	r7, [r4, #56]
 116 00cc 8948     		ldr	r0, .L29+20
 117 00ce FFF7FEFF 		bl	MULSHIFT32
 118 00d2 666F     		ldr	r6, [r4, #116]
 119 00d4 A168     		ldr	r1, [r4, #8]
 120 00d6 D4F834B0 		ldr	fp, [r4, #52]
 121 00da D4F848A0 		ldr	sl, [r4, #72]
 122 00de 4000     		lsls	r0, r0, #1
 123 00e0 01EB0609 		add	r9, r1, r6
 124 00e4 A067     		str	r0, [r4, #120]
 125 00e6 891B     		subs	r1, r1, r6
 126 00e8 8348     		ldr	r0, .L29+24
 127 00ea FFF7FEFF 		bl	MULSHIFT32
 128 00ee CAEB0B01 		rsb	r1, sl, fp
 129 00f2 4600     		lsls	r6, r0, #1
 130 00f4 8148     		ldr	r0, .L29+28
 131 00f6 FFF7FEFF 		bl	MULSHIFT32
 132 00fa 0BEB0A07 		add	r7, fp, sl
 133 00fe 09EB0702 		add	r2, r9, r7
 134 0102 A260     		str	r2, [r4, #8]
 135 0104 4FEAC00A 		lsl	sl, r0, #3
 136 0108 C7EB0901 		rsb	r1, r7, r9
 137 010c 7C48     		ldr	r0, .L29+32
 138 010e FFF7FEFF 		bl	MULSHIFT32
 139 0112 0AEB0603 		add	r3, sl, r6
 140 0116 4700     		lsls	r7, r0, #1
 141 0118 A364     		str	r3, [r4, #72]
 142 011a CAEB0601 		rsb	r1, sl, r6
 143 011e 6763     		str	r7, [r4, #52]
 144 0120 7748     		ldr	r0, .L29+32
 145 0122 FFF7FEFF 		bl	MULSHIFT32
 146 0126 266F     		ldr	r6, [r4, #112]
 147 0128 E168     		ldr	r1, [r4, #12]
 148 012a D4F830B0 		ldr	fp, [r4, #48]
 149 012e D4F84CA0 		ldr	sl, [r4, #76]
 150 0132 4000     		lsls	r0, r0, #1
 151 0134 01EB0609 		add	r9, r1, r6
 152 0138 6067     		str	r0, [r4, #116]
 153 013a 891B     		subs	r1, r1, r6
 154 013c 7148     		ldr	r0, .L29+36
 155 013e FFF7FEFF 		bl	MULSHIFT32
 156 0142 CAEB0B01 		rsb	r1, sl, fp
 157 0146 4600     		lsls	r6, r0, #1
 158 0148 6F48     		ldr	r0, .L29+40
 159 014a FFF7FEFF 		bl	MULSHIFT32
 160 014e 0BEB0A07 		add	r7, fp, sl
 161 0152 09EB0702 		add	r2, r9, r7
 162 0156 E260     		str	r2, [r4, #12]
 163 0158 4FEA800A 		lsl	sl, r0, #2
 164 015c C7EB0901 		rsb	r1, r7, r9
 165 0160 6A48     		ldr	r0, .L29+44
 166 0162 FFF7FEFF 		bl	MULSHIFT32
 167 0166 0AEB0603 		add	r3, sl, r6
 168 016a 4700     		lsls	r7, r0, #1
 169 016c E364     		str	r3, [r4, #76]
 170 016e CAEB0601 		rsb	r1, sl, r6
 171 0172 2763     		str	r7, [r4, #48]
 172 0174 6548     		ldr	r0, .L29+44
 173 0176 FFF7FEFF 		bl	MULSHIFT32
 174 017a E66E     		ldr	r6, [r4, #108]
 175 017c 2169     		ldr	r1, [r4, #16]
 176 017e D4F82CB0 		ldr	fp, [r4, #44]
 177 0182 D4F850A0 		ldr	sl, [r4, #80]
 178 0186 4000     		lsls	r0, r0, #1
 179 0188 01EB0609 		add	r9, r1, r6
 180 018c 2067     		str	r0, [r4, #112]
 181 018e 891B     		subs	r1, r1, r6
 182 0190 5F48     		ldr	r0, .L29+48
 183 0192 FFF7FEFF 		bl	MULSHIFT32
 184 0196 CAEB0B01 		rsb	r1, sl, fp
 185 019a 4600     		lsls	r6, r0, #1
 186 019c 5D48     		ldr	r0, .L29+52
 187 019e FFF7FEFF 		bl	MULSHIFT32
 188 01a2 0BEB0A07 		add	r7, fp, sl
 189 01a6 09EB0702 		add	r2, r9, r7
 190 01aa 2261     		str	r2, [r4, #16]
 191 01ac 4FEA800A 		lsl	sl, r0, #2
 192 01b0 C7EB0901 		rsb	r1, r7, r9
 193 01b4 5848     		ldr	r0, .L29+56
 194 01b6 FFF7FEFF 		bl	MULSHIFT32
 195 01ba 0AEB0603 		add	r3, sl, r6
 196 01be 4700     		lsls	r7, r0, #1
 197 01c0 2365     		str	r3, [r4, #80]
 198 01c2 CAEB0601 		rsb	r1, sl, r6
 199 01c6 E762     		str	r7, [r4, #44]
 200 01c8 5348     		ldr	r0, .L29+56
 201 01ca FFF7FEFF 		bl	MULSHIFT32
 202 01ce A66E     		ldr	r6, [r4, #104]
 203 01d0 6169     		ldr	r1, [r4, #20]
 204 01d2 D4F828B0 		ldr	fp, [r4, #40]
 205 01d6 D4F854A0 		ldr	sl, [r4, #84]
 206 01da 4000     		lsls	r0, r0, #1
 207 01dc 01EB0609 		add	r9, r1, r6
 208 01e0 E066     		str	r0, [r4, #108]
 209 01e2 891B     		subs	r1, r1, r6
 210 01e4 4D48     		ldr	r0, .L29+60
 211 01e6 FFF7FEFF 		bl	MULSHIFT32
 212 01ea CAEB0B01 		rsb	r1, sl, fp
 213 01ee 4600     		lsls	r6, r0, #1
 214 01f0 4B48     		ldr	r0, .L29+64
 215 01f2 FFF7FEFF 		bl	MULSHIFT32
 216 01f6 0BEB0A07 		add	r7, fp, sl
 217 01fa 09EB0702 		add	r2, r9, r7
 218 01fe 6261     		str	r2, [r4, #20]
 219 0200 4FEA400A 		lsl	sl, r0, #1
 220 0204 C7EB0901 		rsb	r1, r7, r9
 221 0208 4648     		ldr	r0, .L29+68
 222 020a FFF7FEFF 		bl	MULSHIFT32
 223 020e 0AEB0603 		add	r3, sl, r6
 224 0212 8700     		lsls	r7, r0, #2
 225 0214 6365     		str	r3, [r4, #84]
 226 0216 CAEB0601 		rsb	r1, sl, r6
 227 021a A762     		str	r7, [r4, #40]
 228 021c 4148     		ldr	r0, .L29+68
 229 021e FFF7FEFF 		bl	MULSHIFT32
 230 0222 666E     		ldr	r6, [r4, #100]
 231 0224 A169     		ldr	r1, [r4, #24]
 232 0226 D4F824B0 		ldr	fp, [r4, #36]
 233 022a D4F858A0 		ldr	sl, [r4, #88]
 234 022e 8000     		lsls	r0, r0, #2
 235 0230 01EB0609 		add	r9, r1, r6
 236 0234 A066     		str	r0, [r4, #104]
 237 0236 891B     		subs	r1, r1, r6
 238 0238 3B48     		ldr	r0, .L29+72
 239 023a FFF7FEFF 		bl	MULSHIFT32
 240 023e CAEB0B01 		rsb	r1, sl, fp
 241 0242 4600     		lsls	r6, r0, #1
 242 0244 3948     		ldr	r0, .L29+76
 243 0246 FFF7FEFF 		bl	MULSHIFT32
 244 024a 0BEB0A07 		add	r7, fp, sl
 245 024e 09EB0702 		add	r2, r9, r7
 246 0252 A261     		str	r2, [r4, #24]
 247 0254 4FEA400A 		lsl	sl, r0, #1
 248 0258 C7EB0901 		rsb	r1, r7, r9
 249 025c 3448     		ldr	r0, .L29+80
 250 025e FFF7FEFF 		bl	MULSHIFT32
 251 0262 0AEB0603 		add	r3, sl, r6
 252 0266 8700     		lsls	r7, r0, #2
 253 0268 A365     		str	r3, [r4, #88]
 254 026a CAEB0601 		rsb	r1, sl, r6
 255 026e 6762     		str	r7, [r4, #36]
 256 0270 2F48     		ldr	r0, .L29+80
 257 0272 FFF7FEFF 		bl	MULSHIFT32
 258 0276 266E     		ldr	r6, [r4, #96]
 259 0278 E169     		ldr	r1, [r4, #28]
 260 027a D4F85CA0 		ldr	sl, [r4, #92]
 261 027e D4F820B0 		ldr	fp, [r4, #32]
 262 0282 8000     		lsls	r0, r0, #2
 263 0284 01EB0609 		add	r9, r1, r6
 264 0288 6066     		str	r0, [r4, #100]
 265 028a 891B     		subs	r1, r1, r6
 266 028c 2948     		ldr	r0, .L29+84
 267 028e FFF7FEFF 		bl	MULSHIFT32
 268 0292 CAEB0B01 		rsb	r1, sl, fp
 269 0296 4600     		lsls	r6, r0, #1
 270 0298 2748     		ldr	r0, .L29+88
 271 029a FFF7FEFF 		bl	MULSHIFT32
 272 029e 0BEB0A07 		add	r7, fp, sl
 273 02a2 09EB0702 		add	r2, r9, r7
 274 02a6 C7EB0901 		rsb	r1, r7, r9
 275 02aa 4FEA400A 		lsl	sl, r0, #1
 276 02ae E261     		str	r2, [r4, #28]
 277 02b0 2248     		ldr	r0, .L29+92
 278 02b2 FFF7FEFF 		bl	MULSHIFT32
 279 02b6 0AEB0603 		add	r3, sl, r6
 280 02ba 0701     		lsls	r7, r0, #4
 281 02bc CAEB0601 		rsb	r1, sl, r6
 282 02c0 2762     		str	r7, [r4, #32]
 283 02c2 E365     		str	r3, [r4, #92]
 284 02c4 1D48     		ldr	r0, .L29+92
 285 02c6 1E4F     		ldr	r7, .L29+96
 286 02c8 FFF7FEFF 		bl	MULSHIFT32
 287 02cc 0101     		lsls	r1, r0, #4
 288 02ce 2166     		str	r1, [r4, #96]
 289 02d0 2646     		mov	r6, r4
 290 02d2 4FF00009 		mov	r9, #0
 291 02d6 CDF82080 		str	r8, [sp, #32]
 292 02da 0995     		str	r5, [sp, #36]
 293 02dc 32E0     		b	.L30
 294              	.L31:
 295 02de 00BF     		.align	2
 296              	.L29:
 297 02e0 51C21340 		.word	1075036753
 298 02e4 FB228551 		.word	1367679739
 299 02e8 72464F40 		.word	1078937202
 300 02ec BD45B340 		.word	1085490621
 301 02f0 CF200B6D 		.word	1829445839
 302 02f4 103CE142 		.word	1122057232
 303 02f8 6D2DFA41 		.word	1106914669
 304 02fc 9057D941 		.word	1104762768
 305 0300 449F9148 		.word	1217503044
 306 0304 2134F943 		.word	1140405281
 307 0308 968DFC5E 		.word	1593609622
 308 030c 630ECB52 		.word	1389039203
 309 0310 C41BCC46 		.word	1187781572
 310 0314 971AD84A 		.word	1255676567
 311 0318 2E40E264 		.word	1692549166
 312 031c F09C9D4A 		.word	1251843312
 313 0320 B31D7D7C 		.word	2088574387
 314 0324 A924E243 		.word	1138893993
 315 0328 1137AE4F 		.word	1336817425
 316 032c 26CF6F6B 		.word	1802489638
 317 0330 C1923C6E 		.word	1849463489
 318 0334 A71E6056 		.word	1449139879
 319 0338 EBF64C5F 		.word	1598879467
 320 033c 044E9E51 		.word	1369329156
 321 0340 60000000 		.word	.LANCHOR0+96
 322              	.L30:
 323              	.L5:
 324 0344 F269     		ldr	r2, [r6, #28]
 325 0346 54F80910 		ldr	r1, [r4, r9]
 326 034a 3868     		ldr	r0, [r7, #0]
 327 034c D6F80CB0 		ldr	fp, [r6, #12]
 328 0350 D6F810A0 		ldr	sl, [r6, #16]
 329 0354 01EB0208 		add	r8, r1, r2
 330 0358 891A     		subs	r1, r1, r2
 331 035a FFF7FEFF 		bl	MULSHIFT32
 332 035e CAEB0B01 		rsb	r1, sl, fp
 333 0362 4300     		lsls	r3, r0, #1
 334 0364 7868     		ldr	r0, [r7, #4]
 335 0366 0193     		str	r3, [sp, #4]
 336 0368 FFF7FEFF 		bl	MULSHIFT32
 337 036c 0BEB0A05 		add	r5, fp, sl
 338 0370 08EB050C 		add	ip, r8, r5
 339 0374 4FEAC00A 		lsl	sl, r0, #3
 340 0378 C5EB0801 		rsb	r1, r5, r8
 341 037c B868     		ldr	r0, [r7, #8]
 342 037e CDF808C0 		str	ip, [sp, #8]
 343 0382 FFF7FEFF 		bl	MULSHIFT32
 344 0386 019D     		ldr	r5, [sp, #4]
 345 0388 4200     		lsls	r2, r0, #1
 346 038a 0AEB0503 		add	r3, sl, r5
 347 038e CAEB0501 		rsb	r1, sl, r5
 348 0392 B868     		ldr	r0, [r7, #8]
 349 0394 0693     		str	r3, [sp, #24]
 350 0396 0592     		str	r2, [sp, #20]
 351 0398 FFF7FEFF 		bl	MULSHIFT32
 352 039c 7268     		ldr	r2, [r6, #4]
 353 039e B169     		ldr	r1, [r6, #24]
 354 03a0 D6F808B0 		ldr	fp, [r6, #8]
 355 03a4 D6F814A0 		ldr	sl, [r6, #20]
 356 03a8 4000     		lsls	r0, r0, #1
 357 03aa 02EB0108 		add	r8, r2, r1
 358 03ae 0790     		str	r0, [sp, #28]
 359 03b0 511A     		subs	r1, r2, r1
 360 03b2 F868     		ldr	r0, [r7, #12]
 361 03b4 FFF7FEFF 		bl	MULSHIFT32
 362 03b8 CAEB0B01 		rsb	r1, sl, fp
 363 03bc 4300     		lsls	r3, r0, #1
 364 03be 3869     		ldr	r0, [r7, #16]
 365 03c0 0193     		str	r3, [sp, #4]
 366 03c2 FFF7FEFF 		bl	MULSHIFT32
 367 03c6 0BEB0A05 		add	r5, fp, sl
 368 03ca C5EB0801 		rsb	r1, r5, r8
 369 03ce 4FEA400B 		lsl	fp, r0, #1
 370 03d2 7869     		ldr	r0, [r7, #20]
 371 03d4 FFF7FEFF 		bl	MULSHIFT32
 372 03d8 0199     		ldr	r1, [sp, #4]
 373 03da 08EB050A 		add	sl, r8, r5
 374 03de 0BEB0105 		add	r5, fp, r1
 375 03e2 4FEA8008 		lsl	r8, r0, #2
 376 03e6 CBEB0101 		rsb	r1, fp, r1
 377 03ea 7869     		ldr	r0, [r7, #20]
 378 03ec FFF7FEFF 		bl	MULSHIFT32
 379 03f0 DDF808C0 		ldr	ip, [sp, #8]
 380 03f4 4FEA800B 		lsl	fp, r0, #2
 381 03f8 0CEB0A02 		add	r2, ip, sl
 382 03fc CAEB0C01 		rsb	r1, sl, ip
 383 0400 C648     		ldr	r0, .L32
 384 0402 0292     		str	r2, [sp, #8]
 385 0404 FFF7FEFF 		bl	MULSHIFT32
 386 0408 DDF814E0 		ldr	lr, [sp, #20]
 387 040c 8246     		mov	sl, r0
 388 040e 08EB0E03 		add	r3, r8, lr
 389 0412 C8EB0E01 		rsb	r1, r8, lr
 390 0416 C148     		ldr	r0, .L32
 391 0418 0193     		str	r3, [sp, #4]
 392 041a FFF7FEFF 		bl	MULSHIFT32
 393 041e 029A     		ldr	r2, [sp, #8]
 394 0420 0199     		ldr	r1, [sp, #4]
 395 0422 44F80920 		str	r2, [r4, r9]
 396 0426 4FEA4A03 		lsl	r3, sl, #1
 397 042a 4000     		lsls	r0, r0, #1
 398 042c 7360     		str	r3, [r6, #4]
 399 042e 069B     		ldr	r3, [sp, #24]
 400 0430 F060     		str	r0, [r6, #12]
 401 0432 0A18     		adds	r2, r1, r0
 402 0434 B260     		str	r2, [r6, #8]
 403 0436 591B     		subs	r1, r3, r5
 404 0438 B848     		ldr	r0, .L32
 405 043a 03EB0508 		add	r8, r3, r5
 406 043e FFF7FEFF 		bl	MULSHIFT32
 407 0442 0799     		ldr	r1, [sp, #28]
 408 0444 4500     		lsls	r5, r0, #1
 409 0446 0BEB010A 		add	sl, fp, r1
 410 044a B448     		ldr	r0, .L32
 411 044c CBEB0101 		rsb	r1, fp, r1
 412 0450 FFF7FEFF 		bl	MULSHIFT32
 413 0454 4000     		lsls	r0, r0, #1
 414 0456 8244     		add	sl, sl, r0
 415 0458 2B18     		adds	r3, r5, r0
 416 045a 08EB0A02 		add	r2, r8, sl
 417 045e 5544     		add	r5, r5, sl
 418 0460 09F12009 		add	r9, r9, #32
 419 0464 1837     		adds	r7, r7, #24
 420 0466 3261     		str	r2, [r6, #16]
 421 0468 7361     		str	r3, [r6, #20]
 422 046a B561     		str	r5, [r6, #24]
 423 046c F061     		str	r0, [r6, #28]
 424 046e 2036     		adds	r6, r6, #32
 425 0470 B9F1800F 		cmp	r9, #128
 426 0474 7FF466AF 		bne	.L5
 427 0478 0399     		ldr	r1, [sp, #12]
 428 047a 0498     		ldr	r0, [sp, #16]
 429 047c 099D     		ldr	r5, [sp, #36]
 430 047e 2268     		ldr	r2, [r4, #0]
 431 0480 049B     		ldr	r3, [sp, #16]
 432 0482 DDF82080 		ldr	r8, [sp, #32]
 433 0486 461A     		subs	r6, r0, r1
 434 0488 0029     		cmp	r1, #0
 435 048a 06F00706 		and	r6, r6, #7
 436 048e 0CBF     		ite	eq
 437 0490 4FF48860 		moveq	r0, #1088
 438 0494 0020     		movne	r0, #0
 439 0496 06F58061 		add	r1, r6, #1024
 440 049a 00EB010C 		add	ip, r0, r1
 441 049e 05EB8C07 		add	r7, r5, ip, lsl #2
 442 04a2 3A62     		str	r2, [r7, #32]
 443 04a4 039F     		ldr	r7, [sp, #12]
 444 04a6 45F82C20 		str	r2, [r5, ip, lsl #2]
 445 04aa 18BF     		it	ne
 446 04ac 4FF48867 		movne	r7, #1088
 447 04b0 07EB030C 		add	ip, r7, r3
 448 04b4 05EB8C03 		add	r3, r5, ip, lsl #2
 449 04b8 6268     		ldr	r2, [r4, #4]
 450 04ba 1A62     		str	r2, [r3, #32]
 451 04bc 45F82C20 		str	r2, [r5, ip, lsl #2]
 452 04c0 676E     		ldr	r7, [r4, #100]
 453 04c2 626F     		ldr	r2, [r4, #116]
 454 04c4 BA18     		adds	r2, r7, r2
 455 04c6 676C     		ldr	r7, [r4, #68]
 456 04c8 D719     		adds	r7, r2, r7
 457 04ca C3F82071 		str	r7, [r3, #288]
 458 04ce C3F80071 		str	r7, [r3, #256]
 459 04d2 D4F824C0 		ldr	ip, [r4, #36]
 460 04d6 676B     		ldr	r7, [r4, #52]
 461 04d8 6744     		add	r7, ip, r7
 462 04da C3F82072 		str	r7, [r3, #544]
 463 04de C3F80072 		str	r7, [r3, #512]
 464 04e2 676D     		ldr	r7, [r4, #84]
 465 04e4 D219     		adds	r2, r2, r7
 466 04e6 C3F82023 		str	r2, [r3, #800]
 467 04ea C3F80023 		str	r2, [r3, #768]
 468 04ee 676F     		ldr	r7, [r4, #116]
 469 04f0 E26E     		ldr	r2, [r4, #108]
 470 04f2 BA18     		adds	r2, r7, r2
 471 04f4 6769     		ldr	r7, [r4, #20]
 472 04f6 C3F82074 		str	r7, [r3, #1056]
 473 04fa C3F80074 		str	r7, [r3, #1024]
 474 04fe 676D     		ldr	r7, [r4, #84]
 475 0500 D719     		adds	r7, r2, r7
 476 0502 C3F82075 		str	r7, [r3, #1312]
 477 0506 C3F80075 		str	r7, [r3, #1280]
 478 050a D4F834C0 		ldr	ip, [r4, #52]
 479 050e E76A     		ldr	r7, [r4, #44]
 480 0510 6744     		add	r7, ip, r7
 481 0512 C3F82076 		str	r7, [r3, #1568]
 482 0516 C3F80076 		str	r7, [r3, #1536]
 483 051a E76C     		ldr	r7, [r4, #76]
 484 051c D219     		adds	r2, r2, r7
 485 051e C3F82027 		str	r2, [r3, #1824]
 486 0522 C3F80027 		str	r2, [r3, #1792]
 487 0526 E76E     		ldr	r7, [r4, #108]
 488 0528 E26F     		ldr	r2, [r4, #124]
 489 052a BA18     		adds	r2, r7, r2
 490 052c E768     		ldr	r7, [r4, #12]
 491 052e C3F82078 		str	r7, [r3, #2080]
 492 0532 C3F80078 		str	r7, [r3, #2048]
 493 0536 E76C     		ldr	r7, [r4, #76]
 494 0538 D719     		adds	r7, r2, r7
 495 053a C3F82079 		str	r7, [r3, #2336]
 496 053e C3F80079 		str	r7, [r3, #2304]
 497 0542 D4F82CC0 		ldr	ip, [r4, #44]
 498 0546 E76B     		ldr	r7, [r4, #60]
 499 0548 6744     		add	r7, ip, r7
 500 054a C3F8207A 		str	r7, [r3, #2592]
 501 054e C3F8007A 		str	r7, [r3, #2560]
 502 0552 E76D     		ldr	r7, [r4, #92]
 503 0554 D219     		adds	r2, r2, r7
 504 0556 C3F8202B 		str	r2, [r3, #2848]
 505 055a C3F8002B 		str	r2, [r3, #2816]
 506 055e E769     		ldr	r7, [r4, #28]
 507 0560 E26F     		ldr	r2, [r4, #124]
 508 0562 C3F8207C 		str	r7, [r3, #3104]
 509 0566 C3F8007C 		str	r7, [r3, #3072]
 510 056a E76D     		ldr	r7, [r4, #92]
 511 056c D719     		adds	r7, r2, r7
 512 056e C3F8207D 		str	r7, [r3, #3360]
 513 0572 C3F8007D 		str	r7, [r3, #3328]
 514 0576 E76B     		ldr	r7, [r4, #60]
 515 0578 C3F8202F 		str	r2, [r3, #3872]
 516 057c 1036     		adds	r6, r6, #16
 517 057e C3F8002F 		str	r2, [r3, #3840]
 518 0582 00EB060C 		add	ip, r0, r6
 519 0586 C3F8207E 		str	r7, [r3, #3616]
 520 058a C3F8007E 		str	r7, [r3, #3584]
 521 058e 6768     		ldr	r7, [r4, #4]
 522 0590 05EB8C03 		add	r3, r5, ip, lsl #2
 523 0594 1F62     		str	r7, [r3, #32]
 524 0596 45F82C70 		str	r7, [r5, ip, lsl #2]
 525 059a A06F     		ldr	r0, [r4, #120]
 526 059c 676E     		ldr	r7, [r4, #100]
 527 059e 626C     		ldr	r2, [r4, #68]
 528 05a0 00EB070C 		add	ip, r0, r7
 529 05a4 0CEB0200 		add	r0, ip, r2
 530 05a8 C3F82001 		str	r0, [r3, #288]
 531 05ac C3F80001 		str	r0, [r3, #256]
 532 05b0 A76B     		ldr	r7, [r4, #56]
 533 05b2 626A     		ldr	r2, [r4, #36]
 534 05b4 B818     		adds	r0, r7, r2
 535 05b6 C3F82002 		str	r0, [r3, #544]
 536 05ba C3F80002 		str	r0, [r3, #512]
 537 05be A26D     		ldr	r2, [r4, #88]
 538 05c0 0CEB0207 		add	r7, ip, r2
 539 05c4 C3F82073 		str	r7, [r3, #800]
 540 05c8 C3F80073 		str	r7, [r3, #768]
 541 05cc A069     		ldr	r0, [r4, #24]
 542 05ce C3F82004 		str	r0, [r3, #1056]
 543 05d2 C3F80004 		str	r0, [r3, #1024]
 544 05d6 A26E     		ldr	r2, [r4, #104]
 545 05d8 A76F     		ldr	r7, [r4, #120]
 546 05da A06D     		ldr	r0, [r4, #88]
 547 05dc 02EB070C 		add	ip, r2, r7
 548 05e0 0CEB0002 		add	r2, ip, r0
 549 05e4 C3F82025 		str	r2, [r3, #1312]
 550 05e8 C3F80025 		str	r2, [r3, #1280]
 551 05ec A76A     		ldr	r7, [r4, #40]
 552 05ee A06B     		ldr	r0, [r4, #56]
 553 05f0 3A18     		adds	r2, r7, r0
 554 05f2 C3F82026 		str	r2, [r3, #1568]
 555 05f6 C3F80026 		str	r2, [r3, #1536]
 556 05fa A06C     		ldr	r0, [r4, #72]
 557 05fc 0CEB0007 		add	r7, ip, r0
 558 0600 C3F82077 		str	r7, [r3, #1824]
 559 0604 C3F80077 		str	r7, [r3, #1792]
 560 0608 A268     		ldr	r2, [r4, #8]
 561 060a C3F82028 		str	r2, [r3, #2080]
 562 060e C3F80028 		str	r2, [r3, #2048]
 563 0612 206F     		ldr	r0, [r4, #112]
 564 0614 A76E     		ldr	r7, [r4, #104]
 565 0616 A26C     		ldr	r2, [r4, #72]
 566 0618 00EB070C 		add	ip, r0, r7
 567 061c 0CEB0200 		add	r0, ip, r2
 568 0620 C3F82009 		str	r0, [r3, #2336]
 569 0624 C3F80009 		str	r0, [r3, #2304]
 570 0628 276B     		ldr	r7, [r4, #48]
 571 062a A26A     		ldr	r2, [r4, #40]
 572 062c B818     		adds	r0, r7, r2
 573 062e C3F8200A 		str	r0, [r3, #2592]
 574 0632 C3F8000A 		str	r0, [r3, #2560]
 575 0636 276D     		ldr	r7, [r4, #80]
 576 0638 0CEB0702 		add	r2, ip, r7
 577 063c C3F8202B 		str	r2, [r3, #2848]
 578 0640 C3F8002B 		str	r2, [r3, #2816]
 579 0644 2069     		ldr	r0, [r4, #16]
 580 0646 C3F8200C 		str	r0, [r3, #3104]
 581 064a C3F8000C 		str	r0, [r3, #3072]
 582 064e 276E     		ldr	r7, [r4, #96]
 583 0650 226F     		ldr	r2, [r4, #112]
 584 0652 206D     		ldr	r0, [r4, #80]
 585 0654 07EB020C 		add	ip, r7, r2
 586 0658 0CEB0007 		add	r7, ip, r0
 587 065c C3F8207D 		str	r7, [r3, #3360]
 588 0660 C3F8007D 		str	r7, [r3, #3328]
 589 0664 226B     		ldr	r2, [r4, #48]
 590 0666 276A     		ldr	r7, [r4, #32]
 591 0668 B818     		adds	r0, r7, r2
 592 066a C3F8200E 		str	r0, [r3, #3616]
 593 066e C3F8000E 		str	r0, [r3, #3584]
 594 0672 226C     		ldr	r2, [r4, #64]
 595 0674 0CEB0200 		add	r0, ip, r2
 596 0678 C3F8200F 		str	r0, [r3, #3872]
 597 067c C3F8000F 		str	r0, [r3, #3840]
 598 0680 B8F1000F 		cmp	r8, #0
 599 0684 5ED0     		beq	.L2
 600 0686 039B     		ldr	r3, [sp, #12]
 601 0688 002B     		cmp	r3, #0
 602 068a 0CBF     		ite	eq
 603 068c 4FF48864 		moveq	r4, #1088
 604 0690 0024     		movne	r4, #0
 605 0692 6118     		adds	r1, r4, r1
 606 0694 C8F11F02 		rsb	r2, r8, #31
 607 0698 55F82130 		ldr	r3, [r5, r1, lsl #2]
 608 069c D817     		asrs	r0, r3, #31
 609 069e 43FA02FC 		asr	ip, r3, r2
 610 06a2 6045     		cmp	r0, ip
 611 06a4 05EB8104 		add	r4, r5, r1, lsl #2
 612 06a8 05D0     		beq	.L11
 613 06aa 0127     		movs	r7, #1
 614 06ac 07FA02F3 		lsl	r3, r7, r2
 615 06b0 5F1E     		subs	r7, r3, #1
 616 06b2 80EA0703 		eor	r3, r0, r7
 617              	.L11:
 618 06b6 039F     		ldr	r7, [sp, #12]
 619 06b8 03FA08F0 		lsl	r0, r3, r8
 620 06bc 049B     		ldr	r3, [sp, #16]
 621 06be 2062     		str	r0, [r4, #32]
 622 06c0 002F     		cmp	r7, #0
 623 06c2 14BF     		ite	ne
 624 06c4 4FF4886C 		movne	ip, #1088
 625 06c8 4FF0000C 		moveq	ip, #0
 626 06cc 0124     		movs	r4, #1
 627 06ce 45F82100 		str	r0, [r5, r1, lsl #2]
 628 06d2 0CEB0300 		add	r0, ip, r3
 629 06d6 04FA02F1 		lsl	r1, r4, r2
 630 06da 05EB8000 		add	r0, r5, r0, lsl #2
 631 06de 4C1E     		subs	r4, r1, #1
 632 06e0 0023     		movs	r3, #0
 633              	.L14:
 634 06e2 C158     		ldr	r1, [r0, r3]
 635 06e4 CF17     		asrs	r7, r1, #31
 636 06e6 41FA02FC 		asr	ip, r1, r2
 637 06ea 6745     		cmp	r7, ip
 638 06ec 18BF     		it	ne
 639 06ee 87EA0401 		eorne	r1, r7, r4
 640 06f2 C718     		adds	r7, r0, r3
 641 06f4 01FA08F1 		lsl	r1, r1, r8
 642 06f8 3962     		str	r1, [r7, #32]
 643 06fa C150     		str	r1, [r0, r3]
 644 06fc 03F58073 		add	r3, r3, #256
 645 0700 B3F5805F 		cmp	r3, #4096
 646 0704 EDD1     		bne	.L14
 647 0706 0398     		ldr	r0, [sp, #12]
 648 0708 0028     		cmp	r0, #0
 649 070a 0CBF     		ite	eq
 650 070c 4FF48863 		moveq	r3, #1088
 651 0710 0023     		movne	r3, #0
 652 0712 9E19     		adds	r6, r3, r6
 653 0714 05EB8605 		add	r5, r5, r6, lsl #2
 654 0718 0023     		movs	r3, #0
 655 071a 01E0     		b	.L33
 656              	.L34:
 657              		.align	2
 658              	.L32:
 659 071c 9A79825A 		.word	1518500250
 660              	.L33:
 661              	.L17:
 662 0720 E958     		ldr	r1, [r5, r3]
 663 0722 C817     		asrs	r0, r1, #31
 664 0724 41FA02F6 		asr	r6, r1, r2
 665 0728 B042     		cmp	r0, r6
 666 072a 18BF     		it	ne
 667 072c 80EA0401 		eorne	r1, r0, r4
 668 0730 E818     		adds	r0, r5, r3
 669 0732 01FA08F1 		lsl	r1, r1, r8
 670 0736 0162     		str	r1, [r0, #32]
 671 0738 E950     		str	r1, [r5, r3]
 672 073a 03F58073 		add	r3, r3, #256
 673 073e B3F5805F 		cmp	r3, #4096
 674 0742 EDD1     		bne	.L17
 675              	.L2:
 676 0744 0BB0     		add	sp, sp, #44
 677 0746 BDE8F08F 		pop	{r4, r5, r6, r7, r8, r9, sl, fp, pc}
 679 074a 00BF     		.section	.rodata.dcttab,"a",%progbits
 680              		.align	2
 681              		.set	.LANCHOR0,. + 0
 684              	dcttab:
 685 0000 51C21340 		.word	1075036753
 686 0004 FB228551 		.word	1367679739
 687 0008 72464F40 		.word	1078937202
 688 000c BD45B340 		.word	1085490621
 689 0010 CF200B6D 		.word	1829445839
 690 0014 103CE142 		.word	1122057232
 691 0018 6D2DFA41 		.word	1106914669
 692 001c 9057D941 		.word	1104762768
 693 0020 449F9148 		.word	1217503044
 694 0024 2134F943 		.word	1140405281
 695 0028 968DFC5E 		.word	1593609622
 696 002c 630ECB52 		.word	1389039203
 697 0030 C41BCC46 		.word	1187781572
 698 0034 971AD84A 		.word	1255676567
 699 0038 2E40E264 		.word	1692549166
 700 003c F09C9D4A 		.word	1251843312
 701 0040 B31D7D7C 		.word	2088574387
 702 0044 A924E243 		.word	1138893993
 703 0048 1137AE4F 		.word	1336817425
 704 004c 26CF6F6B 		.word	1802489638
 705 0050 C1923C6E 		.word	1849463489
 706 0054 A71E6056 		.word	1449139879
 707 0058 EBF64C5F 		.word	1598879467
 708 005c 044E9E51 		.word	1369329156
 709 0060 46FB4041 		.word	1094777670
 710 0064 42670352 		.word	1375954754
 711 0068 EFE94545 		.word	1162209775
 712 006c 88DEF84C 		.word	1291378312
 713 0070 BF6B3273 		.word	1932684223
 714 0074 45BA9E53 		.word	1402911301
 715 0078 BA04BFBE 		.word	-1094777670
 716 007c BE98FCAD 		.word	-1375954754
 717 0080 EFE94545 		.word	1162209775
 718 0084 782107B3 		.word	-1291378312
 719 0088 4194CD8C 		.word	-1932684223
 720 008c 45BA9E53 		.word	1402911301
 721 0090 46FB4041 		.word	1094777670
 722 0094 42670352 		.word	1375954754
 723 0098 EFE94545 		.word	1162209775
 724 009c 88DEF84C 		.word	1291378312
 725 00a0 BF6B3273 		.word	1932684223
 726 00a4 45BA9E53 		.word	1402911301
 727 00a8 BA04BFBE 		.word	-1094777670
 728 00ac BE98FCAD 		.word	-1375954754
 729 00b0 EFE94545 		.word	1162209775
 730 00b4 782107B3 		.word	-1291378312
 731 00b8 4194CD8C 		.word	-1932684223
 732 00bc 45BA9E53 		.word	1402911301
 733              		.ident	"GCC: (Sourcery CodeBench Lite 2012.03-56) 4.6.3"
DEFINED SYMBOLS
                            *ABS*:00000000 dct32.c
     /tmp/ccYsTdmH.s:17     .text.MULSHIFT32:00000000 $t
     /tmp/ccYsTdmH.s:21     .text.MULSHIFT32:00000000 MULSHIFT32
     /tmp/ccYsTdmH.s:34     .text.xmp3fixpt_FDCT32:00000000 $t
     /tmp/ccYsTdmH.s:39     .text.xmp3fixpt_FDCT32:00000000 xmp3fixpt_FDCT32
     /tmp/ccYsTdmH.s:297    .text.xmp3fixpt_FDCT32:000002e0 $d
     /tmp/ccYsTdmH.s:324    .text.xmp3fixpt_FDCT32:00000344 $t
     /tmp/ccYsTdmH.s:659    .text.xmp3fixpt_FDCT32:0000071c $d
     /tmp/ccYsTdmH.s:662    .text.xmp3fixpt_FDCT32:00000720 $t
     /tmp/ccYsTdmH.s:680    .rodata.dcttab:00000000 $d
     /tmp/ccYsTdmH.s:684    .rodata.dcttab:00000000 dcttab

NO UNDEFINED SYMBOLS
