   1              		.syntax unified
   2              		.cpu cortex-m4
   3              		.eabi_attribute 27, 3
   4              		.fpu fpv4-sp-d16
   5              		.eabi_attribute 20, 1
   6              		.eabi_attribute 21, 1
   7              		.eabi_attribute 23, 3
   8              		.eabi_attribute 24, 1
   9              		.eabi_attribute 25, 1
  10              		.eabi_attribute 26, 1
  11              		.eabi_attribute 30, 4
  12              		.eabi_attribute 34, 1
  13              		.eabi_attribute 18, 4
  14              		.thumb
  15              		.file	"dequant.c"
  16              		.section	.text.CLZ,"ax",%progbits
  17              		.align	1
  18              		.thumb
  19              		.thumb_func
  21              	CLZ:
  22              		@ args = 0, pretend = 0, frame = 0
  23              		@ frame_needed = 0, uses_anonymous_args = 0
  24              		@ link register save eliminated.
  25 0000 30B1     		cbz	r0, .L5
  26 0002 0023     		movs	r3, #0
  27 0004 01E0     		b	.L3
  28              	.L4:
  29 0006 0133     		adds	r3, r3, #1
  30 0008 4000     		lsls	r0, r0, #1
  31              	.L3:
  32 000a 0028     		cmp	r0, #0
  33 000c FBDA     		bge	.L4
  34 000e 00E0     		b	.L2
  35              	.L5:
  36 0010 2023     		movs	r3, #32
  37              	.L2:
  38 0012 1846     		mov	r0, r3
  39 0014 7047     		bx	lr
  41              		.section	.text.xmp3fixpt_Dequantize,"ax",%progbits
  42              		.align	1
  43              		.global	xmp3fixpt_Dequantize
  44              		.thumb
  45              		.thumb_func
  47              	xmp3fixpt_Dequantize:
  48              		@ args = 0, pretend = 0, frame = 24
  49              		@ frame_needed = 0, uses_anonymous_args = 0
  50 0000 2DE9F04F 		push	{r4, r5, r6, r7, r8, r9, sl, fp, lr}
  51 0004 0746     		mov	r7, r0
  52 0006 8DB0     		sub	sp, sp, #52
  53 0008 0028     		cmp	r0, #0
  54 000a 00F0FA80 		beq	.L31
  55 000e 0568     		ldr	r5, [r0, #0]
  56 0010 002D     		cmp	r5, #0
  57 0012 00F0F680 		beq	.L31
  58 0016 D0F804B0 		ldr	fp, [r0, #4]
  59 001a BBF1000F 		cmp	fp, #0
  60 001e 00F0F080 		beq	.L31
  61 0022 D0F80890 		ldr	r9, [r0, #8]
  62 0026 B9F1000F 		cmp	r9, #0
  63 002a 00F0EA80 		beq	.L31
  64 002e C468     		ldr	r4, [r0, #12]
  65 0030 002C     		cmp	r4, #0
  66 0032 00F0E680 		beq	.L31
  67 0036 0669     		ldr	r6, [r0, #16]
  68 0038 002E     		cmp	r6, #0
  69 003a 00F0E280 		beq	.L31
  70 003e 9020     		movs	r0, #144
  71 0040 7C22     		movs	r2, #124
  72 0042 0023     		movs	r3, #0
  73 0044 4A43     		muls	r2, r1, r2
  74 0046 00FB01FC 		mul	ip, r0, r1
  75 004a AA46     		mov	sl, r5
  76 004c 0B93     		str	r3, [sp, #44]
  77 004e 0A93     		str	r3, [sp, #40]
  78 0050 0892     		str	r2, [sp, #32]
  79 0052 0792     		str	r2, [sp, #28]
  80 0054 9846     		mov	r8, r3
  81 0056 0991     		str	r1, [sp, #36]
  82 0058 6546     		mov	r5, ip
  83 005a 25E0     		b	.L8
  84              	.L9:
  85 005c 0BF1280C 		add	ip, fp, #40
  86 0060 0798     		ldr	r0, [sp, #28]
  87 0062 0CEB0501 		add	r1, ip, r5
  88 0066 1823     		movs	r3, #24
  89 0068 09EB0002 		add	r2, r9, r0
  90 006c 0091     		str	r1, [sp, #0]
  91 006e 03FB0861 		mla	r1, r3, r8, r6
  92 0072 08F5906E 		add	lr, r8, #1152
  93 0076 01F54670 		add	r0, r1, #792
  94 007a 0192     		str	r2, [sp, #4]
  95 007c 4FF41062 		mov	r2, #2304
  96 0080 0290     		str	r0, [sp, #8]
  97 0082 3146     		mov	r1, r6
  98 0084 02FB0840 		mla	r0, r2, r8, r4
  99 0088 5346     		mov	r3, sl
 100 008a 04EB8E02 		add	r2, r4, lr, lsl #2
 101 008e FFF7FEFF 		bl	xmp3fixpt_DequantChannel
 102 0092 04EB880C 		add	ip, r4, r8, lsl #2
 103 0096 0799     		ldr	r1, [sp, #28]
 104 0098 0CF59053 		add	r3, ip, #4608
 105 009c 3E31     		adds	r1, r1, #62
 106 009e 9860     		str	r0, [r3, #8]
 107 00a0 08F10108 		add	r8, r8, #1
 108 00a4 4835     		adds	r5, r5, #72
 109 00a6 0791     		str	r1, [sp, #28]
 110              	.L8:
 111 00a8 D7F8BC37 		ldr	r3, [r7, #1980]
 112 00ac 9845     		cmp	r8, r3
 113 00ae D5DB     		blt	.L9
 114 00b0 5546     		mov	r5, sl
 115 00b2 DDF824A0 		ldr	sl, [sp, #36]
 116 00b6 296A     		ldr	r1, [r5, #32]
 117 00b8 0029     		cmp	r1, #0
 118 00ba 39D0     		beq	.L10
 119 00bc 04F59053 		add	r3, r4, #4608
 120 00c0 9A68     		ldr	r2, [r3, #8]
 121 00c2 002A     		cmp	r2, #0
 122 00c4 02DD     		ble	.L11
 123 00c6 D868     		ldr	r0, [r3, #12]
 124 00c8 0028     		cmp	r0, #0
 125 00ca 31DC     		bgt	.L10
 126              	.L11:
 127 00cc D3F80080 		ldr	r8, [r3, #0]
 128 00d0 2246     		mov	r2, r4
 129 00d2 2346     		mov	r3, r4
 130 00d4 0020     		movs	r0, #0
 131 00d6 AC46     		mov	ip, r5
 132 00d8 0FE0     		b	.L12
 133              	.L15:
 134 00da 52F8047B 		ldr	r7, [r2], #4
 135 00de 4B4D     		ldr	r5, .L33
 136 00e0 AF42     		cmp	r7, r5
 137 00e2 B8BF     		it	lt
 138 00e4 42F8045C 		strlt	r5, [r2, #-4]
 139 00e8 52F8047C 		ldr	r7, [r2, #-4]
 140 00ec 6FF04045 		mvn	r5, #-1073741824
 141 00f0 AF42     		cmp	r7, r5
 142 00f2 C8BF     		it	gt
 143 00f4 42F8045C 		strgt	r5, [r2, #-4]
 144 00f8 0130     		adds	r0, r0, #1
 145              	.L12:
 146 00fa 4045     		cmp	r0, r8
 147 00fc EDDB     		blt	.L15
 148 00fe 04F59052 		add	r2, r4, #4608
 149 0102 6546     		mov	r5, ip
 150 0104 5768     		ldr	r7, [r2, #4]
 151 0106 0022     		movs	r2, #0
 152 0108 10E0     		b	.L16
 153              	.L19:
 154 010a D3F800C9 		ldr	ip, [r3, #2304]
 155 010e 3F48     		ldr	r0, .L33
 156 0110 8445     		cmp	ip, r0
 157 0112 B8BF     		it	lt
 158 0114 C3F80009 		strlt	r0, [r3, #2304]
 159 0118 D3F800C9 		ldr	ip, [r3, #2304]
 160 011c 6FF04040 		mvn	r0, #-1073741824
 161 0120 8445     		cmp	ip, r0
 162 0122 C8BF     		it	gt
 163 0124 C3F80009 		strgt	r0, [r3, #2304]
 164 0128 0132     		adds	r2, r2, #1
 165 012a 0433     		adds	r3, r3, #4
 166              	.L16:
 167 012c BA42     		cmp	r2, r7
 168 012e ECDB     		blt	.L19
 169              	.L10:
 170 0130 4B08     		lsrs	r3, r1, #1
 171 0132 1FD0     		beq	.L20
 172 0134 CA07     		lsls	r2, r1, #31
 173 0136 12D5     		bpl	.L21
 174 0138 D6F83013 		ldr	r1, [r6, #816]
 175 013c 6B6B     		ldr	r3, [r5, #52]
 176 013e 29B9     		cbnz	r1, .L22
 177 0140 D6F84403 		ldr	r0, [r6, #836]
 178 0144 421C     		adds	r2, r0, #1
 179 0146 33F91210 		ldrsh	r1, [r3, r2, lsl #1]
 180 014a 0FE0     		b	.L23
 181              	.L22:
 182 014c D6F84013 		ldr	r1, [r6, #832]
 183 0150 03EB4103 		add	r3, r3, r1, lsl #1
 184 0154 B3F930E0 		ldrsh	lr, [r3, #48]
 185 0158 0EEB4E01 		add	r1, lr, lr, lsl #1
 186 015c 06E0     		b	.L23
 187              	.L21:
 188 015e 04F5905C 		add	ip, r4, #4608
 189 0162 9CE80A00 		ldmia	ip, {r1, r3}
 190 0166 9942     		cmp	r1, r3
 191 0168 B8BF     		it	lt
 192 016a 1946     		movlt	r1, r3
 193              	.L23:
 194 016c 2046     		mov	r0, r4
 195 016e 0AAA     		add	r2, sp, #40
 196 0170 FFF7FEFF 		bl	xmp3fixpt_MidSideProc
 197              	.L20:
 198 0174 2A6A     		ldr	r2, [r5, #32]
 199 0176 D307     		lsls	r3, r2, #31
 200 0178 2CD5     		bpl	.L24
 201 017a 04F59057 		add	r7, r4, #4608
 202 017e 2878     		ldrb	r0, [r5, #0]	@ zero_extendqisi2
 203 0180 3968     		ldr	r1, [r7, #0]
 204 0182 089F     		ldr	r7, [sp, #32]
 205 0184 06F54676 		add	r6, r6, #792
 206 0188 07F13E03 		add	r3, r7, #62
 207 018c 0096     		str	r6, [sp, #0]
 208 018e 78B9     		cbnz	r0, .L25
 209 0190 5210     		asrs	r2, r2, #1
 210 0192 9020     		movs	r0, #144
 211 0194 0192     		str	r2, [sp, #4]
 212 0196 00FB0AB2 		mla	r2, r0, sl, fp
 213 019a 4B44     		add	r3, r9, r3
 214 019c D2F88800 		ldr	r0, [r2, #136]
 215 01a0 0AAA     		add	r2, sp, #40
 216 01a2 0290     		str	r0, [sp, #8]
 217 01a4 0392     		str	r2, [sp, #12]
 218 01a6 2046     		mov	r0, r4
 219 01a8 2A46     		mov	r2, r5
 220 01aa FFF7FEFF 		bl	xmp3fixpt_IntensityProcMPEG1
 221 01ae 11E0     		b	.L24
 222              	.L25:
 223 01b0 09F1F800 		add	r0, r9, #248
 224 01b4 0190     		str	r0, [sp, #4]
 225 01b6 5010     		asrs	r0, r2, #1
 226 01b8 9022     		movs	r2, #144
 227 01ba 0290     		str	r0, [sp, #8]
 228 01bc 02FB0AB0 		mla	r0, r2, sl, fp
 229 01c0 4B44     		add	r3, r9, r3
 230 01c2 D0F88820 		ldr	r2, [r0, #136]
 231 01c6 0AA8     		add	r0, sp, #40
 232 01c8 0392     		str	r2, [sp, #12]
 233 01ca 0490     		str	r0, [sp, #16]
 234 01cc 2A46     		mov	r2, r5
 235 01ce 2046     		mov	r0, r4
 236 01d0 FFF7FEFF 		bl	xmp3fixpt_IntensityProcMPEG2
 237              	.L24:
 238 01d4 286A     		ldr	r0, [r5, #32]
 239 01d6 B0B1     		cbz	r0, .L7
 240 01d8 0A98     		ldr	r0, [sp, #40]
 241 01da FFF7FEFF 		bl	CLZ
 242 01de 04F59054 		add	r4, r4, #4608
 243 01e2 411E     		subs	r1, r0, #1
 244 01e4 A160     		str	r1, [r4, #8]
 245 01e6 0B98     		ldr	r0, [sp, #44]
 246 01e8 FFF7FEFF 		bl	CLZ
 247 01ec 431E     		subs	r3, r0, #1
 248 01ee E360     		str	r3, [r4, #12]
 249 01f0 94E80C00 		ldmia	r4, {r2, r3}
 250 01f4 9A42     		cmp	r2, r3
 251 01f6 A8BF     		it	ge
 252 01f8 1346     		movge	r3, r2
 253 01fa 2360     		str	r3, [r4, #0]
 254 01fc 6360     		str	r3, [r4, #4]
 255 01fe 0020     		movs	r0, #0
 256 0200 01E0     		b	.L7
 257              	.L31:
 258 0202 4FF0FF30 		mov	r0, #-1
 259              	.L7:
 260 0206 0DB0     		add	sp, sp, #52
 261 0208 BDE8F08F 		pop	{r4, r5, r6, r7, r8, r9, sl, fp, pc}
 262              	.L34:
 263              		.align	2
 264              	.L33:
 265 020c 010000C0 		.word	-1073741823
 267              		.ident	"GCC: (Sourcery CodeBench Lite 2012.03-56) 4.6.3"
DEFINED SYMBOLS
                            *ABS*:00000000 dequant.c
     /tmp/cc7X5bbB.s:17     .text.CLZ:00000000 $t
     /tmp/cc7X5bbB.s:21     .text.CLZ:00000000 CLZ
     /tmp/cc7X5bbB.s:42     .text.xmp3fixpt_Dequantize:00000000 $t
     /tmp/cc7X5bbB.s:47     .text.xmp3fixpt_Dequantize:00000000 xmp3fixpt_Dequantize
     /tmp/cc7X5bbB.s:265    .text.xmp3fixpt_Dequantize:0000020c $d

UNDEFINED SYMBOLS
xmp3fixpt_DequantChannel
xmp3fixpt_MidSideProc
xmp3fixpt_IntensityProcMPEG1
xmp3fixpt_IntensityProcMPEG2
