   1              		.syntax unified
   2              		.cpu cortex-m4
   3              		.eabi_attribute 27, 3
   4              		.fpu fpv4-sp-d16
   5              		.eabi_attribute 20, 1
   6              		.eabi_attribute 21, 1
   7              		.eabi_attribute 23, 3
   8              		.eabi_attribute 24, 1
   9              		.eabi_attribute 25, 1
  10              		.eabi_attribute 26, 1
  11              		.eabi_attribute 30, 4
  12              		.eabi_attribute 34, 1
  13              		.eabi_attribute 18, 4
  14              		.thumb
  15              		.file	"dqchan.c"
  16              		.section	.text.MULSHIFT32,"ax",%progbits
  17              		.align	1
  18              		.thumb
  19              		.thumb_func
  21              	MULSHIFT32:
  22              		@ args = 0, pretend = 0, frame = 0
  23              		@ frame_needed = 0, uses_anonymous_args = 0
  24              		@ link register save eliminated.
  25 0000 0B46     		mov	r3, r1
  26              	@ 285 "../src/mp3dec/real/assembly.h" 1
  27 0002 80FB0323 		smull r2,r3,r0,r3
  28              	@ 0 "" 2
  29              		.thumb
  30 0006 1846     		mov	r0, r3
  31 0008 7047     		bx	lr
  33              		.section	.text.CLZ,"ax",%progbits
  34              		.align	1
  35              		.thumb
  36              		.thumb_func
  38              	CLZ:
  39              		@ args = 0, pretend = 0, frame = 0
  40              		@ frame_needed = 0, uses_anonymous_args = 0
  41              		@ link register save eliminated.
  42 0000 30B1     		cbz	r0, .L6
  43 0002 0023     		movs	r3, #0
  44 0004 01E0     		b	.L4
  45              	.L5:
  46 0006 0133     		adds	r3, r3, #1
  47 0008 4000     		lsls	r0, r0, #1
  48              	.L4:
  49 000a 0028     		cmp	r0, #0
  50 000c FBDA     		bge	.L5
  51 000e 00E0     		b	.L3
  52              	.L6:
  53 0010 2023     		movs	r3, #32
  54              	.L3:
  55 0012 1846     		mov	r0, r3
  56 0014 7047     		bx	lr
  58              		.section	.text.DequantBlock,"ax",%progbits
  59              		.align	1
  60              		.thumb
  61              		.thumb_func
  63              	DequantBlock:
  64              		@ args = 0, pretend = 0, frame = 32
  65              		@ frame_needed = 0, uses_anonymous_args = 0
  66 0000 2DE9F04F 		push	{r4, r5, r6, r7, r8, r9, sl, fp, lr}
  67 0004 89B0     		sub	sp, sp, #36
  68 0006 9D10     		asrs	r5, r3, #2
  69 0008 0391     		str	r1, [sp, #12]
  70 000a 0192     		str	r2, [sp, #4]
  71 000c 554F     		ldr	r7, .L28
  72 000e 5649     		ldr	r1, .L28+4
  73 0010 0290     		str	r0, [sp, #8]
  74 0012 03F00302 		and	r2, r3, #3
  75 0016 1F2D     		cmp	r5, #31
  76 0018 A8BF     		it	ge
  77 001a 1F25     		movge	r5, #31
  78 001c 9001     		lsls	r0, r2, #6
  79 001e 1B2D     		cmp	r5, #27
  80 0020 0744     		add	r7, r7, r0
  81 0022 51F822A0 		ldr	sl, [r1, r2, lsl #2]
  82 0026 01DC     		bgt	.L22
  83 0028 EB1C     		adds	r3, r5, #3
  84 002a 00E0     		b	.L8
  85              	.L22:
  86 002c 1F23     		movs	r3, #31
  87              	.L8:
  88 002e 7968     		ldr	r1, [r7, #4]
  89 0030 23EAE370 		bic	r0, r3, r3, asr #31
  90 0034 41FA00F3 		asr	r3, r1, r0
  91 0038 B968     		ldr	r1, [r7, #8]
  92 003a 0593     		str	r3, [sp, #20]
  93 003c 41FA00F3 		asr	r3, r1, r0
  94 0040 F968     		ldr	r1, [r7, #12]
  95 0042 0693     		str	r3, [sp, #24]
  96 0044 0022     		movs	r2, #0
  97 0046 41FA00F3 		asr	r3, r1, r0
  98 004a 0492     		str	r2, [sp, #16]
  99 004c 0793     		str	r3, [sp, #28]
 100 004e 9146     		mov	r9, r2
 101              	.L21:
 102 0050 029A     		ldr	r2, [sp, #8]
 103 0052 52F804BB 		ldr	fp, [r2], #4
 104 0056 2BF00043 		bic	r3, fp, #-2147483648
 105 005a 032B     		cmp	r3, #3
 106 005c 0292     		str	r2, [sp, #8]
 107 005e 06DC     		bgt	.L9
 108 0060 0DF1200C 		add	ip, sp, #32
 109 0064 0CEB8300 		add	r0, ip, r3, lsl #2
 110 0068 50F8100C 		ldr	r0, [r0, #-16]
 111 006c 67E0     		b	.L10
 112              	.L9:
 113 006e 0F2B     		cmp	r3, #15
 114 0070 08DC     		bgt	.L11
 115 0072 002D     		cmp	r5, #0
 116 0074 57F82300 		ldr	r0, [r7, r3, lsl #2]
 117 0078 01DA     		bge	.L12
 118 007a 6B42     		negs	r3, r5
 119 007c 58E0     		b	.L27
 120              	.L12:
 121 007e 40FA05F0 		asr	r0, r0, r5
 122 0082 5CE0     		b	.L10
 123              	.L11:
 124 0084 3F2B     		cmp	r3, #63
 125 0086 08DC     		bgt	.L13
 126 0088 103B     		subs	r3, r3, #16
 127 008a 3849     		ldr	r1, .L28+8
 128 008c 51F82300 		ldr	r0, [r1, r3, lsl #2]
 129 0090 5146     		mov	r1, sl
 130 0092 FFF7FEFF 		bl	MULSHIFT32
 131 0096 EB1E     		subs	r3, r5, #3
 132 0098 41E0     		b	.L14
 133              	.L13:
 134 009a 5C04     		lsls	r4, r3, #17
 135 009c B4F1006F 		cmp	r4, #134217728
 136 00a0 02DA     		bge	.L23
 137 00a2 5C05     		lsls	r4, r3, #21
 138 00a4 0426     		movs	r6, #4
 139 00a6 00E0     		b	.L15
 140              	.L23:
 141 00a8 0026     		movs	r6, #0
 142              	.L15:
 143 00aa B4F1005F 		cmp	r4, #536870912
 144 00ae 01DA     		bge	.L16
 145 00b0 A400     		lsls	r4, r4, #2
 146 00b2 0236     		adds	r6, r6, #2
 147              	.L16:
 148 00b4 B4F1804F 		cmp	r4, #1073741824
 149 00b8 01DA     		bge	.L17
 150 00ba 6400     		lsls	r4, r4, #1
 151 00bc 0136     		adds	r6, r6, #1
 152              	.L17:
 153 00be 2C4B     		ldr	r3, .L28+12
 154 00c0 2C49     		ldr	r1, .L28+16
 155 00c2 2D48     		ldr	r0, .L28+20
 156 00c4 2D4A     		ldr	r2, .L28+24
 157 00c6 9C42     		cmp	r4, r3
 158 00c8 D4BF     		ite	le
 159 00ca 8046     		movle	r8, r0
 160 00cc 8846     		movgt	r8, r1
 161 00ce 2C48     		ldr	r0, .L28+28
 162 00d0 2146     		mov	r1, r4
 163 00d2 C8BF     		it	gt
 164 00d4 1046     		movgt	r0, r2
 165 00d6 FFF7FEFF 		bl	MULSHIFT32
 166 00da D8F80430 		ldr	r3, [r8, #4]
 167 00de 2146     		mov	r1, r4
 168 00e0 C018     		adds	r0, r0, r3
 169 00e2 FFF7FEFF 		bl	MULSHIFT32
 170 00e6 D8F80810 		ldr	r1, [r8, #8]
 171 00ea 4018     		adds	r0, r0, r1
 172 00ec 2146     		mov	r1, r4
 173 00ee FFF7FEFF 		bl	MULSHIFT32
 174 00f2 D8F80C20 		ldr	r2, [r8, #12]
 175 00f6 2146     		mov	r1, r4
 176 00f8 8018     		adds	r0, r0, r2
 177 00fa FFF7FEFF 		bl	MULSHIFT32
 178 00fe D8F81030 		ldr	r3, [r8, #16]
 179 0102 2049     		ldr	r1, .L28+32
 180 0104 C018     		adds	r0, r0, r3
 181 0106 51F82610 		ldr	r1, [r1, r6, lsl #2]
 182 010a FFF7FEFF 		bl	MULSHIFT32
 183 010e 5146     		mov	r1, sl
 184 0110 C000     		lsls	r0, r0, #3
 185 0112 FFF7FEFF 		bl	MULSHIFT32
 186 0116 1C4A     		ldr	r2, .L28+36
 187 0118 52F82630 		ldr	r3, [r2, r6, lsl #2]
 188 011c EB1A     		subs	r3, r5, r3
 189              	.L14:
 190 011e 002B     		cmp	r3, #0
 191 0120 09DA     		bge	.L19
 192 0122 5B42     		negs	r3, r3
 193 0124 6FF00042 		mvn	r2, #-2147483648
 194 0128 42FA03FE 		asr	lr, r2, r3
 195 012c 7045     		cmp	r0, lr
 196 012e 05DC     		bgt	.L25
 197              	.L27:
 198 0130 00FA03F0 		lsl	r0, r0, r3
 199 0134 03E0     		b	.L10
 200              	.L19:
 201 0136 40FA03F0 		asr	r0, r0, r3
 202 013a 00E0     		b	.L10
 203              	.L25:
 204 013c 1046     		mov	r0, r2
 205              	.L10:
 206 013e BBF1000F 		cmp	fp, #0
 207 0142 0399     		ldr	r1, [sp, #12]
 208 0144 49EA0009 		orr	r9, r9, r0
 209 0148 B8BF     		it	lt
 210 014a 4042     		neglt	r0, r0
 211 014c 41F8040B 		str	r0, [r1], #4
 212 0150 0198     		ldr	r0, [sp, #4]
 213 0152 0391     		str	r1, [sp, #12]
 214 0154 421E     		subs	r2, r0, #1
 215 0156 0192     		str	r2, [sp, #4]
 216 0158 7FF47AAF 		bne	.L21
 217 015c 4846     		mov	r0, r9
 218 015e 09B0     		add	sp, sp, #36
 219 0160 BDE8F08F 		pop	{r4, r5, r6, r7, r8, r9, sl, fp, pc}
 220              	.L29:
 221              		.align	2
 222              	.L28:
 223 0164 00000000 		.word	.LANCHOR2
 224 0168 00000000 		.word	.LANCHOR3
 225 016c 00000000 		.word	.LANCHOR4
 226 0170 9979825A 		.word	1518500249
 227 0174 00000000 		.word	.LANCHOR1
 228 0178 00000000 		.word	.LANCHOR0
 229 017c 63218510 		.word	277160291
 230 0180 A9BDA029 		.word	698400169
 231 0184 00000000 		.word	.LANCHOR5
 232 0188 00000000 		.word	.LANCHOR6
 234              		.section	.text.xmp3fixpt_DequantChannel,"ax",%progbits
 235              		.align	1
 236              		.global	xmp3fixpt_DequantChannel
 237              		.thumb
 238              		.thumb_func
 240              	xmp3fixpt_DequantChannel:
 241              		@ args = 12, pretend = 0, frame = 64
 242              		@ frame_needed = 0, uses_anonymous_args = 0
 243 0000 2DE9F04F 		push	{r4, r5, r6, r7, r8, r9, sl, fp, lr}
 244 0004 91B0     		sub	sp, sp, #68
 245 0006 9946     		mov	r9, r3
 246 0008 1A9F     		ldr	r7, [sp, #104]
 247 000a 0790     		str	r0, [sp, #28]
 248 000c 7B69     		ldr	r3, [r7, #20]
 249 000e 0892     		str	r2, [sp, #32]
 250 0010 022B     		cmp	r3, #2
 251 0012 8C46     		mov	ip, r1
 252 0014 1C9C     		ldr	r4, [sp, #112]
 253 0016 0AD1     		bne	.L47
 254 0018 BE69     		ldr	r6, [r7, #24]
 255 001a 66B1     		cbz	r6, .L48
 256 001c 99F80010 		ldrb	r1, [r9, #0]	@ zero_extendqisi2
 257 0020 0029     		cmp	r1, #0
 258 0022 14BF     		ite	ne
 259 0024 0620     		movne	r0, #6
 260 0026 0820     		moveq	r0, #8
 261 0028 0326     		movs	r6, #3
 262 002a 0290     		str	r0, [sp, #8]
 263 002c 04E0     		b	.L31
 264              	.L47:
 265 002e 1622     		movs	r2, #22
 266 0030 0D26     		movs	r6, #13
 267 0032 0292     		str	r2, [sp, #8]
 268 0034 00E0     		b	.L31
 269              	.L48:
 270 0036 0296     		str	r6, [sp, #8]
 271              	.L31:
 272 0038 396C     		ldr	r1, [r7, #64]
 273 003a D9F82050 		ldr	r5, [r9, #32]
 274 003e 0022     		movs	r2, #0
 275 0040 481C     		adds	r0, r1, #1
 276 0042 4300     		lsls	r3, r0, #1
 277 0044 0D92     		str	r2, [sp, #52]
 278 0046 BA68     		ldr	r2, [r7, #8]
 279 0048 0993     		str	r3, [sp, #36]
 280 004a 6B08     		lsrs	r3, r5, #1
 281 004c 0692     		str	r2, [sp, #24]
 282 004e 01D0     		beq	.L32
 283 0050 951E     		subs	r5, r2, #2
 284 0052 0695     		str	r5, [sp, #24]
 285              	.L32:
 286 0054 1B9B     		ldr	r3, [sp, #108]
 287 0056 CDF814C0 		str	ip, [sp, #20]
 288 005a 4FF00008 		mov	r8, #0
 289 005e A446     		mov	ip, r4
 290 0060 0493     		str	r3, [sp, #16]
 291 0062 4C46     		mov	r4, r9
 292 0064 C246     		mov	sl, r8
 293 0066 4546     		mov	r5, r8
 294 0068 B346     		mov	fp, r6
 295 006a E146     		mov	r9, ip
 296 006c 30E0     		b	.L33
 297              	.L37:
 298 006e 636B     		ldr	r3, [r4, #52]
 299 0070 0699     		ldr	r1, [sp, #24]
 300 0072 33F91AE0 		ldrsh	lr, [r3, sl, lsl #1]
 301 0076 0AF10106 		add	r6, sl, #1
 302 007a 33F91600 		ldrsh	r0, [r3, r6, lsl #1]
 303 007e FB6B     		ldr	r3, [r7, #60]
 304 0080 CEEB0002 		rsb	r2, lr, r0
 305 0084 0498     		ldr	r0, [sp, #16]
 306 0086 0392     		str	r2, [sp, #12]
 307 0088 10F8012B 		ldrb	r2, [r0], #1	@ zero_extendqisi2
 308 008c C1F1D00E 		rsb	lr, r1, #208
 309 0090 0490     		str	r0, [sp, #16]
 310 0092 1BB1     		cbz	r3, .L34
 311 0094 6D48     		ldr	r0, .L55
 312 0096 8119     		adds	r1, r0, r6
 313 0098 11F8013C 		ldrb	r3, [r1, #-1]	@ zero_extendqisi2
 314              	.L34:
 315 009c DDF81CC0 		ldr	ip, [sp, #28]
 316 00a0 0CEB8500 		add	r0, ip, r5, lsl #2
 317 00a4 DDF824C0 		ldr	ip, [sp, #36]
 318 00a8 D318     		adds	r3, r2, r3
 319 00aa 03FB0CE3 		mla	r3, r3, ip, lr
 320 00ae 0146     		mov	r1, r0
 321 00b0 039A     		ldr	r2, [sp, #12]
 322 00b2 FFF7FEFF 		bl	DequantBlock
 323 00b6 DDF80CC0 		ldr	ip, [sp, #12]
 324 00ba 6544     		add	r5, r5, ip
 325 00bc 08B1     		cbz	r0, .L35
 326 00be CDF834A0 		str	sl, [sp, #52]
 327              	.L35:
 328 00c2 0899     		ldr	r1, [sp, #32]
 329 00c4 0A68     		ldr	r2, [r1, #0]
 330 00c6 9542     		cmp	r5, r2
 331 00c8 48EA0008 		orr	r8, r8, r0
 332 00cc 04DA     		bge	.L36
 333 00ce B246     		mov	sl, r6
 334              	.L33:
 335 00d0 DDF808E0 		ldr	lr, [sp, #8]
 336 00d4 F245     		cmp	sl, lr
 337 00d6 CADB     		blt	.L37
 338              	.L36:
 339 00d8 4A46     		mov	r2, r9
 340 00da 0D9B     		ldr	r3, [sp, #52]
 341 00dc DDF814C0 		ldr	ip, [sp, #20]
 342 00e0 5361     		str	r3, [r2, #20]
 343 00e2 0020     		movs	r0, #0
 344 00e4 BBF10B0F 		cmp	fp, #11
 345 00e8 A146     		mov	r9, r4
 346 00ea 1060     		str	r0, [r2, #0]
 347 00ec 1446     		mov	r4, r2
 348 00ee D060     		str	r0, [r2, #12]
 349 00f0 9060     		str	r0, [r2, #8]
 350 00f2 5060     		str	r0, [r2, #4]
 351 00f4 1061     		str	r0, [r2, #16]
 352 00f6 00F3A180 		bgt	.L54
 353              	.L38:
 354 00fa 1B99     		ldr	r1, [sp, #108]
 355 00fc CDF834B0 		str	fp, [sp, #52]
 356 0100 0BEB4B00 		add	r0, fp, fp, lsl #1
 357 0104 0E18     		adds	r6, r1, r0
 358 0106 0296     		str	r6, [sp, #8]
 359 0108 CDF838B0 		str	fp, [sp, #56]
 360 010c CDF83CB0 		str	fp, [sp, #60]
 361 0110 6646     		mov	r6, ip
 362 0112 0597     		str	r7, [sp, #20]
 363 0114 0A92     		str	r2, [sp, #40]
 364 0116 01E0     		b	.L45
 365              	.L51:
 366 0118 DDF80CB0 		ldr	fp, [sp, #12]
 367              	.L45:
 368 011c D9F83400 		ldr	r0, [r9, #52]
 369 0120 DDF814A0 		ldr	sl, [sp, #20]
 370 0124 CDF82C90 		str	r9, [sp, #44]
 371 0128 00EB4B01 		add	r1, r0, fp, lsl #1
 372 012c 00EB4B03 		add	r3, r0, fp, lsl #1
 373 0130 B1F93020 		ldrsh	r2, [r1, #48]
 374 0134 B3F92E40 		ldrsh	r4, [r3, #46]
 375 0138 0BF1010C 		add	ip, fp, #1
 376 013c 171B     		subs	r7, r2, r4
 377 013e 4FEA870E 		lsl	lr, r7, #2
 378 0142 CDF80CC0 		str	ip, [sp, #12]
 379 0146 D446     		mov	ip, sl
 380 0148 CDF810E0 		str	lr, [sp, #16]
 381 014c BA46     		mov	sl, r7
 382 014e 0024     		movs	r4, #0
 383 0150 B146     		mov	r9, r6
 384 0152 6746     		mov	r7, ip
 385              	.L41:
 386 0154 DDF808E0 		ldr	lr, [sp, #8]
 387 0158 B96A     		ldr	r1, [r7, #40]
 388 015a DDF81CC0 		ldr	ip, [sp, #28]
 389 015e 069B     		ldr	r3, [sp, #24]
 390 0160 0EEB0402 		add	r2, lr, r4
 391 0164 C9EB0C00 		rsb	r0, r9, ip
 392 0168 D27D     		ldrb	r2, [r2, #23]	@ zero_extendqisi2
 393 016a 0195     		str	r5, [sp, #4]
 394 016c 4FEAC10C 		lsl	ip, r1, #3
 395 0170 0999     		ldr	r1, [sp, #36]
 396 0172 00EB8500 		add	r0, r0, r5, lsl #2
 397 0176 02FB01CE 		mla	lr, r2, r1, ip
 398 017a C3F1D003 		rsb	r3, r3, #208
 399 017e 8019     		adds	r0, r0, r6
 400 0180 3146     		mov	r1, r6
 401 0182 5246     		mov	r2, sl
 402 0184 7344     		add	r3, r3, lr
 403 0186 FFF7FEFF 		bl	DequantBlock
 404 018a DDF804C0 		ldr	ip, [sp, #4]
 405 018e 10B1     		cbz	r0, .L40
 406 0190 0DA9     		add	r1, sp, #52
 407 0192 41F824B0 		str	fp, [r1, r4, lsl #2]
 408              	.L40:
 409 0196 0134     		adds	r4, r4, #1
 410 0198 049A     		ldr	r2, [sp, #16]
 411 019a 0437     		adds	r7, r7, #4
 412 019c 032C     		cmp	r4, #3
 413 019e 48EA0008 		orr	r8, r8, r0
 414 01a2 1644     		add	r6, r6, r2
 415 01a4 D6D1     		bne	.L41
 416 01a6 4FEA4A00 		lsl	r0, sl, #1
 417 01aa 079C     		ldr	r4, [sp, #28]
 418 01ac 00EB0A0E 		add	lr, r0, sl
 419 01b0 0023     		movs	r3, #0
 420 01b2 4E46     		mov	r6, r9
 421 01b4 5746     		mov	r7, sl
 422 01b6 DDF82C90 		ldr	r9, [sp, #44]
 423 01ba 7544     		add	r5, r5, lr
 424 01bc 04EB8C02 		add	r2, r4, ip, lsl #2
 425 01c0 1946     		mov	r1, r3
 426 01c2 12E0     		b	.L42
 427              	.L43:
 428 01c4 DDF810C0 		ldr	ip, [sp, #16]
 429 01c8 F458     		ldr	r4, [r6, r3]
 430 01ca 06EB0C0E 		add	lr, r6, ip
 431 01ce 42F80C4C 		str	r4, [r2, #-12]
 432 01d2 5EF80340 		ldr	r4, [lr, r3]
 433 01d6 06EB800C 		add	ip, r6, r0, lsl #2
 434 01da 42F8084C 		str	r4, [r2, #-8]
 435 01de 5CF80340 		ldr	r4, [ip, r3]
 436 01e2 0131     		adds	r1, r1, #1
 437 01e4 42F8044C 		str	r4, [r2, #-4]
 438 01e8 0433     		adds	r3, r3, #4
 439              	.L42:
 440 01ea 0C32     		adds	r2, r2, #12
 441 01ec B942     		cmp	r1, r7
 442 01ee E9DB     		blt	.L43
 443 01f0 089B     		ldr	r3, [sp, #32]
 444 01f2 1F68     		ldr	r7, [r3, #0]
 445 01f4 BD42     		cmp	r5, r7
 446 01f6 0ADA     		bge	.L44
 447 01f8 DDF808E0 		ldr	lr, [sp, #8]
 448 01fc 0EF1030C 		add	ip, lr, #3
 449 0200 DDF80CE0 		ldr	lr, [sp, #12]
 450 0204 CDF808C0 		str	ip, [sp, #8]
 451 0208 BEF10D0F 		cmp	lr, #13
 452 020c 84D1     		bne	.L51
 453              	.L44:
 454 020e 089A     		ldr	r2, [sp, #32]
 455 0210 059F     		ldr	r7, [sp, #20]
 456 0212 1560     		str	r5, [r2, #0]
 457 0214 B869     		ldr	r0, [r7, #24]
 458 0216 0A9C     		ldr	r4, [sp, #40]
 459 0218 0E99     		ldr	r1, [sp, #56]
 460 021a 0F9A     		ldr	r2, [sp, #60]
 461 021c A160     		str	r1, [r4, #8]
 462 021e 0028     		cmp	r0, #0
 463 0220 0CBF     		ite	eq
 464 0222 0123     		moveq	r3, #1
 465 0224 0223     		movne	r3, #2
 466 0226 0D98     		ldr	r0, [sp, #52]
 467 0228 2360     		str	r3, [r4, #0]
 468 022a 6060     		str	r0, [r4, #4]
 469 022c 8142     		cmp	r1, r0
 470 022e A8BF     		it	ge
 471 0230 0846     		movge	r0, r1
 472 0232 E260     		str	r2, [r4, #12]
 473 0234 9042     		cmp	r0, r2
 474 0236 ACBF     		ite	ge
 475 0238 2061     		strge	r0, [r4, #16]
 476 023a 2261     		strlt	r2, [r4, #16]
 477              	.L54:
 478 023c 4046     		mov	r0, r8
 479 023e FFF7FEFF 		bl	CLZ
 480 0242 0138     		subs	r0, r0, #1
 481 0244 11B0     		add	sp, sp, #68
 482 0246 BDE8F08F 		pop	{r4, r5, r6, r7, r8, r9, sl, fp, pc}
 483              	.L56:
 484 024a 00BF     		.align	2
 485              	.L55:
 486 024c 00000000 		.word	.LANCHOR7
 488              		.section	.rodata.poly43hi,"a",%progbits
 489              		.align	2
 490              		.set	.LANCHOR1,. + 0
 493              	poly43hi:
 494 0000 63218510 		.word	277160291
 495 0004 A4F633D3 		.word	-751569244
 496 0008 8B40E946 		.word	1189691531
 497 000c F0CEC227 		.word	667078384
 498 0010 B477F5FE 		.word	-17467468
 499              		.section	.rodata.pow2frac,"a",%progbits
 500              		.align	2
 501              		.set	.LANCHOR5,. + 0
 504              	pow2frac:
 505 0000 94FA9765 		.word	1704458900
 506 0004 E68BA250 		.word	1352829926
 507 0008 FFFFFF7F 		.word	2147483647
 508 000c 94FA9765 		.word	1704458900
 509 0010 E68BA250 		.word	1352829926
 510 0014 FFFFFF7F 		.word	2147483647
 511 0018 94FA9765 		.word	1704458900
 512 001c E68BA250 		.word	1352829926
 513              		.section	.rodata.pow43_14,"a",%progbits
 514              		.align	2
 515              		.set	.LANCHOR2,. + 0
 518              	pow43_14:
 519 0000 00000000 		.word	0
 520 0004 00000010 		.word	268435456
 521 0008 F3455128 		.word	676414963
 522 000c DB5C3A45 		.word	1161452763
 523 0010 53FFB20C 		.word	213057363
 524 0014 D6891911 		.word	286886358
 525 0018 C831CE15 		.word	365834696
 526 001c 03F2C71A 		.word	449311235
 527 0020 00000020 		.word	536870912
 528 0024 B9067125 		.word	628164281
 529 0028 A3B4162B 		.word	722908323
 530 002c B474ED30 		.word	820868276
 531 0030 A53FF236 		.word	921845669
 532 0034 D37B223D 		.word	1025670099
 533 0038 56E67B43 		.word	1132193366
 534 003c 3C82FC49 		.word	1241285180
 535 0040 00000000 		.word	0
 536 0044 CD4F740D 		.word	225726413
 537 0048 261FE721 		.word	568794918
 538 004c D9AB363A 		.word	976661465
 539 0050 84C0AD0A 		.word	179159172
 540 0054 6E0E610E 		.word	241241710
 541 0058 1D0C5612 		.word	307629085
 542 005c CF238516 		.word	377824207
 543 0060 999FE81A 		.word	451452825
 544 0064 A4037C1F 		.word	528221092
 545 0068 49AE3B24 		.word	607891017
 546 006c 679C2429 		.word	690265191
 547 0070 0F42342E 		.word	775176719
 548 0074 856F6833 		.word	862482309
 549 0078 FF3DBF38 		.word	952057343
 550 007c 8201373E 		.word	1043792258
 551 0080 00000000 		.word	0
 552 0084 334F500B 		.word	189812531
 553 0088 073E821C 		.word	478297607
 554 008c 559AF330 		.word	821271125
 555 0090 62CDFA08 		.word	150654306
 556 0094 1963170C 		.word	202859289
 557 0098 22356B0F 		.word	258684194
 558 009c ADE2EF12 		.word	317711021
 559 00a0 669EA016 		.word	379625062
 560 00a4 17A3791A 		.word	444179223
 561 00a8 01E3771E 		.word	511173377
 562 00ac B4D59822 		.word	580441524
 563 00b0 FC56DA26 		.word	651843324
 564 00b4 2A903A2B 		.word	725258282
 565 00b8 E7E7B72F 		.word	800581607
 566 00bc 50F65034 		.word	877721168
 567 00c0 00000000 		.word	0
 568 00c4 057F8309 		.word	159612677
 569 00c8 D710F917 		.word	402198743
 570 00cc A9C72929 		.word	690603945
 571 00d0 FA0D8D07 		.word	126684666
 572 00d4 61E62A0A 		.word	170583649
 573 00d8 5431F70C 		.word	217526612
 574 00dc CB91EC0F 		.word	267162059
 575 00e0 0AFE0613 		.word	319225354
 576 00e4 6C4A4316 		.word	373508716
 577 00e8 95E59E19 		.word	429843861
 578 00ec 3DAE171D 		.word	488091197
 579 00f0 6AD7AB20 		.word	548132714
 580 00f4 51D55924 		.word	609867089
 581 00f8 BB4F2028 		.word	673206203
 582 00fc 0818FE2B 		.word	738072584
 583              		.section	.rodata.pow43,"a",%progbits
 584              		.align	2
 585              		.set	.LANCHOR4,. + 0
 588              	pow43:
 589 0000 FAA22814 		.word	338207482
 590 0004 D61BDB15 		.word	366681046
 591 0008 2C309617 		.word	395718700
 592 000c 858D5919 		.word	425299333
 593 0010 BBE8241B 		.word	455403707
 594 0014 FAFCF71C 		.word	486014202
 595 0018 F28AD21E 		.word	517114610
 596 001c 2A58B420 		.word	548689962
 597 0020 6E2E9D22 		.word	580726382
 598 0024 55DB8C24 		.word	613210965
 599 0028 DA2F8326 		.word	646131674
 600 002c 00008028 		.word	679477248
 601 0030 8722832A 		.word	713237127
 602 0034 A8708C2C 		.word	747401384
 603 0038 D8C59B2E 		.word	781960664
 604 003c 99FFB030 		.word	816906137
 605 0040 4AFDCB32 		.word	852229450
 606 0044 01A0EC34 		.word	887922689
 607 0048 62CA1237 		.word	923978338
 608 004c 88603E39 		.word	960389256
 609 0050 E0476F3B 		.word	997148640
 610 0054 1767A53D 		.word	1034250007
 611 0058 FCA5E03F 		.word	1071687164
 612 005c 72ED2042 		.word	1109454194
 613 0060 58276644 		.word	1147545432
 614 0064 7C3EB046 		.word	1185955452
 615 0068 871EFF48 		.word	1224679047
 616 006c F3B3524B 		.word	1263711219
 617 0070 FDEBAA4D 		.word	1303047165
 618 0074 97B40750 		.word	1342682263
 619 0078 62FC6852 		.word	1382612066
 620 007c 9CB2CE54 		.word	1422832284
 621 0080 21C73857 		.word	1463338785
 622 0084 592AA759 		.word	1504127577
 623 0088 35CD195C 		.word	1545194805
 624 008c 29A1905E 		.word	1586536745
 625 0090 21980B61 		.word	1628149793
 626 0094 7FA48A63 		.word	1670030463
 627 0098 0FB90D66 		.word	1712175375
 628 009c 0BC99468 		.word	1754581259
 629 00a0 0CC81F6B 		.word	1797244940
 630 00a4 0DAAAE6D 		.word	1840163341
 631 00a8 60634170 		.word	1883333472
 632 00ac B0E8D772 		.word	1926752432
 633 00b0 F92E7275 		.word	1970417401
 634 00b4 852B1078 		.word	2014325637
 635 00b8 ECD3B17A 		.word	2058474476
 636 00bc 091E577D 		.word	2102861321
 637              		.section	.rodata.preTab,"a",%progbits
 638              		.set	.LANCHOR7,. + 0
 641              	preTab:
 642 0000 00       		.byte	0
 643 0001 00       		.byte	0
 644 0002 00       		.byte	0
 645 0003 00       		.byte	0
 646 0004 00       		.byte	0
 647 0005 00       		.byte	0
 648 0006 00       		.byte	0
 649 0007 00       		.byte	0
 650 0008 00       		.byte	0
 651 0009 00       		.byte	0
 652 000a 00       		.byte	0
 653 000b 01       		.byte	1
 654 000c 01       		.byte	1
 655 000d 01       		.byte	1
 656 000e 01       		.byte	1
 657 000f 02       		.byte	2
 658 0010 02       		.byte	2
 659 0011 03       		.byte	3
 660 0012 03       		.byte	3
 661 0013 03       		.byte	3
 662 0014 02       		.byte	2
 663 0015 00       		.byte	0
 664              		.section	.rodata.pow2exp,"a",%progbits
 665              		.align	2
 666              		.set	.LANCHOR6,. + 0
 669              	pow2exp:
 670 0000 0E000000 		.word	14
 671 0004 0D000000 		.word	13
 672 0008 0B000000 		.word	11
 673 000c 0A000000 		.word	10
 674 0010 09000000 		.word	9
 675 0014 07000000 		.word	7
 676 0018 06000000 		.word	6
 677 001c 05000000 		.word	5
 678              		.section	.rodata.pow14,"a",%progbits
 679              		.align	2
 680              		.set	.LANCHOR3,. + 0
 683              	pow14:
 684 0000 FFFFFF7F 		.word	2147483647
 685 0004 657EA26B 		.word	1805811301
 686 0008 9A79825A 		.word	1518500250
 687 000c 29F81B4C 		.word	1276901417
 688              		.section	.rodata.poly43lo,"a",%progbits
 689              		.align	2
 690              		.set	.LANCHOR0,. + 0
 693              	poly43lo:
 694 0000 A9BDA029 		.word	698400169
 695 0004 28482EB0 		.word	-1339144152
 696 0008 1BAA5759 		.word	1498917403
 697 000c 8D496C23 		.word	594299277
 698 0010 591858FF 		.word	-11003815
 699              		.ident	"GCC: (Sourcery CodeBench Lite 2012.03-56) 4.6.3"