   1              		.syntax unified
   2              		.cpu cortex-m4
   3              		.eabi_attribute 27, 3
   4              		.fpu fpv4-sp-d16
   5              		.eabi_attribute 20, 1
   6              		.eabi_attribute 21, 1
   7              		.eabi_attribute 23, 3
   8              		.eabi_attribute 24, 1
   9              		.eabi_attribute 25, 1
  10              		.eabi_attribute 26, 1
  11              		.eabi_attribute 30, 4
  12              		.eabi_attribute 34, 1
  13              		.eabi_attribute 18, 4
  14              		.thumb
  15              		.file	"huffman.c"
  16              		.section	.text.xmp3fixpt_DecodeHuffman,"ax",%progbits
  17              		.align	1
  18              		.global	xmp3fixpt_DecodeHuffman
  19              		.thumb
  20              		.thumb_func
  22              	xmp3fixpt_DecodeHuffman:
  23              		@ args = 8, pretend = 0, frame = 64
  24              		@ frame_needed = 0, uses_anonymous_args = 0
  25 0000 2DE9F04F 		push	{r4, r5, r6, r7, r8, r9, sl, fp, lr}
  26 0004 91B0     		sub	sp, sp, #68
  27 0006 0A91     		str	r1, [sp, #40]
  28 0008 0692     		str	r2, [sp, #24]
  29 000a 0028     		cmp	r0, #0
  30 000c 00F02883 		beq	.L80
  31 0010 0168     		ldr	r1, [r0, #0]
  32 0012 0029     		cmp	r1, #0
  33 0014 00F02483 		beq	.L80
  34 0018 4668     		ldr	r6, [r0, #4]
  35 001a 002E     		cmp	r6, #0
  36 001c 00F02083 		beq	.L80
  37 0020 8268     		ldr	r2, [r0, #8]
  38 0022 002A     		cmp	r2, #0
  39 0024 00F01C83 		beq	.L80
  40 0028 C068     		ldr	r0, [r0, #12]
  41 002a 0390     		str	r0, [sp, #12]
  42 002c 0028     		cmp	r0, #0
  43 002e 00F01783 		beq	.L80
  44 0032 002B     		cmp	r3, #0
  45 0034 C0F21483 		blt	.L80
  46 0038 1A9F     		ldr	r7, [sp, #104]
  47 003a 1B98     		ldr	r0, [sp, #108]
  48 003c 9024     		movs	r4, #144
  49 003e 6743     		muls	r7, r4, r7
  50 0040 4822     		movs	r2, #72
  51 0042 2836     		adds	r6, r6, #40
  52 0044 02FB0075 		mla	r5, r2, r0, r7
  53 0048 7619     		adds	r6, r6, r5
  54 004a 3469     		ldr	r4, [r6, #16]
  55 004c 24B3     		cbz	r4, .L3
  56 004e 7569     		ldr	r5, [r6, #20]
  57 0050 022D     		cmp	r5, #2
  58 0052 21D1     		bne	.L3
  59 0054 B769     		ldr	r7, [r6, #24]
  60 0056 4A6B     		ldr	r2, [r1, #52]
  61 0058 5FB9     		cbnz	r7, .L4
  62 005a 776B     		ldr	r7, [r6, #52]
  63 005c 0325     		movs	r5, #3
  64 005e 7C1C     		adds	r4, r7, #1
  65 0060 94FBF5F0 		sdiv	r0, r4, r5
  66 0064 02EB4002 		add	r2, r2, r0, lsl #1
  67 0068 B2F92E10 		ldrsh	r1, [r2, #46]
  68 006c 01EB4101 		add	r1, r1, r1, lsl #1
  69 0070 05E0     		b	.L101
  70              	.L4:
  71 0072 0978     		ldrb	r1, [r1, #0]	@ zero_extendqisi2
  72 0074 31B9     		cbnz	r1, .L6
  73 0076 746B     		ldr	r4, [r6, #52]
  74 0078 601C     		adds	r0, r4, #1
  75 007a 32F91010 		ldrsh	r1, [r2, r0, lsl #1]
  76              	.L101:
  77 007e 4FF41070 		mov	r0, #576
  78 0082 13E0     		b	.L5
  79              	.L6:
  80 0084 B2F93650 		ldrsh	r5, [r2, #54]
  81 0088 B2F93470 		ldrsh	r7, [r2, #52]
  82 008c B2F90C80 		ldrsh	r8, [r2, #12]
  83 0090 EA1B     		subs	r2, r5, r7
  84 0092 08EB4201 		add	r1, r8, r2, lsl #1
  85 0096 F2E7     		b	.L101
  86              	.L3:
  87 0098 4A6B     		ldr	r2, [r1, #52]
  88 009a 716B     		ldr	r1, [r6, #52]
  89 009c B76B     		ldr	r7, [r6, #56]
  90 009e 4D1C     		adds	r5, r1, #1
  91 00a0 EC19     		adds	r4, r5, r7
  92 00a2 601C     		adds	r0, r4, #1
  93 00a4 32F91510 		ldrsh	r1, [r2, r5, lsl #1]
  94 00a8 32F91000 		ldrsh	r0, [r2, r0, lsl #1]
  95              	.L5:
  96 00ac 7568     		ldr	r5, [r6, #4]
  97 00ae 039C     		ldr	r4, [sp, #12]
  98 00b0 0B96     		str	r6, [sp, #44]
  99 00b2 6A00     		lsls	r2, r5, #1
 100 00b4 B2F5107F 		cmp	r2, #576
 101 00b8 A8BF     		it	ge
 102 00ba 4FF41072 		movge	r2, #576
 103 00be 9042     		cmp	r0, r2
 104 00c0 D4BF     		ite	le
 105 00c2 0E90     		strle	r0, [sp, #56]
 106 00c4 0E92     		strgt	r2, [sp, #56]
 107 00c6 1B9D     		ldr	r5, [sp, #108]
 108 00c8 9142     		cmp	r1, r2
 109 00ca D4BF     		ite	le
 110 00cc 0D91     		strle	r1, [sp, #52]
 111 00ce 0D92     		strgt	r2, [sp, #52]
 112 00d0 10A8     		add	r0, sp, #64
 113 00d2 0021     		movs	r1, #0
 114 00d4 40F8101D 		str	r1, [r0, #-16]!
 115 00d8 05F59067 		add	r7, r5, #1152
 116 00dc 0F92     		str	r2, [sp, #60]
 117 00de 0590     		str	r0, [sp, #20]
 118 00e0 44F82720 		str	r2, [r4, r7, lsl #2]
 119 00e4 0A98     		ldr	r0, [sp, #40]
 120 00e6 0491     		str	r1, [sp, #16]
 121 00e8 4FF41072 		mov	r2, #576
 122 00ec 6A43     		muls	r2, r5, r2
 123 00ee 0992     		str	r2, [sp, #36]
 124 00f0 8146     		mov	r9, r0
 125              	.L45:
 126 00f2 059C     		ldr	r4, [sp, #20]
 127 00f4 049D     		ldr	r5, [sp, #16]
 128 00f6 54F8046F 		ldr	r6, [r4, #4]!
 129 00fa 0B9A     		ldr	r2, [sp, #44]
 130 00fc 0594     		str	r4, [sp, #20]
 131 00fe 0DF13008 		add	r8, sp, #48
 132 0102 5119     		adds	r1, r2, r5
 133 0104 55F80870 		ldr	r7, [r5, r8]
 134 0108 069C     		ldr	r4, [sp, #24]
 135 010a C969     		ldr	r1, [r1, #28]
 136 010c 2268     		ldr	r2, [r4, #0]
 137 010e F61B     		subs	r6, r6, r7
 138 0110 002E     		cmp	r6, #0
 139 0112 40F3AA82 		ble	.L7
 140 0116 002B     		cmp	r3, #0
 141 0118 C0F2A282 		blt	.L80
 142 011c AD4D     		ldr	r5, .L105
 143 011e AE48     		ldr	r0, .L105+4
 144 0120 55F831C0 		ldr	ip, [r5, r1, lsl #3]
 145 0124 50F82180 		ldr	r8, [r0, r1, lsl #2]
 146 0128 05EBC100 		add	r0, r5, r1, lsl #3
 147 012c 5242     		negs	r2, r2
 148 012e 0179     		ldrb	r1, [r0, #4]	@ zero_extendqisi2
 149 0130 039D     		ldr	r5, [sp, #12]
 150 0132 0291     		str	r1, [sp, #8]
 151 0134 4846     		mov	r0, r9
 152 0136 12F00702 		ands	r2, r2, #7
 153 013a 1EBF     		ittt	ne
 154 013c 10F8014B 		ldrbne	r4, [r0], #1	@ zero_extendqisi2
 155 0140 C2F12001 		rsbne	r1, r2, #32
 156 0144 04FA01F1 		lslne	r1, r4, r1
 157 0148 099C     		ldr	r4, [sp, #36]
 158 014a 2744     		add	r7, r7, r4
 159 014c 05EB8707 		add	r7, r5, r7, lsl #2
 160 0150 029D     		ldr	r5, [sp, #8]
 161 0152 08BF     		it	eq
 162 0154 1146     		moveq	r1, r2
 163 0156 45B9     		cbnz	r5, .L9
 164 0158 2A46     		mov	r2, r5
 165              	.L10:
 166 015a 0021     		movs	r1, #0
 167 015c 0232     		adds	r2, r2, #2
 168 015e 3960     		str	r1, [r7, #0]
 169 0160 7960     		str	r1, [r7, #4]
 170 0162 0837     		adds	r7, r7, #8
 171 0164 B242     		cmp	r2, r6
 172 0166 F8DB     		blt	.L10
 173 0168 7FE2     		b	.L7
 174              	.L9:
 175 016a DFF870A2 		ldr	sl, .L105+8
 176 016e 029D     		ldr	r5, [sp, #8]
 177 0170 0AEB4804 		add	r4, sl, r8, lsl #1
 178 0174 012D     		cmp	r5, #1
 179 0176 0794     		str	r4, [sp, #28]
 180 0178 C2EB0304 		rsb	r4, r2, r3
 181 017c 75D1     		bne	.L11
 182 017e 3AF81850 		ldrh	r5, [sl, r8, lsl #1]
 183 0182 05F00F0B 		and	fp, r5, #15
 184 0186 079D     		ldr	r5, [sp, #28]
 185 0188 0235     		adds	r5, r5, #2
 186 018a 0295     		str	r5, [sp, #8]
 187 018c CA46     		mov	sl, r9
 188 018e 0025     		movs	r5, #0
 189              	.L21:
 190 0190 0F2C     		cmp	r4, #15
 191 0192 13DD     		ble	.L12
 192 0194 90F80090 		ldrb	r9, [r0, #0]	@ zero_extendqisi2
 193 0198 C2F11808 		rsb	r8, r2, #24
 194 019c 09FA08F9 		lsl	r9, r9, r8
 195 01a0 90F80180 		ldrb	r8, [r0, #1]	@ zero_extendqisi2
 196 01a4 C2F1100C 		rsb	ip, r2, #16
 197 01a8 08FA0CFC 		lsl	ip, r8, ip
 198 01ac 49EA0C0C 		orr	ip, r9, ip
 199 01b0 41EA0C01 		orr	r1, r1, ip
 200 01b4 0230     		adds	r0, r0, #2
 201 01b6 1032     		adds	r2, r2, #16
 202 01b8 103C     		subs	r4, r4, #16
 203 01ba 22E0     		b	.L102
 204              	.L12:
 205 01bc 1519     		adds	r5, r2, r4
 206 01be 002D     		cmp	r5, #0
 207 01c0 40F34E82 		ble	.L80
 208 01c4 002C     		cmp	r4, #0
 209 01c6 12DD     		ble	.L14
 210 01c8 90F80080 		ldrb	r8, [r0, #0]	@ zero_extendqisi2
 211 01cc C2F1180C 		rsb	ip, r2, #24
 212 01d0 08FA0CFC 		lsl	ip, r8, ip
 213 01d4 082C     		cmp	r4, #8
 214 01d6 41EA0C01 		orr	r1, r1, ip
 215 01da 01DC     		bgt	.L15
 216 01dc 0130     		adds	r0, r0, #1
 217 01de 06E0     		b	.L14
 218              	.L15:
 219 01e0 4478     		ldrb	r4, [r0, #1]	@ zero_extendqisi2
 220 01e2 C2F1100C 		rsb	ip, r2, #16
 221 01e6 04FA0CF2 		lsl	r2, r4, ip
 222 01ea 1143     		orrs	r1, r1, r2
 223 01ec 0230     		adds	r0, r0, #2
 224              	.L14:
 225 01ee 6A1E     		subs	r2, r5, #1
 226 01f0 4FF0004C 		mov	ip, #-2147483648
 227 01f4 4CFA02F2 		asr	r2, ip, r2
 228 01f8 1140     		ands	r1, r1, r2
 229 01fa 0024     		movs	r4, #0
 230 01fc 05F10B02 		add	r2, r5, #11
 231 0200 0B25     		movs	r5, #11
 232              	.L102:
 233 0202 0790     		str	r0, [sp, #28]
 234 0204 29E0     		b	.L93
 235              	.L20:
 236 0206 CBF12000 		rsb	r0, fp, #32
 237 020a 21FA00F8 		lsr	r8, r1, r0
 238 020e 0298     		ldr	r0, [sp, #8]
 239 0210 30F818C0 		ldrh	ip, [r0, r8, lsl #1]
 240 0214 4FEA1C30 		lsr	r0, ip, #12
 241 0218 121A     		subs	r2, r2, r0
 242 021a 8140     		lsls	r1, r1, r0
 243 021c 4FEA1C10 		lsr	r0, ip, #4
 244 0220 10F00F08 		ands	r8, r0, #15
 245 0224 05D0     		beq	.L17
 246 0226 01F00049 		and	r9, r1, #-2147483648
 247 022a 49EA0808 		orr	r8, r9, r8
 248 022e 4900     		lsls	r1, r1, #1
 249 0230 013A     		subs	r2, r2, #1
 250              	.L17:
 251 0232 4FEA1C20 		lsr	r0, ip, #8
 252 0236 10F00F0C 		ands	ip, r0, #15
 253 023a 05D0     		beq	.L18
 254 023c 01F00049 		and	r9, r1, #-2147483648
 255 0240 49EA0C0C 		orr	ip, r9, ip
 256 0244 4900     		lsls	r1, r1, #1
 257 0246 013A     		subs	r2, r2, #1
 258              	.L18:
 259 0248 AA42     		cmp	r2, r5
 260 024a C0F20982 		blt	.L80
 261 024e 023E     		subs	r6, r6, #2
 262 0250 87E80011 		stmia	r7, {r8, ip}
 263 0254 0837     		adds	r7, r7, #8
 264 0256 002E     		cmp	r6, #0
 265 0258 04DD     		ble	.L96
 266              	.L93:
 267 025a 0A2A     		cmp	r2, #10
 268 025c D3DC     		bgt	.L20
 269 025e 002E     		cmp	r6, #0
 270 0260 0798     		ldr	r0, [sp, #28]
 271 0262 95DC     		bgt	.L21
 272              	.L96:
 273 0264 D146     		mov	r9, sl
 274 0266 521B     		subs	r2, r2, r5
 275 0268 F8E0     		b	.L104
 276              	.L11:
 277 026a 029D     		ldr	r5, [sp, #8]
 278 026c A5F10208 		sub	r8, r5, #2
 279 0270 5FFA88F5 		uxtb	r5, r8
 280 0274 012D     		cmp	r5, #1
 281 0276 00F2F381 		bhi	.L80
 282 027a 4FF00008 		mov	r8, #0
 283 027e 079D     		ldr	r5, [sp, #28]
 284 0280 CDF82080 		str	r8, [sp, #32]
 285 0284 CB46     		mov	fp, r9
 286 0286 9946     		mov	r9, r3
 287              	.L44:
 288 0288 0F2C     		cmp	r4, #15
 289 028a 12DD     		ble	.L23
 290 028c 0378     		ldrb	r3, [r0, #0]	@ zero_extendqisi2
 291 028e C2F1180A 		rsb	sl, r2, #24
 292 0292 03FA0AF3 		lsl	r3, r3, sl
 293 0296 90F801A0 		ldrb	sl, [r0, #1]	@ zero_extendqisi2
 294 029a C2F11008 		rsb	r8, r2, #16
 295 029e 0AFA08F8 		lsl	r8, sl, r8
 296 02a2 43EA0808 		orr	r8, r3, r8
 297 02a6 41EA0801 		orr	r1, r1, r8
 298 02aa 0230     		adds	r0, r0, #2
 299 02ac 1032     		adds	r2, r2, #16
 300 02ae 103C     		subs	r4, r4, #16
 301 02b0 23E0     		b	.L103
 302              	.L23:
 303 02b2 1319     		adds	r3, r2, r4
 304 02b4 002B     		cmp	r3, #0
 305 02b6 40F3D381 		ble	.L80
 306 02ba 002C     		cmp	r4, #0
 307 02bc 12DD     		ble	.L25
 308 02be 90F800A0 		ldrb	sl, [r0, #0]	@ zero_extendqisi2
 309 02c2 C2F11808 		rsb	r8, r2, #24
 310 02c6 0AFA08F8 		lsl	r8, sl, r8
 311 02ca 082C     		cmp	r4, #8
 312 02cc 41EA0801 		orr	r1, r1, r8
 313 02d0 01DC     		bgt	.L26
 314 02d2 0130     		adds	r0, r0, #1
 315 02d4 06E0     		b	.L25
 316              	.L26:
 317 02d6 4478     		ldrb	r4, [r0, #1]	@ zero_extendqisi2
 318 02d8 C2F11002 		rsb	r2, r2, #16
 319 02dc 04FA02F4 		lsl	r4, r4, r2
 320 02e0 2143     		orrs	r1, r1, r4
 321 02e2 0230     		adds	r0, r0, #2
 322              	.L25:
 323 02e4 5A1E     		subs	r2, r3, #1
 324 02e6 4FF00044 		mov	r4, #-2147483648
 325 02ea 44FA02F2 		asr	r2, r4, r2
 326 02ee 1140     		ands	r1, r1, r2
 327 02f0 03F10B02 		add	r2, r3, #11
 328 02f4 0B23     		movs	r3, #11
 329 02f6 0893     		str	r3, [sp, #32]
 330 02f8 0024     		movs	r4, #0
 331              	.L103:
 332 02fa 0190     		str	r0, [sp, #4]
 333 02fc A3E0     		b	.L94
 334              	.L43:
 335 02fe 2B88     		ldrh	r3, [r5, #0]
 336 0300 03F00F08 		and	r8, r3, #15
 337 0304 C8F12000 		rsb	r0, r8, #32
 338 0308 21FA00F3 		lsr	r3, r1, r0
 339 030c 581C     		adds	r0, r3, #1
 340 030e 35F81030 		ldrh	r3, [r5, r0, lsl #1]
 341 0312 5FEA133A 		lsrs	sl, r3, #12
 342 0316 06D1     		bne	.L28
 343 0318 C8EB0202 		rsb	r2, r8, r2
 344 031c 01FA08F1 		lsl	r1, r1, r8
 345 0320 05EB4305 		add	r5, r5, r3, lsl #1
 346 0324 8DE0     		b	.L29
 347              	.L28:
 348 0326 1D09     		lsrs	r5, r3, #4
 349 0328 05F00F05 		and	r5, r5, #15
 350 032c 180A     		lsrs	r0, r3, #8
 351 032e 0F2D     		cmp	r5, #15
 352 0330 CAEB0202 		rsb	r2, sl, r2
 353 0334 01FA0AF1 		lsl	r1, r1, sl
 354 0338 00F00F03 		and	r3, r0, #15
 355 033c 32D1     		bne	.L30
 356 033e 0298     		ldr	r0, [sp, #8]
 357 0340 0328     		cmp	r0, #3
 358 0342 30D1     		bne	.L31
 359 0344 0CF1010A 		add	sl, ip, #1
 360 0348 002B     		cmp	r3, #0
 361 034a 18BF     		it	ne
 362 034c 0AF1010A 		addne	sl, sl, #1
 363 0350 1519     		adds	r5, r2, r4
 364 0352 5545     		cmp	r5, sl
 365 0354 C0F28481 		blt	.L80
 366 0358 DDF80480 		ldr	r8, [sp, #4]
 367 035c C2F11805 		rsb	r5, r2, #24
 368 0360 08E0     		b	.L32
 369              	.L33:
 370 0362 0078     		ldrb	r0, [r0, #0]	@ zero_extendqisi2
 371 0364 00FA05F0 		lsl	r0, r0, r5
 372 0368 08F10108 		add	r8, r8, #1
 373 036c 0143     		orrs	r1, r1, r0
 374 036e 0832     		adds	r2, r2, #8
 375 0370 083C     		subs	r4, r4, #8
 376 0372 083D     		subs	r5, r5, #8
 377              	.L32:
 378 0374 5245     		cmp	r2, sl
 379 0376 4046     		mov	r0, r8
 380 0378 F3DB     		blt	.L33
 381 037a 002C     		cmp	r4, #0
 382 037c CDF80480 		str	r8, [sp, #4]
 383 0380 07DA     		bge	.L34
 384 0382 1219     		adds	r2, r2, r4
 385 0384 501E     		subs	r0, r2, #1
 386 0386 4FF00045 		mov	r5, #-2147483648
 387 038a 45FA00F4 		asr	r4, r5, r0
 388 038e 2140     		ands	r1, r1, r4
 389 0390 0024     		movs	r4, #0
 390              	.L34:
 391 0392 CCF12000 		rsb	r0, ip, #32
 392 0396 21FA00F5 		lsr	r5, r1, r0
 393 039a 0F35     		adds	r5, r5, #15
 394 039c CCEB0202 		rsb	r2, ip, r2
 395 03a0 01FA0CF1 		lsl	r1, r1, ip
 396              	.L30:
 397 03a4 2DB1     		cbz	r5, .L35
 398              	.L31:
 399 03a6 01F00048 		and	r8, r1, #-2147483648
 400 03aa 48EA0505 		orr	r5, r8, r5
 401 03ae 4900     		lsls	r1, r1, #1
 402 03b0 013A     		subs	r2, r2, #1
 403              	.L35:
 404 03b2 0F2B     		cmp	r3, #15
 405 03b4 35D1     		bne	.L36
 406 03b6 0298     		ldr	r0, [sp, #8]
 407 03b8 0328     		cmp	r0, #3
 408 03ba 33D1     		bne	.L37
 409 03bc 0CF1010A 		add	sl, ip, #1
 410 03c0 1319     		adds	r3, r2, r4
 411 03c2 5345     		cmp	r3, sl
 412 03c4 C0F24C81 		blt	.L80
 413 03c8 DDF80480 		ldr	r8, [sp, #4]
 414 03cc C2F11803 		rsb	r3, r2, #24
 415 03d0 0FE0     		b	.L38
 416              	.L106:
 417 03d2 00BF     		.align	2
 418              	.L105:
 419 03d4 00000000 		.word	xmp3fixpt_huffTabLookup
 420 03d8 00000000 		.word	xmp3fixpt_huffTabOffset
 421 03dc 00000000 		.word	xmp3fixpt_huffTable
 422              	.L39:
 423 03e0 0078     		ldrb	r0, [r0, #0]	@ zero_extendqisi2
 424 03e2 00FA03F0 		lsl	r0, r0, r3
 425 03e6 08F10108 		add	r8, r8, #1
 426 03ea 0143     		orrs	r1, r1, r0
 427 03ec 0832     		adds	r2, r2, #8
 428 03ee 083C     		subs	r4, r4, #8
 429 03f0 083B     		subs	r3, r3, #8
 430              	.L38:
 431 03f2 5245     		cmp	r2, sl
 432 03f4 4046     		mov	r0, r8
 433 03f6 F3DB     		blt	.L39
 434 03f8 002C     		cmp	r4, #0
 435 03fa CDF80480 		str	r8, [sp, #4]
 436 03fe 07DA     		bge	.L40
 437 0400 1219     		adds	r2, r2, r4
 438 0402 531E     		subs	r3, r2, #1
 439 0404 4FF00040 		mov	r0, #-2147483648
 440 0408 40FA03F4 		asr	r4, r0, r3
 441 040c 2140     		ands	r1, r1, r4
 442 040e 0024     		movs	r4, #0
 443              	.L40:
 444 0410 CCF12008 		rsb	r8, ip, #32
 445 0414 21FA08F3 		lsr	r3, r1, r8
 446 0418 0F33     		adds	r3, r3, #15
 447 041a CCEB0202 		rsb	r2, ip, r2
 448 041e 01FA0CF1 		lsl	r1, r1, ip
 449              	.L36:
 450 0422 23B1     		cbz	r3, .L41
 451              	.L37:
 452 0424 01F00040 		and	r0, r1, #-2147483648
 453 0428 0343     		orrs	r3, r3, r0
 454 042a 4900     		lsls	r1, r1, #1
 455 042c 013A     		subs	r2, r2, #1
 456              	.L41:
 457 042e DDF82080 		ldr	r8, [sp, #32]
 458 0432 4245     		cmp	r2, r8
 459 0434 C0F21481 		blt	.L80
 460 0438 3D60     		str	r5, [r7, #0]
 461 043a 079D     		ldr	r5, [sp, #28]
 462 043c 7B60     		str	r3, [r7, #4]
 463 043e 023E     		subs	r6, r6, #2
 464 0440 0837     		adds	r7, r7, #8
 465              	.L29:
 466 0442 002E     		cmp	r6, #0
 467 0444 06DD     		ble	.L97
 468              	.L94:
 469 0446 0A2A     		cmp	r2, #10
 470 0448 3FF759AF 		bgt	.L43
 471 044c 002E     		cmp	r6, #0
 472 044e 0198     		ldr	r0, [sp, #4]
 473 0450 3FF71AAF 		bgt	.L44
 474              	.L97:
 475 0454 0899     		ldr	r1, [sp, #32]
 476 0456 4B46     		mov	r3, r9
 477 0458 521A     		subs	r2, r2, r1
 478 045a D946     		mov	r9, fp
 479              	.L104:
 480 045c A218     		adds	r2, r4, r2
 481 045e 9C1A     		subs	r4, r3, r2
 482 0460 002C     		cmp	r4, #0
 483 0462 C0F2FD80 		blt	.L80
 484              	.L63:
 485 0466 9C42     		cmp	r4, r3
 486 0468 00F3FA80 		bgt	.L80
 487 046c 069D     		ldr	r5, [sp, #24]
 488 046e 049F     		ldr	r7, [sp, #16]
 489 0470 2968     		ldr	r1, [r5, #0]
 490 0472 3E1D     		adds	r6, r7, #4
 491 0474 6018     		adds	r0, r4, r1
 492 0476 00F00701 		and	r1, r0, #7
 493 047a 0C2E     		cmp	r6, #12
 494 047c 09EBE009 		add	r9, r9, r0, asr #3
 495 0480 2960     		str	r1, [r5, #0]
 496 0482 C4EB0303 		rsb	r3, r4, r3
 497 0486 0496     		str	r6, [sp, #16]
 498 0488 7FF433AE 		bne	.L45
 499 048c 1B9C     		ldr	r4, [sp, #108]
 500 048e 0398     		ldr	r0, [sp, #12]
 501 0490 0B9E     		ldr	r6, [sp, #44]
 502 0492 CDF81490 		str	r9, [sp, #20]
 503 0496 04F59067 		add	r7, r4, #1152
 504 049a 0F9C     		ldr	r4, [sp, #60]
 505 049c 50F82720 		ldr	r2, [r0, r7, lsl #2]
 506 04a0 0294     		str	r4, [sp, #8]
 507 04a2 002B     		cmp	r3, #0
 508 04a4 0492     		str	r2, [sp, #16]
 509 04a6 4D46     		mov	r5, r9
 510 04a8 726C     		ldr	r2, [r6, #68]
 511 04aa 40F3B180 		ble	.L81
 512 04ae 704E     		ldr	r6, .L107
 513 04b0 704F     		ldr	r7, .L107+4
 514 04b2 56F82240 		ldr	r4, [r6, r2, lsl #2]
 515 04b6 704E     		ldr	r6, .L107+8
 516 04b8 E019     		adds	r0, r4, r7
 517 04ba 4942     		negs	r1, r1
 518 04bc 56F82240 		ldr	r4, [r6, r2, lsl #2]
 519 04c0 0790     		str	r0, [sp, #28]
 520 04c2 11F00701 		ands	r1, r1, #7
 521 04c6 0298     		ldr	r0, [sp, #8]
 522 04c8 099F     		ldr	r7, [sp, #36]
 523 04ca 0894     		str	r4, [sp, #32]
 524 04cc 039E     		ldr	r6, [sp, #12]
 525 04ce 18BF     		it	ne
 526 04d0 15F8014B 		ldrbne	r4, [r5], #1	@ zero_extendqisi2
 527 04d4 07EB0009 		add	r9, r7, r0
 528 04d8 18BF     		it	ne
 529 04da C1F12002 		rsbne	r2, r1, #32
 530 04de 4FF00008 		mov	r8, #0
 531 04e2 14BF     		ite	ne
 532 04e4 04FA02F2 		lslne	r2, r4, r2
 533 04e8 0A46     		moveq	r2, r1
 534 04ea 06EB8906 		add	r6, r6, r9, lsl #2
 535 04ee 581A     		subs	r0, r3, r1
 536 04f0 4446     		mov	r4, r8
 537 04f2 84E0     		b	.L92
 538              	.L60:
 539 04f4 0F28     		cmp	r0, #15
 540 04f6 11DD     		ble	.L49
 541 04f8 2F78     		ldrb	r7, [r5, #0]	@ zero_extendqisi2
 542 04fa C1F1180A 		rsb	sl, r1, #24
 543 04fe 07FA0AF7 		lsl	r7, r7, sl
 544 0502 95F801A0 		ldrb	sl, [r5, #1]	@ zero_extendqisi2
 545 0506 C1F11009 		rsb	r9, r1, #16
 546 050a 0AFA09F9 		lsl	r9, sl, r9
 547 050e 47EA0907 		orr	r7, r7, r9
 548 0512 3A43     		orrs	r2, r2, r7
 549 0514 0235     		adds	r5, r5, #2
 550 0516 1031     		adds	r1, r1, #16
 551 0518 1038     		subs	r0, r0, #16
 552 051a 6EE0     		b	.L95
 553              	.L49:
 554 051c 0F18     		adds	r7, r1, r0
 555 051e 002F     		cmp	r7, #0
 556 0520 77DD     		ble	.L46
 557 0522 0028     		cmp	r0, #0
 558 0524 12DD     		ble	.L51
 559 0526 95F80090 		ldrb	r9, [r5, #0]	@ zero_extendqisi2
 560 052a C1F11808 		rsb	r8, r1, #24
 561 052e 09FA08F8 		lsl	r8, r9, r8
 562 0532 0828     		cmp	r0, #8
 563 0534 42EA0802 		orr	r2, r2, r8
 564 0538 01DC     		bgt	.L52
 565 053a 0135     		adds	r5, r5, #1
 566 053c 06E0     		b	.L51
 567              	.L52:
 568 053e 6878     		ldrb	r0, [r5, #1]	@ zero_extendqisi2
 569 0540 C1F11008 		rsb	r8, r1, #16
 570 0544 00FA08F1 		lsl	r1, r0, r8
 571 0548 0A43     		orrs	r2, r2, r1
 572 054a 0235     		adds	r5, r5, #2
 573              	.L51:
 574 054c 791E     		subs	r1, r7, #1
 575 054e 4FF00048 		mov	r8, #-2147483648
 576 0552 48FA01F9 		asr	r9, r8, r1
 577 0556 02EA0902 		and	r2, r2, r9
 578 055a 07F10A01 		add	r1, r7, #10
 579 055e 4FF00A08 		mov	r8, #10
 580 0562 0020     		movs	r0, #0
 581 0564 49E0     		b	.L95
 582              	.L59:
 583 0566 089F     		ldr	r7, [sp, #32]
 584 0568 DDF81C90 		ldr	r9, [sp, #28]
 585 056c C7F12007 		rsb	r7, r7, #32
 586 0570 22FA07F7 		lsr	r7, r2, r7
 587 0574 19F80770 		ldrb	r7, [r9, r7]	@ zero_extendqisi2
 588 0578 4FEA171A 		lsr	sl, r7, #4
 589 057c 07F0080B 		and	fp, r7, #8
 590 0580 CAEB0101 		rsb	r1, sl, r1
 591 0584 02FA0AF2 		lsl	r2, r2, sl
 592 0588 5FFA8BFA 		uxtb	sl, fp
 593 058c BAF1000F 		cmp	sl, #0
 594 0590 05D0     		beq	.L54
 595 0592 02F0004B 		and	fp, r2, #-2147483648
 596 0596 4BF0010A 		orr	sl, fp, #1
 597 059a 5200     		lsls	r2, r2, #1
 598 059c 0139     		subs	r1, r1, #1
 599              	.L54:
 600 059e 07F00409 		and	r9, r7, #4
 601 05a2 5FFA89FB 		uxtb	fp, r9
 602 05a6 BBF1000F 		cmp	fp, #0
 603 05aa 05D0     		beq	.L55
 604 05ac 02F0004B 		and	fp, r2, #-2147483648
 605 05b0 4BF0010B 		orr	fp, fp, #1
 606 05b4 5200     		lsls	r2, r2, #1
 607 05b6 0139     		subs	r1, r1, #1
 608              	.L55:
 609 05b8 07F00209 		and	r9, r7, #2
 610 05bc 5FFA89F9 		uxtb	r9, r9
 611 05c0 B9F1000F 		cmp	r9, #0
 612 05c4 05D0     		beq	.L56
 613 05c6 02F00049 		and	r9, r2, #-2147483648
 614 05ca 49F00109 		orr	r9, r9, #1
 615 05ce 5200     		lsls	r2, r2, #1
 616 05d0 0139     		subs	r1, r1, #1
 617              	.L56:
 618 05d2 17F00107 		ands	r7, r7, #1
 619 05d6 05D0     		beq	.L57
 620 05d8 02F00047 		and	r7, r2, #-2147483648
 621 05dc 47F00107 		orr	r7, r7, #1
 622 05e0 5200     		lsls	r2, r2, #1
 623 05e2 0139     		subs	r1, r1, #1
 624              	.L57:
 625 05e4 4145     		cmp	r1, r8
 626 05e6 14DB     		blt	.L46
 627 05e8 0434     		adds	r4, r4, #4
 628 05ea 86E8000C 		stmia	r6, {sl, fp}
 629 05ee C6F80890 		str	r9, [r6, #8]
 630 05f2 F760     		str	r7, [r6, #12]
 631 05f4 1036     		adds	r6, r6, #16
 632 05f6 6445     		cmp	r4, ip
 633 05f8 01DA     		bge	.L92
 634              	.L95:
 635 05fa 0929     		cmp	r1, #9
 636 05fc B3DC     		bgt	.L59
 637              	.L92:
 638 05fe 029F     		ldr	r7, [sp, #8]
 639 0600 C7F50E7C 		rsb	ip, r7, #568
 640 0604 0CF1050C 		add	ip, ip, #5
 641 0608 6445     		cmp	r4, ip
 642 060a FFF673AF 		blt	.L60
 643 060e 00E0     		b	.L46
 644              	.L81:
 645 0610 0024     		movs	r4, #0
 646              	.L46:
 647 0612 1B9D     		ldr	r5, [sp, #108]
 648 0614 0498     		ldr	r0, [sp, #16]
 649 0616 05F59062 		add	r2, r5, #1152
 650 061a 039D     		ldr	r5, [sp, #12]
 651 061c 0419     		adds	r4, r0, r4
 652 061e 45F82240 		str	r4, [r5, r2, lsl #2]
 653 0622 2146     		mov	r1, r4
 654 0624 0022     		movs	r2, #0
 655 0626 09E0     		b	.L61
 656              	.L62:
 657 0628 0998     		ldr	r0, [sp, #36]
 658 062a 039D     		ldr	r5, [sp, #12]
 659 062c 2718     		adds	r7, r4, r0
 660 062e 05EB8708 		add	r8, r5, r7, lsl #2
 661 0632 0025     		movs	r5, #0
 662 0634 48F80250 		str	r5, [r8, r2]
 663 0638 0131     		adds	r1, r1, #1
 664 063a 0432     		adds	r2, r2, #4
 665              	.L61:
 666 063c B1F5107F 		cmp	r1, #576
 667 0640 F2DB     		blt	.L62
 668 0642 069F     		ldr	r7, [sp, #24]
 669 0644 DDF81480 		ldr	r8, [sp, #20]
 670 0648 3868     		ldr	r0, [r7, #0]
 671 064a DDF82890 		ldr	r9, [sp, #40]
 672 064e 1918     		adds	r1, r3, r0
 673 0650 01F00702 		and	r2, r1, #7
 674 0654 08EBE103 		add	r3, r8, r1, asr #3
 675 0658 3A60     		str	r2, [r7, #0]
 676 065a C9EB0300 		rsb	r0, r9, r3
 677 065e 01E0     		b	.L2
 678              	.L80:
 679 0660 4FF0FF30 		mov	r0, #-1
 680              	.L2:
 681 0664 11B0     		add	sp, sp, #68
 682 0666 BDE8F08F 		pop	{r4, r5, r6, r7, r8, r9, sl, fp, pc}
 683              	.L7:
 684 066a 0024     		movs	r4, #0
 685 066c FBE6     		b	.L63
 686              	.L108:
 687 066e 00BF     		.align	2
 688              	.L107:
 689 0670 00000000 		.word	xmp3fixpt_quadTabOffset
 690 0674 00000000 		.word	xmp3fixpt_quadTable
 691 0678 00000000 		.word	xmp3fixpt_quadTabMaxBits
 693              		.ident	"GCC: (Sourcery CodeBench Lite 2012.03-56) 4.6.3"
DEFINED SYMBOLS
                            *ABS*:00000000 huffman.c
     /tmp/ccYThnkP.s:17     .text.xmp3fixpt_DecodeHuffman:00000000 $t
     /tmp/ccYThnkP.s:22     .text.xmp3fixpt_DecodeHuffman:00000000 xmp3fixpt_DecodeHuffman
     /tmp/ccYThnkP.s:419    .text.xmp3fixpt_DecodeHuffman:000003d4 $d
     /tmp/ccYThnkP.s:423    .text.xmp3fixpt_DecodeHuffman:000003e0 $t
     /tmp/ccYThnkP.s:689    .text.xmp3fixpt_DecodeHuffman:00000670 $d

UNDEFINED SYMBOLS
xmp3fixpt_huffTabLookup
xmp3fixpt_huffTabOffset
xmp3fixpt_huffTable
xmp3fixpt_quadTabOffset
xmp3fixpt_quadTable
xmp3fixpt_quadTabMaxBits
