   1              		.syntax unified
   2              		.cpu cortex-m4
   3              		.eabi_attribute 27, 3
   4              		.fpu fpv4-sp-d16
   5              		.eabi_attribute 20, 1
   6              		.eabi_attribute 21, 1
   7              		.eabi_attribute 23, 3
   8              		.eabi_attribute 24, 1
   9              		.eabi_attribute 25, 1
  10              		.eabi_attribute 26, 1
  11              		.eabi_attribute 30, 4
  12              		.eabi_attribute 34, 1
  13              		.eabi_attribute 18, 4
  14              		.thumb
  15              		.file	"imdct.c"
  16              		.section	.text.MULSHIFT32,"ax",%progbits
  17              		.align	1
  18              		.thumb
  19              		.thumb_func
  21              	MULSHIFT32:
  22              		@ args = 0, pretend = 0, frame = 0
  23              		@ frame_needed = 0, uses_anonymous_args = 0
  24              		@ link register save eliminated.
  25 0000 0B46     		mov	r3, r1
  26              	@ 285 "../src/mp3dec/real/assembly.h" 1
  27 0002 80FB0323 		smull r2,r3,r0,r3
  28              	@ 0 "" 2
  29              		.thumb
  30 0006 1846     		mov	r0, r3
  31 0008 7047     		bx	lr
  33              		.section	.text.FASTABS,"ax",%progbits
  34              		.align	1
  35              		.thumb
  36              		.thumb_func
  38              	FASTABS:
  39              		@ args = 0, pretend = 0, frame = 0
  40              		@ frame_needed = 0, uses_anonymous_args = 0
  41              		@ link register save eliminated.
  42 0000 0023     		movs	r3, #0
  43              	@ 294 "../src/mp3dec/real/assembly.h" 1
  44 0002 80EAE073 		eor r3,r0,r0, asr #31;sub r3,r3,r0, asr #31;
  44      A3EBE073 
  45              	@ 0 "" 2
  46              		.thumb
  47 000a 1846     		mov	r0, r3
  48 000c 7047     		bx	lr
  50              		.section	.text.WinPrevious,"ax",%progbits
  51              		.align	1
  52              		.thumb
  53              		.thumb_func
  55              	WinPrevious:
  56              		@ args = 0, pretend = 0, frame = 8
  57              		@ frame_needed = 0, uses_anonymous_args = 0
  58 0000 022A     		cmp	r2, #2
  59 0002 2DE9F74F 		push	{r0, r1, r2, r4, r5, r6, r7, r8, r9, sl, fp, lr}
  60 0006 0546     		mov	r5, r0
  61 0008 0C46     		mov	r4, r1
  62 000a 504E     		ldr	r6, .L8
  63 000c 40F08180 		bne	.L4
  64 0010 D6F838A1 		ldr	sl, [r6, #312]
  65 0014 A968     		ldr	r1, [r5, #8]
  66 0016 5046     		mov	r0, sl
  67 0018 FFF7FEFF 		bl	MULSHIFT32
  68 001c A969     		ldr	r1, [r5, #24]
  69 001e 8146     		mov	r9, r0
  70 0020 D6F82001 		ldr	r0, [r6, #288]
  71 0024 FFF7FEFF 		bl	MULSHIFT32
  72 0028 4844     		add	r0, r9, r0
  73 002a D6F83C91 		ldr	r9, [r6, #316]
  74 002e 2060     		str	r0, [r4, #0]
  75 0030 6968     		ldr	r1, [r5, #4]
  76 0032 4846     		mov	r0, r9
  77 0034 FFF7FEFF 		bl	MULSHIFT32
  78 0038 E969     		ldr	r1, [r5, #28]
  79 003a 8046     		mov	r8, r0
  80 003c D6F82401 		ldr	r0, [r6, #292]
  81 0040 FFF7FEFF 		bl	MULSHIFT32
  82 0044 08EB0003 		add	r3, r8, r0
  83 0048 D6F84081 		ldr	r8, [r6, #320]
  84 004c 6360     		str	r3, [r4, #4]
  85 004e 2968     		ldr	r1, [r5, #0]
  86 0050 4046     		mov	r0, r8
  87 0052 FFF7FEFF 		bl	MULSHIFT32
  88 0056 296A     		ldr	r1, [r5, #32]
  89 0058 8346     		mov	fp, r0
  90 005a D6F82801 		ldr	r0, [r6, #296]
  91 005e FFF7FEFF 		bl	MULSHIFT32
  92 0062 0BEB0007 		add	r7, fp, r0
  93 0066 A760     		str	r7, [r4, #8]
  94 0068 D6F84471 		ldr	r7, [r6, #324]
  95 006c 2968     		ldr	r1, [r5, #0]
  96 006e 3846     		mov	r0, r7
  97 0070 FFF7FEFF 		bl	MULSHIFT32
  98 0074 296A     		ldr	r1, [r5, #32]
  99 0076 8346     		mov	fp, r0
 100 0078 D6F82C01 		ldr	r0, [r6, #300]
 101 007c FFF7FEFF 		bl	MULSHIFT32
 102 0080 D6F84821 		ldr	r2, [r6, #328]
 103 0084 0BEB0001 		add	r1, fp, r0
 104 0088 E160     		str	r1, [r4, #12]
 105 008a 1046     		mov	r0, r2
 106 008c 6968     		ldr	r1, [r5, #4]
 107 008e 0092     		str	r2, [sp, #0]
 108 0090 FFF7FEFF 		bl	MULSHIFT32
 109 0094 E969     		ldr	r1, [r5, #28]
 110 0096 8346     		mov	fp, r0
 111 0098 D6F83001 		ldr	r0, [r6, #304]
 112 009c FFF7FEFF 		bl	MULSHIFT32
 113 00a0 D6F84C31 		ldr	r3, [r6, #332]
 114 00a4 5844     		add	r0, fp, r0
 115 00a6 2061     		str	r0, [r4, #16]
 116 00a8 A968     		ldr	r1, [r5, #8]
 117 00aa 0193     		str	r3, [sp, #4]
 118 00ac 1846     		mov	r0, r3
 119 00ae FFF7FEFF 		bl	MULSHIFT32
 120 00b2 A969     		ldr	r1, [r5, #24]
 121 00b4 8346     		mov	fp, r0
 122 00b6 D6F83401 		ldr	r0, [r6, #308]
 123 00ba FFF7FEFF 		bl	MULSHIFT32
 124 00be 0BEB0001 		add	r1, fp, r0
 125 00c2 6161     		str	r1, [r4, #20]
 126 00c4 6969     		ldr	r1, [r5, #20]
 127 00c6 5046     		mov	r0, sl
 128 00c8 FFF7FEFF 		bl	MULSHIFT32
 129 00cc A061     		str	r0, [r4, #24]
 130 00ce 2969     		ldr	r1, [r5, #16]
 131 00d0 4846     		mov	r0, r9
 132 00d2 FFF7FEFF 		bl	MULSHIFT32
 133 00d6 E061     		str	r0, [r4, #28]
 134 00d8 E968     		ldr	r1, [r5, #12]
 135 00da 4046     		mov	r0, r8
 136 00dc FFF7FEFF 		bl	MULSHIFT32
 137 00e0 2062     		str	r0, [r4, #32]
 138 00e2 E968     		ldr	r1, [r5, #12]
 139 00e4 3846     		mov	r0, r7
 140 00e6 FFF7FEFF 		bl	MULSHIFT32
 141 00ea 009A     		ldr	r2, [sp, #0]
 142 00ec 6062     		str	r0, [r4, #36]
 143 00ee 2969     		ldr	r1, [r5, #16]
 144 00f0 1046     		mov	r0, r2
 145 00f2 FFF7FEFF 		bl	MULSHIFT32
 146 00f6 A062     		str	r0, [r4, #40]
 147 00f8 6969     		ldr	r1, [r5, #20]
 148 00fa 0198     		ldr	r0, [sp, #4]
 149 00fc FFF7FEFF 		bl	MULSHIFT32
 150 0100 0023     		movs	r3, #0
 151 0102 E062     		str	r0, [r4, #44]
 152 0104 6364     		str	r3, [r4, #68]
 153 0106 2364     		str	r3, [r4, #64]
 154 0108 E363     		str	r3, [r4, #60]
 155 010a A363     		str	r3, [r4, #56]
 156 010c 6363     		str	r3, [r4, #52]
 157 010e 2363     		str	r3, [r4, #48]
 158 0110 1AE0     		b	.L3
 159              	.L4:
 160 0112 9021     		movs	r1, #144
 161 0114 01FB0266 		mla	r6, r1, r2, r6
 162 0118 06F14808 		add	r8, r6, #72
 163 011c 4646     		mov	r6, r8
 164 011e 0027     		movs	r7, #0
 165              	.L6:
 166 0120 55F80790 		ldr	r9, [r5, r7]
 167 0124 58F80700 		ldr	r0, [r8, r7]
 168 0128 D6F844A0 		ldr	sl, [r6, #68]
 169 012c 4946     		mov	r1, r9
 170 012e FFF7FEFF 		bl	MULSHIFT32
 171 0132 4946     		mov	r1, r9
 172 0134 E051     		str	r0, [r4, r7]
 173 0136 5046     		mov	r0, sl
 174 0138 FFF7FEFF 		bl	MULSHIFT32
 175 013c E21B     		subs	r2, r4, r7
 176 013e 0437     		adds	r7, r7, #4
 177 0140 043E     		subs	r6, r6, #4
 178 0142 242F     		cmp	r7, #36
 179 0144 5064     		str	r0, [r2, #68]
 180 0146 EBD1     		bne	.L6
 181              	.L3:
 182 0148 BDE8FE8F 		pop	{r1, r2, r3, r4, r5, r6, r7, r8, r9, sl, fp, pc}
 183              	.L9:
 184              		.align	2
 185              	.L8:
 186 014c 00000000 		.word	xmp3fixpt_imdctWin
 188              		.section	.text.FreqInvertRescale,"ax",%progbits
 189              		.align	1
 190              		.thumb
 191              		.thumb_func
 193              	FreqInvertRescale:
 194              		@ args = 0, pretend = 0, frame = 0
 195              		@ frame_needed = 0, uses_anonymous_args = 0
 196 0000 2DE9F84F 		push	{r3, r4, r5, r6, r7, r8, r9, sl, fp, lr}
 197 0004 0446     		mov	r4, r0
 198 0006 1D46     		mov	r5, r3
 199 0008 02F00106 		and	r6, r2, #1
 200 000c A3BB     		cbnz	r3, .L11
 201 000e 002E     		cmp	r6, #0
 202 0010 00F0A580 		beq	.L12
 203 0014 D0F88081 		ldr	r8, [r0, #384]
 204 0018 D0F880C2 		ldr	ip, [r0, #640]
 205 001c D0F88073 		ldr	r7, [r0, #896]
 206 0020 D0F88064 		ldr	r6, [r0, #1152]
 207 0024 D4F88016 		ldr	r1, [r4, #1664]
 208 0028 D0F88005 		ldr	r0, [r0, #1408]
 209 002c D4F88027 		ldr	r2, [r4, #1920]
 210 0030 D4F88038 		ldr	r3, [r4, #2176]
 211 0034 D4F88090 		ldr	r9, [r4, #128]
 212 0038 7642     		negs	r6, r6
 213 003a C9F10009 		rsb	r9, r9, #0
 214 003e C8F10008 		rsb	r8, r8, #0
 215 0042 CCF1000C 		rsb	ip, ip, #0
 216 0046 7F42     		negs	r7, r7
 217 0048 4042     		negs	r0, r0
 218 004a 4942     		negs	r1, r1
 219 004c 5242     		negs	r2, r2
 220 004e 5B42     		negs	r3, r3
 221 0050 C4F88064 		str	r6, [r4, #1152]
 222 0054 C4F88090 		str	r9, [r4, #128]
 223 0058 C4F88081 		str	r8, [r4, #384]
 224 005c C4F880C2 		str	ip, [r4, #640]
 225 0060 C4F88073 		str	r7, [r4, #896]
 226 0064 C4F88005 		str	r0, [r4, #1408]
 227 0068 C4F88016 		str	r1, [r4, #1664]
 228 006c C4F88027 		str	r2, [r4, #1920]
 229 0070 C4F88038 		str	r3, [r4, #2176]
 230 0074 2E46     		mov	r6, r5
 231 0076 72E0     		b	.L12
 232              	.L11:
 233 0078 C3F11F07 		rsb	r7, r3, #31
 234 007c 0123     		movs	r3, #1
 235 007e 03FA07FA 		lsl	sl, r3, r7
 236 0082 0AF1FF39 		add	r9, sl, #-1
 237 0086 8846     		mov	r8, r1
 238 0088 AEB3     		cbz	r6, .L13
 239 008a 00F5106A 		add	sl, r0, #2304
 240 008e 0026     		movs	r6, #0
 241              	.L17:
 242 0090 2068     		ldr	r0, [r4, #0]
 243 0092 C317     		asrs	r3, r0, #31
 244 0094 40FA07F1 		asr	r1, r0, r7
 245 0098 8B42     		cmp	r3, r1
 246 009a 18BF     		it	ne
 247 009c 83EA0900 		eorne	r0, r3, r9
 248 00a0 00FA05F0 		lsl	r0, r0, r5
 249 00a4 2060     		str	r0, [r4, #0]
 250 00a6 FFF7FEFF 		bl	FASTABS
 251 00aa D4F88020 		ldr	r2, [r4, #128]
 252 00ae 8346     		mov	fp, r0
 253 00b0 5042     		negs	r0, r2
 254 00b2 C317     		asrs	r3, r0, #31
 255 00b4 40FA07F1 		asr	r1, r0, r7
 256 00b8 8B42     		cmp	r3, r1
 257 00ba 18BF     		it	ne
 258 00bc 83EA0900 		eorne	r0, r3, r9
 259 00c0 00FA05F0 		lsl	r0, r0, r5
 260 00c4 C4F88000 		str	r0, [r4, #128]
 261 00c8 FFF7FEFF 		bl	FASTABS
 262 00cc 4BEA0002 		orr	r2, fp, r0
 263 00d0 58F8040B 		ldr	r0, [r8], #4
 264 00d4 C317     		asrs	r3, r0, #31
 265 00d6 40FA07F1 		asr	r1, r0, r7
 266 00da 8B42     		cmp	r3, r1
 267 00dc 18BF     		it	ne
 268 00de 83EA0900 		eorne	r0, r3, r9
 269 00e2 04F58074 		add	r4, r4, #256
 270 00e6 1643     		orrs	r6, r6, r2
 271 00e8 5445     		cmp	r4, sl
 272 00ea 00FA05F2 		lsl	r2, r0, r5
 273 00ee 48F8042C 		str	r2, [r8, #-4]
 274 00f2 CDD1     		bne	.L17
 275 00f4 33E0     		b	.L12
 276              	.L13:
 277 00f6 01F1240A 		add	sl, r1, #36
 278              	.L21:
 279 00fa 2168     		ldr	r1, [r4, #0]
 280 00fc C817     		asrs	r0, r1, #31
 281 00fe 41FA07F3 		asr	r3, r1, r7
 282 0102 9842     		cmp	r0, r3
 283 0104 18BF     		it	ne
 284 0106 80EA0901 		eorne	r1, r0, r9
 285 010a 01FA05F0 		lsl	r0, r1, r5
 286 010e 2060     		str	r0, [r4, #0]
 287 0110 FFF7FEFF 		bl	FASTABS
 288 0114 8346     		mov	fp, r0
 289 0116 D4F88000 		ldr	r0, [r4, #128]
 290 011a C317     		asrs	r3, r0, #31
 291 011c 40FA07F2 		asr	r2, r0, r7
 292 0120 9342     		cmp	r3, r2
 293 0122 18BF     		it	ne
 294 0124 83EA0900 		eorne	r0, r3, r9
 295 0128 00FA05F0 		lsl	r0, r0, r5
 296 012c C4F88000 		str	r0, [r4, #128]
 297 0130 FFF7FEFF 		bl	FASTABS
 298 0134 4BEA0001 		orr	r1, fp, r0
 299 0138 58F8040B 		ldr	r0, [r8], #4
 300 013c C317     		asrs	r3, r0, #31
 301 013e 40FA07FC 		asr	ip, r0, r7
 302 0142 6345     		cmp	r3, ip
 303 0144 18BF     		it	ne
 304 0146 83EA0900 		eorne	r0, r3, r9
 305 014a 00FA05F2 		lsl	r2, r0, r5
 306 014e D045     		cmp	r8, sl
 307 0150 46EA0106 		orr	r6, r6, r1
 308 0154 04F58074 		add	r4, r4, #256
 309 0158 48F8042C 		str	r2, [r8, #-4]
 310 015c CDD1     		bne	.L21
 311              	.L12:
 312 015e 3046     		mov	r0, r6
 313 0160 BDE8F88F 		pop	{r3, r4, r5, r6, r7, r8, r9, sl, fp, pc}
 315              		.section	.text.idct9,"ax",%progbits
 316              		.align	1
 317              		.thumb
 318              		.thumb_func
 320              	idct9:
 321              		@ args = 0, pretend = 0, frame = 32
 322              		@ frame_needed = 0, uses_anonymous_args = 0
 323 0000 2DE9F04F 		push	{r4, r5, r6, r7, r8, r9, sl, fp, lr}
 324 0004 0446     		mov	r4, r0
 325 0006 4268     		ldr	r2, [r0, #4]
 326 0008 D4F814C0 		ldr	ip, [r4, #20]
 327 000c D4F81CE0 		ldr	lr, [r4, #28]
 328 0010 2568     		ldr	r5, [r4, #0]
 329 0012 A769     		ldr	r7, [r4, #24]
 330 0014 8368     		ldr	r3, [r0, #8]
 331 0016 0069     		ldr	r0, [r0, #16]
 332 0018 216A     		ldr	r1, [r4, #32]
 333 001a 02EB0E08 		add	r8, r2, lr
 334 001e EE1B     		subs	r6, r5, r7
 335 0020 02EB0C07 		add	r7, r2, ip
 336 0024 CCEB0202 		rsb	r2, ip, r2
 337 0028 89B0     		sub	sp, sp, #36
 338 002a CEEB020B 		rsb	fp, lr, r2
 339 002e 1A1A     		subs	r2, r3, r0
 340 0030 1D18     		adds	r5, r3, r0
 341 0032 501A     		subs	r0, r2, r1
 342 0034 03EB0109 		add	r9, r3, r1
 343 0038 0690     		str	r0, [sp, #24]
 344 003a E168     		ldr	r1, [r4, #12]
 345 003c 4348     		ldr	r0, .L26
 346 003e 0596     		str	r6, [sp, #20]
 347 0040 FFF7FEFF 		bl	MULSHIFT32
 348 0044 5946     		mov	r1, fp
 349 0046 0346     		mov	r3, r0
 350 0048 4048     		ldr	r0, .L26
 351 004a 0493     		str	r3, [sp, #16]
 352 004c FFF7FEFF 		bl	MULSHIFT32
 353 0050 2946     		mov	r1, r5
 354 0052 0790     		str	r0, [sp, #28]
 355 0054 3E48     		ldr	r0, .L26+4
 356 0056 FFF7FEFF 		bl	MULSHIFT32
 357 005a 4946     		mov	r1, r9
 358 005c 8346     		mov	fp, r0
 359 005e 3D48     		ldr	r0, .L26+8
 360 0060 FFF7FEFF 		bl	MULSHIFT32
 361 0064 C5EB090A 		rsb	sl, r5, r9
 362 0068 5146     		mov	r1, sl
 363 006a 8146     		mov	r9, r0
 364 006c 3848     		ldr	r0, .L26+4
 365 006e FFF7FEFF 		bl	MULSHIFT32
 366 0072 2946     		mov	r1, r5
 367 0074 8246     		mov	sl, r0
 368 0076 3748     		ldr	r0, .L26+8
 369 0078 FFF7FEFF 		bl	MULSHIFT32
 370 007c C8EB0706 		rsb	r6, r8, r7
 371 0080 3146     		mov	r1, r6
 372 0082 0546     		mov	r5, r0
 373 0084 3448     		ldr	r0, .L26+12
 374 0086 FFF7FEFF 		bl	MULSHIFT32
 375 008a 4146     		mov	r1, r8
 376 008c 0290     		str	r0, [sp, #8]
 377 008e 3348     		ldr	r0, .L26+16
 378 0090 FFF7FEFF 		bl	MULSHIFT32
 379 0094 3946     		mov	r1, r7
 380 0096 8046     		mov	r8, r0
 381 0098 2F48     		ldr	r0, .L26+12
 382 009a FFF7FEFF 		bl	MULSHIFT32
 383 009e 3146     		mov	r1, r6
 384 00a0 0746     		mov	r7, r0
 385 00a2 2E48     		ldr	r0, .L26+16
 386 00a4 FFF7FEFF 		bl	MULSHIFT32
 387 00a8 A169     		ldr	r1, [r4, #24]
 388 00aa 2668     		ldr	r6, [r4, #0]
 389 00ac 049A     		ldr	r2, [sp, #16]
 390 00ae 06EB610C 		add	ip, r6, r1, asr #1
 391 00b2 5300     		lsls	r3, r2, #1
 392 00b4 0CEB0302 		add	r2, ip, r3
 393 00b8 4FEA4909 		lsl	r9, r9, #1
 394 00bc C3EB0C03 		rsb	r3, r3, ip
 395 00c0 DDF808C0 		ldr	ip, [sp, #8]
 396 00c4 069E     		ldr	r6, [sp, #24]
 397 00c6 0599     		ldr	r1, [sp, #20]
 398 00c8 09EB4B09 		add	r9, r9, fp, lsl #1
 399 00cc 4FEA4808 		lsl	r8, r8, #1
 400 00d0 08EB4C08 		add	r8, r8, ip, lsl #1
 401 00d4 02EB090B 		add	fp, r2, r9
 402 00d8 C5EB0A05 		rsb	r5, r5, sl
 403 00dc DDF81CA0 		ldr	sl, [sp, #28]
 404 00e0 6D00     		lsls	r5, r5, #1
 405 00e2 3F1A     		subs	r7, r7, r0
 406 00e4 0BEB0800 		add	r0, fp, r8
 407 00e8 01EB6601 		add	r1, r1, r6, asr #1
 408 00ec 7F00     		lsls	r7, r7, #1
 409 00ee 09EB0506 		add	r6, r9, r5
 410 00f2 2060     		str	r0, [r4, #0]
 411 00f4 4FEA4A00 		lsl	r0, sl, #1
 412 00f8 01EB000B 		add	fp, r1, r0
 413 00fc C8EB070C 		rsb	ip, r8, r7
 414 0100 03EB050A 		add	sl, r3, r5
 415 0104 0191     		str	r1, [sp, #4]
 416 0106 991B     		subs	r1, r3, r6
 417 0108 C4F804B0 		str	fp, [r4, #4]
 418 010c 0AEB070B 		add	fp, sl, r7
 419 0110 CCEB010A 		rsb	sl, ip, r1
 420 0114 C4F80CA0 		str	sl, [r4, #12]
 421 0118 0699     		ldr	r1, [sp, #24]
 422 011a DDF814A0 		ldr	sl, [sp, #20]
 423 011e C4F808B0 		str	fp, [r4, #8]
 424 0122 961B     		subs	r6, r2, r6
 425 0124 C1EB0A0B 		rsb	fp, r1, sl
 426 0128 5119     		adds	r1, r2, r5
 427 012a 019A     		ldr	r2, [sp, #4]
 428 012c C4F810B0 		str	fp, [r4, #16]
 429 0130 CF1B     		subs	r7, r1, r7
 430 0132 111A     		subs	r1, r2, r0
 431 0134 03EB0900 		add	r0, r3, r9
 432 0138 6644     		add	r6, r6, ip
 433 013a C8EB0003 		rsb	r3, r8, r0
 434 013e 6661     		str	r6, [r4, #20]
 435 0140 A761     		str	r7, [r4, #24]
 436 0142 E161     		str	r1, [r4, #28]
 437 0144 2362     		str	r3, [r4, #32]
 438 0146 09B0     		add	sp, sp, #36
 439 0148 BDE8F08F 		pop	{r4, r5, r6, r7, r8, r9, sl, fp, pc}
 440              	.L27:
 441              		.align	2
 442              	.L26:
 443 014c A1EBD96E 		.word	1859775393
 444 0150 8BBE0D62 		.word	1645067915
 445 0154 7E1A3A16 		.word	372906622
 446 0158 49DD4652 		.word	1380375881
 447 015c 322E0E7E 		.word	2114858546
 449              		.section	.text.imdct12,"ax",%progbits
 450              		.align	1
 451              		.thumb
 452              		.thumb_func
 454              	imdct12:
 455              		@ args = 0, pretend = 0, frame = 0
 456              		@ frame_needed = 0, uses_anonymous_args = 0
 457 0000 2DE9F84F 		push	{r3, r4, r5, r6, r7, r8, r9, sl, fp, lr}
 458 0004 C56B     		ldr	r5, [r0, #60]
 459 0006 066B     		ldr	r6, [r0, #48]
 460 0008 426A     		ldr	r2, [r0, #36]
 461 000a 0768     		ldr	r7, [r0, #0]
 462 000c C368     		ldr	r3, [r0, #12]
 463 000e 0C46     		mov	r4, r1
 464 0010 C5EB060B 		rsb	fp, r5, r6
 465 0014 8169     		ldr	r1, [r0, #24]
 466 0016 CBEB0200 		rsb	r0, fp, r2
 467 001a 091A     		subs	r1, r1, r0
 468 001c 5A1A     		subs	r2, r3, r1
 469 001e BB1A     		subs	r3, r7, r2
 470 0020 C5EB0009 		rsb	r9, r5, r0
 471 0024 1F48     		ldr	r0, .L29
 472 0026 C9EB0206 		rsb	r6, r9, r2
 473 002a 5F10     		asrs	r7, r3, #1
 474 002c FFF7FEFF 		bl	MULSHIFT32
 475 0030 07EB6B08 		add	r8, r7, fp, asr #1
 476 0034 4100     		lsls	r1, r0, #1
 477 0036 4FEA660A 		asr	sl, r6, #1
 478 003a 1A48     		ldr	r0, .L29
 479 003c CBEB0706 		rsb	r6, fp, r7
 480 0040 08EB0107 		add	r7, r8, r1
 481 0044 C1EB0808 		rsb	r8, r1, r8
 482 0048 4946     		mov	r1, r9
 483 004a FFF7FEFF 		bl	MULSHIFT32
 484 004e 0AEB650B 		add	fp, sl, r5, asr #1
 485 0052 4FEA4009 		lsl	r9, r0, #1
 486 0056 0BEB0901 		add	r1, fp, r9
 487 005a 1348     		ldr	r0, .L29+4
 488 005c FFF7FEFF 		bl	MULSHIFT32
 489 0060 C5EB0A05 		rsb	r5, r5, sl
 490 0064 2946     		mov	r1, r5
 491 0066 4FEA800A 		lsl	sl, r0, #2
 492 006a 1048     		ldr	r0, .L29+8
 493 006c FFF7FEFF 		bl	MULSHIFT32
 494 0070 C9EB0B01 		rsb	r1, r9, fp
 495 0074 8500     		lsls	r5, r0, #2
 496 0076 0E48     		ldr	r0, .L29+12
 497 0078 FFF7FEFF 		bl	MULSHIFT32
 498 007c 8100     		lsls	r1, r0, #2
 499 007e 07EB0A00 		add	r0, r7, sl
 500 0082 7219     		adds	r2, r6, r5
 501 0084 2060     		str	r0, [r4, #0]
 502 0086 08EB0103 		add	r3, r8, r1
 503 008a C1EB0800 		rsb	r0, r1, r8
 504 008e 761B     		subs	r6, r6, r5
 505 0090 CAEB0707 		rsb	r7, sl, r7
 506 0094 6260     		str	r2, [r4, #4]
 507 0096 A360     		str	r3, [r4, #8]
 508 0098 E060     		str	r0, [r4, #12]
 509 009a 2661     		str	r6, [r4, #16]
 510 009c 6761     		str	r7, [r4, #20]
 511 009e BDE8F88F 		pop	{r3, r4, r5, r6, r7, r8, r9, sl, fp, pc}
 512              	.L30:
 513 00a2 00BF     		.align	2
 514              	.L29:
 515 00a4 A1EBD96E 		.word	1859775393
 516 00a8 1D75A37B 		.word	2074309917
 517 00ac 9A79825A 		.word	1518500250
 518 00b0 83FB2021 		.word	555809667
 520              		.section	.text.xmp3fixpt_IMDCT,"ax",%progbits
 521              		.align	1
 522              		.global	xmp3fixpt_IMDCT
 523              		.thumb
 524              		.thumb_func
 526              	xmp3fixpt_IMDCT:
 527              		@ args = 0, pretend = 0, frame = 320
 528              		@ frame_needed = 0, uses_anonymous_args = 0
 529 0000 2DE9F04F 		push	{r4, r5, r6, r7, r8, r9, sl, fp, lr}
 530 0004 D1B0     		sub	sp, sp, #324
 531 0006 1491     		str	r1, [sp, #80]
 532 0008 0792     		str	r2, [sp, #28]
 533 000a 0028     		cmp	r0, #0
 534 000c 00F09D84 		beq	.L75
 535 0010 0368     		ldr	r3, [r0, #0]
 536 0012 002B     		cmp	r3, #0
 537 0014 00F09984 		beq	.L75
 538 0018 4468     		ldr	r4, [r0, #4]
 539 001a 0C94     		str	r4, [sp, #48]
 540 001c 002C     		cmp	r4, #0
 541 001e 00F09484 		beq	.L75
 542 0022 C668     		ldr	r6, [r0, #12]
 543 0024 002E     		cmp	r6, #0
 544 0026 00F09084 		beq	.L75
 545 002a 4069     		ldr	r0, [r0, #20]
 546 002c 0690     		str	r0, [sp, #24]
 547 002e 0028     		cmp	r0, #0
 548 0030 00F08B84 		beq	.L75
 549 0034 93F800C0 		ldrb	ip, [r3, #0]	@ zero_extendqisi2
 550 0038 5A6B     		ldr	r2, [r3, #52]
 551 003a BCF1000F 		cmp	ip, #0
 552 003e 14BF     		ite	ne
 553 0040 4FF00608 		movne	r8, #6
 554 0044 4FF00808 		moveq	r8, #8
 555 0048 9027     		movs	r7, #144
 556 004a 32F91850 		ldrsh	r5, [r2, r8, lsl #1]
 557 004e 1222     		movs	r2, #18
 558 0050 95FBF2FC 		sdiv	ip, r5, r2
 559 0054 079D     		ldr	r5, [sp, #28]
 560 0056 4F43     		muls	r7, r1, r7
 561 0058 4820     		movs	r0, #72
 562 005a 00FB0573 		mla	r3, r0, r5, r7
 563 005e E318     		adds	r3, r4, r3
 564 0060 D96B     		ldr	r1, [r3, #60]
 565 0062 0229     		cmp	r1, #2
 566 0064 12D0     		beq	.L34
 567 0066 05F59061 		add	r1, r5, #1152
 568 006a 40F22624 		movw	r4, #550
 569 006e 56F82150 		ldr	r5, [r6, r1, lsl #2]
 570 0072 A542     		cmp	r5, r4
 571 0074 05DC     		bgt	.L77
 572 0076 E81D     		adds	r0, r5, #7
 573 0078 90FBF2F7 		sdiv	r7, r0, r2
 574 007c 7B1C     		adds	r3, r7, #1
 575 007e 0493     		str	r3, [sp, #16]
 576 0080 01E0     		b	.L35
 577              	.L77:
 578 0082 2025     		movs	r5, #32
 579 0084 0495     		str	r5, [sp, #16]
 580              	.L35:
 581 0086 049A     		ldr	r2, [sp, #16]
 582 0088 531E     		subs	r3, r2, #1
 583 008a 08E0     		b	.L36
 584              	.L34:
 585 008c 1D6C     		ldr	r5, [r3, #64]
 586 008e 25B1     		cbz	r5, .L78
 587 0090 0CF1FF33 		add	r3, ip, #-1
 588 0094 CDF810C0 		str	ip, [sp, #16]
 589 0098 01E0     		b	.L36
 590              	.L78:
 591 009a 0495     		str	r5, [sp, #16]
 592 009c 2B46     		mov	r3, r5
 593              	.L36:
 594 009e 079F     		ldr	r7, [sp, #28]
 595 00a0 0596     		str	r6, [sp, #20]
 596 00a2 4FF41061 		mov	r1, #2304
 597 00a6 01FB0764 		mla	r4, r1, r7, r6
 598 00aa 0894     		str	r4, [sp, #32]
 599 00ac 1E46     		mov	r6, r3
 600 00ae 0BE1     		b	.L37
 601              	.L38:
 602 00b0 844D     		ldr	r5, .L96
 603 00b2 676C     		ldr	r7, [r4, #68]
 604 00b4 D5F800A0 		ldr	sl, [r5, #0]
 605 00b8 D4F84890 		ldr	r9, [r4, #72]
 606 00bc D5F80480 		ldr	r8, [r5, #4]
 607 00c0 CDF804C0 		str	ip, [sp, #4]
 608 00c4 3946     		mov	r1, r7
 609 00c6 5046     		mov	r0, sl
 610 00c8 0293     		str	r3, [sp, #8]
 611 00ca FFF7FEFF 		bl	MULSHIFT32
 612 00ce 4946     		mov	r1, r9
 613 00d0 8346     		mov	fp, r0
 614 00d2 4046     		mov	r0, r8
 615 00d4 FFF7FEFF 		bl	MULSHIFT32
 616 00d8 C0EB0B01 		rsb	r1, r0, fp
 617 00dc 4A00     		lsls	r2, r1, #1
 618 00de 6264     		str	r2, [r4, #68]
 619 00e0 4946     		mov	r1, r9
 620 00e2 5046     		mov	r0, sl
 621 00e4 FFF7FEFF 		bl	MULSHIFT32
 622 00e8 3946     		mov	r1, r7
 623 00ea 8146     		mov	r9, r0
 624 00ec 4046     		mov	r0, r8
 625 00ee FFF7FEFF 		bl	MULSHIFT32
 626 00f2 276C     		ldr	r7, [r4, #64]
 627 00f4 D5F808A0 		ldr	sl, [r5, #8]
 628 00f8 D5F80C80 		ldr	r8, [r5, #12]
 629 00fc 4844     		add	r0, r9, r0
 630 00fe 4300     		lsls	r3, r0, #1
 631 0100 A364     		str	r3, [r4, #72]
 632 0102 3946     		mov	r1, r7
 633 0104 5046     		mov	r0, sl
 634 0106 D4F84C90 		ldr	r9, [r4, #76]
 635 010a FFF7FEFF 		bl	MULSHIFT32
 636 010e 4946     		mov	r1, r9
 637 0110 8346     		mov	fp, r0
 638 0112 4046     		mov	r0, r8
 639 0114 FFF7FEFF 		bl	MULSHIFT32
 640 0118 C0EB0B01 		rsb	r1, r0, fp
 641 011c 4A00     		lsls	r2, r1, #1
 642 011e 2264     		str	r2, [r4, #64]
 643 0120 4946     		mov	r1, r9
 644 0122 5046     		mov	r0, sl
 645 0124 FFF7FEFF 		bl	MULSHIFT32
 646 0128 3946     		mov	r1, r7
 647 012a 8146     		mov	r9, r0
 648 012c 4046     		mov	r0, r8
 649 012e FFF7FEFF 		bl	MULSHIFT32
 650 0132 E76B     		ldr	r7, [r4, #60]
 651 0134 D5F810A0 		ldr	sl, [r5, #16]
 652 0138 D5F81480 		ldr	r8, [r5, #20]
 653 013c 4844     		add	r0, r9, r0
 654 013e 4300     		lsls	r3, r0, #1
 655 0140 E364     		str	r3, [r4, #76]
 656 0142 3946     		mov	r1, r7
 657 0144 5046     		mov	r0, sl
 658 0146 D4F85090 		ldr	r9, [r4, #80]
 659 014a FFF7FEFF 		bl	MULSHIFT32
 660 014e 4946     		mov	r1, r9
 661 0150 8346     		mov	fp, r0
 662 0152 4046     		mov	r0, r8
 663 0154 FFF7FEFF 		bl	MULSHIFT32
 664 0158 C0EB0B01 		rsb	r1, r0, fp
 665 015c 4A00     		lsls	r2, r1, #1
 666 015e E263     		str	r2, [r4, #60]
 667 0160 4946     		mov	r1, r9
 668 0162 5046     		mov	r0, sl
 669 0164 FFF7FEFF 		bl	MULSHIFT32
 670 0168 3946     		mov	r1, r7
 671 016a 8146     		mov	r9, r0
 672 016c 4046     		mov	r0, r8
 673 016e FFF7FEFF 		bl	MULSHIFT32
 674 0172 A76B     		ldr	r7, [r4, #56]
 675 0174 D5F818A0 		ldr	sl, [r5, #24]
 676 0178 D5F81C80 		ldr	r8, [r5, #28]
 677 017c 4844     		add	r0, r9, r0
 678 017e 4300     		lsls	r3, r0, #1
 679 0180 2365     		str	r3, [r4, #80]
 680 0182 3946     		mov	r1, r7
 681 0184 5046     		mov	r0, sl
 682 0186 D4F85490 		ldr	r9, [r4, #84]
 683 018a FFF7FEFF 		bl	MULSHIFT32
 684 018e 4946     		mov	r1, r9
 685 0190 8346     		mov	fp, r0
 686 0192 4046     		mov	r0, r8
 687 0194 FFF7FEFF 		bl	MULSHIFT32
 688 0198 C0EB0B01 		rsb	r1, r0, fp
 689 019c 4A00     		lsls	r2, r1, #1
 690 019e A263     		str	r2, [r4, #56]
 691 01a0 4946     		mov	r1, r9
 692 01a2 5046     		mov	r0, sl
 693 01a4 FFF7FEFF 		bl	MULSHIFT32
 694 01a8 3946     		mov	r1, r7
 695 01aa 8146     		mov	r9, r0
 696 01ac 4046     		mov	r0, r8
 697 01ae FFF7FEFF 		bl	MULSHIFT32
 698 01b2 676B     		ldr	r7, [r4, #52]
 699 01b4 D5F820A0 		ldr	sl, [r5, #32]
 700 01b8 D5F82480 		ldr	r8, [r5, #36]
 701 01bc 4844     		add	r0, r9, r0
 702 01be 4300     		lsls	r3, r0, #1
 703 01c0 6365     		str	r3, [r4, #84]
 704 01c2 3946     		mov	r1, r7
 705 01c4 5046     		mov	r0, sl
 706 01c6 D4F85890 		ldr	r9, [r4, #88]
 707 01ca FFF7FEFF 		bl	MULSHIFT32
 708 01ce 4946     		mov	r1, r9
 709 01d0 8346     		mov	fp, r0
 710 01d2 4046     		mov	r0, r8
 711 01d4 FFF7FEFF 		bl	MULSHIFT32
 712 01d8 C0EB0B01 		rsb	r1, r0, fp
 713 01dc 4A00     		lsls	r2, r1, #1
 714 01de 6263     		str	r2, [r4, #52]
 715 01e0 4946     		mov	r1, r9
 716 01e2 5046     		mov	r0, sl
 717 01e4 FFF7FEFF 		bl	MULSHIFT32
 718 01e8 3946     		mov	r1, r7
 719 01ea 8146     		mov	r9, r0
 720 01ec 4046     		mov	r0, r8
 721 01ee FFF7FEFF 		bl	MULSHIFT32
 722 01f2 276B     		ldr	r7, [r4, #48]
 723 01f4 D5F828A0 		ldr	sl, [r5, #40]
 724 01f8 D5F82C80 		ldr	r8, [r5, #44]
 725 01fc 4844     		add	r0, r9, r0
 726 01fe 4300     		lsls	r3, r0, #1
 727 0200 A365     		str	r3, [r4, #88]
 728 0202 3946     		mov	r1, r7
 729 0204 5046     		mov	r0, sl
 730 0206 D4F85C90 		ldr	r9, [r4, #92]
 731 020a FFF7FEFF 		bl	MULSHIFT32
 732 020e 4946     		mov	r1, r9
 733 0210 8346     		mov	fp, r0
 734 0212 4046     		mov	r0, r8
 735 0214 FFF7FEFF 		bl	MULSHIFT32
 736 0218 C0EB0B01 		rsb	r1, r0, fp
 737 021c 4A00     		lsls	r2, r1, #1
 738 021e 2263     		str	r2, [r4, #48]
 739 0220 4946     		mov	r1, r9
 740 0222 5046     		mov	r0, sl
 741 0224 FFF7FEFF 		bl	MULSHIFT32
 742 0228 3946     		mov	r1, r7
 743 022a 8346     		mov	fp, r0
 744 022c 4046     		mov	r0, r8
 745 022e FFF7FEFF 		bl	MULSHIFT32
 746 0232 E76A     		ldr	r7, [r4, #44]
 747 0234 D5F830A0 		ldr	sl, [r5, #48]
 748 0238 D4F86090 		ldr	r9, [r4, #96]
 749 023c D5F83480 		ldr	r8, [r5, #52]
 750 0240 5844     		add	r0, fp, r0
 751 0242 4300     		lsls	r3, r0, #1
 752 0244 E365     		str	r3, [r4, #92]
 753 0246 3946     		mov	r1, r7
 754 0248 5046     		mov	r0, sl
 755 024a FFF7FEFF 		bl	MULSHIFT32
 756 024e 4946     		mov	r1, r9
 757 0250 8346     		mov	fp, r0
 758 0252 4046     		mov	r0, r8
 759 0254 FFF7FEFF 		bl	MULSHIFT32
 760 0258 C0EB0B01 		rsb	r1, r0, fp
 761 025c 4A00     		lsls	r2, r1, #1
 762 025e E262     		str	r2, [r4, #44]
 763 0260 4946     		mov	r1, r9
 764 0262 5046     		mov	r0, sl
 765 0264 FFF7FEFF 		bl	MULSHIFT32
 766 0268 3946     		mov	r1, r7
 767 026a 8146     		mov	r9, r0
 768 026c 4046     		mov	r0, r8
 769 026e FFF7FEFF 		bl	MULSHIFT32
 770 0272 A76A     		ldr	r7, [r4, #40]
 771 0274 D4F86480 		ldr	r8, [r4, #100]
 772 0278 4844     		add	r0, r9, r0
 773 027a D5F83890 		ldr	r9, [r5, #56]
 774 027e ED6B     		ldr	r5, [r5, #60]
 775 0280 4300     		lsls	r3, r0, #1
 776 0282 2366     		str	r3, [r4, #96]
 777 0284 3946     		mov	r1, r7
 778 0286 4846     		mov	r0, r9
 779 0288 FFF7FEFF 		bl	MULSHIFT32
 780 028c 4146     		mov	r1, r8
 781 028e 8246     		mov	sl, r0
 782 0290 2846     		mov	r0, r5
 783 0292 FFF7FEFF 		bl	MULSHIFT32
 784 0296 C0EB0A01 		rsb	r1, r0, sl
 785 029a 4A00     		lsls	r2, r1, #1
 786 029c A262     		str	r2, [r4, #40]
 787 029e 4146     		mov	r1, r8
 788 02a0 4846     		mov	r0, r9
 789 02a2 FFF7FEFF 		bl	MULSHIFT32
 790 02a6 3946     		mov	r1, r7
 791 02a8 8046     		mov	r8, r0
 792 02aa 2846     		mov	r0, r5
 793 02ac FFF7FEFF 		bl	MULSHIFT32
 794 02b0 4044     		add	r0, r8, r0
 795 02b2 4300     		lsls	r3, r0, #1
 796 02b4 6366     		str	r3, [r4, #100]
 797 02b6 DDF804C0 		ldr	ip, [sp, #4]
 798 02ba 029B     		ldr	r3, [sp, #8]
 799 02bc 013E     		subs	r6, r6, #1
 800 02be 4834     		adds	r4, r4, #72
 801 02c0 02E0     		b	.L97
 802              	.L98:
 803 02c2 00BF     		.align	2
 804              	.L96:
 805 02c4 00000000 		.word	xmp3fixpt_csa
 806              	.L97:
 807              	.L37:
 808 02c8 002E     		cmp	r6, #0
 809 02ca 3FF7F1AE 		bgt	.L38
 810 02ce 079A     		ldr	r2, [sp, #28]
 811 02d0 059E     		ldr	r6, [sp, #20]
 812 02d2 0698     		ldr	r0, [sp, #24]
 813 02d4 02F59067 		add	r7, r2, #1152
 814 02d8 1221     		movs	r1, #18
 815 02da 56F82750 		ldr	r5, [r6, r7, lsl #2]
 816 02de 4B43     		muls	r3, r1, r3
 817 02e0 0833     		adds	r3, r3, #8
 818 02e2 AB42     		cmp	r3, r5
 819 02e4 B8BF     		it	lt
 820 02e6 2B46     		movlt	r3, r5
 821 02e8 46F82730 		str	r3, [r6, r7, lsl #2]
 822 02ec 1133     		adds	r3, r3, #17
 823 02ee 93FBF1F3 		sdiv	r3, r3, r1
 824 02f2 1893     		str	r3, [sp, #96]
 825 02f4 02F5D863 		add	r3, r2, #1728
 826 02f8 9D1C     		adds	r5, r3, #2
 827 02fa 069A     		ldr	r2, [sp, #24]
 828 02fc 50F82340 		ldr	r4, [r0, r3, lsl #2]
 829 0300 52F82510 		ldr	r1, [r2, r5, lsl #2]
 830 0304 149D     		ldr	r5, [sp, #80]
 831 0306 1994     		str	r4, [sp, #100]
 832 0308 181D     		adds	r0, r3, #4
 833 030a 9023     		movs	r3, #144
 834 030c 6B43     		muls	r3, r5, r3
 835 030e 079D     		ldr	r5, [sp, #28]
 836 0310 52F82040 		ldr	r4, [r2, r0, lsl #2]
 837 0314 1291     		str	r1, [sp, #72]
 838 0316 0C9A     		ldr	r2, [sp, #48]
 839 0318 1394     		str	r4, [sp, #76]
 840 031a 4821     		movs	r1, #72
 841 031c 01FB0538 		mla	r8, r1, r5, r3
 842 0320 02EB0800 		add	r0, r2, r8
 843 0324 B91C     		adds	r1, r7, #2
 844 0326 046C     		ldr	r4, [r0, #64]
 845 0328 56F82120 		ldr	r2, [r6, r1, lsl #2]
 846 032c 002C     		cmp	r4, #0
 847 032e 14BF     		ite	ne
 848 0330 6346     		movne	r3, ip
 849 0332 0023     		moveq	r3, #0
 850 0334 069C     		ldr	r4, [sp, #24]
 851 0336 0E92     		str	r2, [sp, #56]
 852 0338 4FF49067 		mov	r7, #1152
 853 033c 07FB0540 		mla	r0, r7, r5, r4
 854 0340 00F59056 		add	r6, r0, #4608
 855 0344 1793     		str	r3, [sp, #92]
 856 0346 0C9A     		ldr	r2, [sp, #48]
 857 0348 0E98     		ldr	r0, [sp, #56]
 858 034a 0D96     		str	r6, [sp, #52]
 859 034c 4FF41063 		mov	r3, #2304
 860 0350 03FB0541 		mla	r1, r3, r5, r4
 861 0354 0E9D     		ldr	r5, [sp, #56]
 862 0356 089B     		ldr	r3, [sp, #32]
 863 0358 0F91     		str	r1, [sp, #60]
 864 035a C0F10706 		rsb	r6, r0, #7
 865 035e 02F1280C 		add	ip, r2, #40
 866 0362 0CEB0807 		add	r7, ip, r8
 867 0366 1096     		str	r6, [sp, #64]
 868 0368 0024     		movs	r4, #0
 869 036a 062D     		cmp	r5, #6
 870 036c C8BF     		it	gt
 871 036e 0026     		movgt	r6, #0
 872 0370 1596     		str	r6, [sp, #84]
 873 0372 1197     		str	r7, [sp, #68]
 874 0374 0F9E     		ldr	r6, [sp, #60]
 875 0376 0D9D     		ldr	r5, [sp, #52]
 876 0378 0593     		str	r3, [sp, #20]
 877 037a A046     		mov	r8, r4
 878 037c 0994     		str	r4, [sp, #36]
 879 037e 2CE1     		b	.L42
 880              	.L53:
 881 0380 1198     		ldr	r0, [sp, #68]
 882 0382 8469     		ldr	r4, [r0, #24]
 883 0384 4769     		ldr	r7, [r0, #20]
 884 0386 1CB1     		cbz	r4, .L43
 885 0388 179A     		ldr	r2, [sp, #92]
 886 038a 9045     		cmp	r8, r2
 887 038c B8BF     		it	lt
 888 038e 0027     		movlt	r7, #0
 889              	.L43:
 890 0390 139B     		ldr	r3, [sp, #76]
 891 0392 129C     		ldr	r4, [sp, #72]
 892 0394 0E98     		ldr	r0, [sp, #56]
 893 0396 0599     		ldr	r1, [sp, #20]
 894 0398 9845     		cmp	r8, r3
 895 039a B8BF     		it	lt
 896 039c 0024     		movlt	r4, #0
 897 039e 0628     		cmp	r0, #6
 898 03a0 01F14403 		add	r3, r1, #68
 899 03a4 0DF1B00E 		add	lr, sp, #176
 900 03a8 26DC     		bgt	.L45
 901 03aa 7046     		mov	r0, lr
 902 03ac DDF814E0 		ldr	lr, [sp, #20]
 903 03b0 DDF84090 		ldr	r9, [sp, #64]
 904 03b4 0022     		movs	r2, #0
 905 03b6 AEF1040C 		sub	ip, lr, #4
 906 03ba 2946     		mov	r1, r5
 907 03bc 9646     		mov	lr, r2
 908              	.L46:
 909 03be D3F800B0 		ldr	fp, [r3, #0]
 910 03c2 4BFA09FA 		asr	sl, fp, r9
 911 03c6 53F804BC 		ldr	fp, [r3, #-4]
 912 03ca CEEB0A0E 		rsb	lr, lr, sl
 913 03ce 4BFA09FA 		asr	sl, fp, r9
 914 03d2 C2EB0E02 		rsb	r2, r2, lr
 915 03d6 CEEB0A0E 		rsb	lr, lr, sl
 916 03da 4264     		str	r2, [r0, #68]
 917 03dc C0F820E0 		str	lr, [r0, #32]
 918 03e0 D1F820B0 		ldr	fp, [r1, #32]
 919 03e4 083B     		subs	r3, r3, #8
 920 03e6 4BFA09FA 		asr	sl, fp, r9
 921 03ea C1F820A0 		str	sl, [r1, #32]
 922 03ee 0438     		subs	r0, r0, #4
 923 03f0 0439     		subs	r1, r1, #4
 924 03f2 6345     		cmp	r3, ip
 925 03f4 E3D1     		bne	.L46
 926 03f6 12E0     		b	.L47
 927              	.L45:
 928 03f8 0023     		movs	r3, #0
 929 03fa 35AA     		add	r2, sp, #212
 930 03fc 1846     		mov	r0, r3
 931              	.L48:
 932 03fe D1F844A0 		ldr	sl, [r1, #68]
 933 0402 D1F840C0 		ldr	ip, [r1, #64]
 934 0406 C0EB0A09 		rsb	r9, r0, sl
 935 040a C3EB0903 		rsb	r3, r3, r9
 936 040e C9EB0C00 		rsb	r0, r9, ip
 937 0412 1362     		str	r3, [r2, #32]
 938 0414 42F8040D 		str	r0, [r2, #-4]!
 939 0418 0839     		subs	r1, r1, #8
 940 041a 7245     		cmp	r2, lr
 941 041c EFD1     		bne	.L48
 942              	.L47:
 943 041e 359B     		ldr	r3, [sp, #212]
 944 0420 2C9A     		ldr	r2, [sp, #176]
 945 0422 5810     		asrs	r0, r3, #1
 946 0424 3590     		str	r0, [sp, #212]
 947 0426 50A8     		add	r0, sp, #320
 948 0428 5110     		asrs	r1, r2, #1
 949 042a 40F8901D 		str	r1, [r0, #-144]!
 950 042e FFF7FEFF 		bl	idct9
 951 0432 35A8     		add	r0, sp, #212
 952 0434 FFF7FEFF 		bl	idct9
 953 0438 002C     		cmp	r4, #0
 954 043a 55D1     		bne	.L49
 955 043c 002F     		cmp	r7, #0
 956 043e 53D1     		bne	.L49
 957 0440 8249     		ldr	r1, .L99
 958 0442 DFF81492 		ldr	r9, .L99+12
 959 0446 CDF82C80 		str	r8, [sp, #44]
 960 044a B346     		mov	fp, r6
 961 044c AA46     		mov	sl, r5
 962 044e 34AC     		add	r4, sp, #208
 963 0450 0A91     		str	r1, [sp, #40]
 964 0452 B846     		mov	r8, r7
 965              	.L50:
 966 0454 0A9B     		ldr	r3, [sp, #40]
 967 0456 616A     		ldr	r1, [r4, #36]
 968 0458 53F80409 		ldr	r0, [r3], #-4
 969 045c 54F80429 		ldr	r2, [r4], #-4
 970 0460 0A93     		str	r3, [sp, #40]
 971 0462 0392     		str	r2, [sp, #12]
 972 0464 FFF7FEFF 		bl	MULSHIFT32
 973 0468 039B     		ldr	r3, [sp, #12]
 974 046a 9910     		asrs	r1, r3, #2
 975 046c DAF80030 		ldr	r3, [sl, #0]
 976 0470 421A     		subs	r2, r0, r1
 977 0472 0918     		adds	r1, r1, r0
 978 0474 4AF8041B 		str	r1, [sl], #4
 979 0478 5842     		negs	r0, r3
 980 047a C2EB000C 		rsb	ip, r2, r0
 981 047e D9F80010 		ldr	r1, [r9, #0]
 982 0482 0293     		str	r3, [sp, #8]
 983 0484 6046     		mov	r0, ip
 984 0486 0392     		str	r2, [sp, #12]
 985 0488 CDF804C0 		str	ip, [sp, #4]
 986 048c FFF7FEFF 		bl	MULSHIFT32
 987 0490 DDF804C0 		ldr	ip, [sp, #4]
 988 0494 0399     		ldr	r1, [sp, #12]
 989 0496 01EB8002 		add	r2, r1, r0, lsl #2
 990 049a D9F80410 		ldr	r1, [r9, #4]
 991 049e 0392     		str	r2, [sp, #12]
 992 04a0 6046     		mov	r0, ip
 993 04a2 FFF7FEFF 		bl	MULSHIFT32
 994 04a6 029B     		ldr	r3, [sp, #8]
 995 04a8 039A     		ldr	r2, [sp, #12]
 996 04aa 8000     		lsls	r0, r0, #2
 997 04ac C11A     		subs	r1, r0, r3
 998 04ae F251     		str	r2, [r6, r7]
 999 04b0 1046     		mov	r0, r2
 1000 04b2 CBF88018 		str	r1, [fp, #2176]
 1001 04b6 0391     		str	r1, [sp, #12]
 1002 04b8 FFF7FEFF 		bl	FASTABS
 1003 04bc 0346     		mov	r3, r0
 1004 04be 0398     		ldr	r0, [sp, #12]
 1005 04c0 0393     		str	r3, [sp, #12]
 1006 04c2 FFF7FEFF 		bl	FASTABS
 1007 04c6 039A     		ldr	r2, [sp, #12]
 1008 04c8 8037     		adds	r7, r7, #128
 1009 04ca 40EA020C 		orr	ip, r0, r2
 1010 04ce B7F5906F 		cmp	r7, #1152
 1011 04d2 09F10809 		add	r9, r9, #8
 1012 04d6 48EA0C08 		orr	r8, r8, ip
 1013 04da ABF1800B 		sub	fp, fp, #128
 1014 04de B9D1     		bne	.L50
 1015 04e0 4446     		mov	r4, r8
 1016 04e2 DDF82C80 		ldr	r8, [sp, #44]
 1017 04e6 66E0     		b	.L51
 1018              	.L49:
 1019 04e8 2846     		mov	r0, r5
 1020 04ea 2246     		mov	r2, r4
 1021 04ec 3EA9     		add	r1, sp, #248
 1022 04ee 584C     		ldr	r4, .L99+4
 1023 04f0 FFF7FEFF 		bl	WinPrevious
 1024 04f4 9020     		movs	r0, #144
 1025 04f6 00FB0747 		mla	r7, r0, r7, r4
 1026 04fa 0A97     		str	r7, [sp, #40]
 1027 04fc 0DF1D00B 		add	fp, sp, #208
 1028 0500 0027     		movs	r7, #0
 1029 0502 CDF85880 		str	r8, [sp, #88]
 1030 0506 B246     		mov	sl, r6
 1031 0508 0B95     		str	r5, [sp, #44]
 1032 050a B946     		mov	r9, r7
 1033 050c B846     		mov	r8, r7
 1034 050e 5C46     		mov	r4, fp
 1035              	.L52:
 1036 0510 504A     		ldr	r2, .L99+8
 1037 0512 616A     		ldr	r1, [r4, #36]
 1038 0514 54F804B9 		ldr	fp, [r4], #-4
 1039 0518 02EB0903 		add	r3, r2, r9
 1040 051c 186A     		ldr	r0, [r3, #32]
 1041 051e FFF7FEFF 		bl	MULSHIFT32
 1042 0522 4FEAAB0C 		asr	ip, fp, #2
 1043 0526 0B99     		ldr	r1, [sp, #44]
 1044 0528 DDF828E0 		ldr	lr, [sp, #40]
 1045 052c C0EB0C03 		rsb	r3, r0, ip
 1046 0530 6044     		add	r0, ip, r0
 1047 0532 41F8040B 		str	r0, [r1], #4
 1048 0536 3EAA     		add	r2, sp, #248
 1049 0538 0B91     		str	r1, [sp, #44]
 1050 053a 1846     		mov	r0, r3
 1051 053c 5EF80710 		ldr	r1, [lr, r7]
 1052 0540 57F802B0 		ldr	fp, [r7, r2]
 1053 0544 0392     		str	r2, [sp, #12]
 1054 0546 0293     		str	r3, [sp, #8]
 1055 0548 FFF7FEFF 		bl	MULSHIFT32
 1056 054c 039A     		ldr	r2, [sp, #12]
 1057 054e 0BEB0003 		add	r3, fp, r0
 1058 0552 0A98     		ldr	r0, [sp, #40]
 1059 0554 4FEA830C 		lsl	ip, r3, #2
 1060 0558 02EB0901 		add	r1, r2, r9
 1061 055c 029B     		ldr	r3, [sp, #8]
 1062 055e D1F844B0 		ldr	fp, [r1, #68]
 1063 0562 00EB0902 		add	r2, r0, r9
 1064 0566 1846     		mov	r0, r3
 1065 0568 516C     		ldr	r1, [r2, #68]
 1066 056a CDF804C0 		str	ip, [sp, #4]
 1067 056e FFF7FEFF 		bl	MULSHIFT32
 1068 0572 DDF804C0 		ldr	ip, [sp, #4]
 1069 0576 0BEB0001 		add	r1, fp, r0
 1070 057a 7801     		lsls	r0, r7, #5
 1071 057c 4FEA810B 		lsl	fp, r1, #2
 1072 0580 46F800C0 		str	ip, [r6, r0]
 1073 0584 CAF880B8 		str	fp, [sl, #2176]
 1074 0588 6046     		mov	r0, ip
 1075 058a FFF7FEFF 		bl	FASTABS
 1076 058e 0346     		mov	r3, r0
 1077 0590 5846     		mov	r0, fp
 1078 0592 0393     		str	r3, [sp, #12]
 1079 0594 FFF7FEFF 		bl	FASTABS
 1080 0598 039A     		ldr	r2, [sp, #12]
 1081 059a 0437     		adds	r7, r7, #4
 1082 059c 40EA0201 		orr	r1, r0, r2
 1083 05a0 242F     		cmp	r7, #36
 1084 05a2 48EA0108 		orr	r8, r8, r1
 1085 05a6 A9F10409 		sub	r9, r9, #4
 1086 05aa AAF1800A 		sub	sl, sl, #128
 1087 05ae AFD1     		bne	.L52
 1088 05b0 4446     		mov	r4, r8
 1089 05b2 DDF85880 		ldr	r8, [sp, #88]
 1090              	.L51:
 1091 05b6 2946     		mov	r1, r5
 1092 05b8 3046     		mov	r0, r6
 1093 05ba 4246     		mov	r2, r8
 1094 05bc 159B     		ldr	r3, [sp, #84]
 1095 05be FFF7FEFF 		bl	FreqInvertRescale
 1096 05c2 0999     		ldr	r1, [sp, #36]
 1097 05c4 059F     		ldr	r7, [sp, #20]
 1098 05c6 2043     		orrs	r0, r0, r4
 1099 05c8 41EA0004 		orr	r4, r1, r0
 1100 05cc 4837     		adds	r7, r7, #72
 1101 05ce 0994     		str	r4, [sp, #36]
 1102 05d0 0597     		str	r7, [sp, #20]
 1103 05d2 2435     		adds	r5, r5, #36
 1104 05d4 08F10108 		add	r8, r8, #1
 1105 05d8 0436     		adds	r6, r6, #4
 1106              	.L42:
 1107 05da 049B     		ldr	r3, [sp, #16]
 1108 05dc 9845     		cmp	r8, r3
 1109 05de FFF6CFAE 		blt	.L53
 1110 05e2 049D     		ldr	r5, [sp, #16]
 1111 05e4 0F9C     		ldr	r4, [sp, #60]
 1112 05e6 0898     		ldr	r0, [sp, #32]
 1113 05e8 0D99     		ldr	r1, [sp, #52]
 1114 05ea 25EAE575 		bic	r5, r5, r5, asr #31
 1115 05ee 4827     		movs	r7, #72
 1116 05f0 2426     		movs	r6, #36
 1117 05f2 04EB8502 		add	r2, r4, r5, lsl #2
 1118 05f6 07FB0507 		mla	r7, r7, r5, r0
 1119 05fa 06FB0516 		mla	r6, r6, r5, r1
 1120 05fe 0592     		str	r2, [sp, #20]
 1121 0600 0CE1     		b	.L54
 1122              	.L60:
 1123 0602 129C     		ldr	r4, [sp, #72]
 1124 0604 139A     		ldr	r2, [sp, #76]
 1125 0606 0E9B     		ldr	r3, [sp, #56]
 1126 0608 9542     		cmp	r5, r2
 1127 060a B8BF     		it	lt
 1128 060c 0024     		movlt	r4, #0
 1129 060e 062B     		cmp	r3, #6
 1130 0610 24DC     		bgt	.L82
 1131 0612 1098     		ldr	r0, [sp, #64]
 1132 0614 3A46     		mov	r2, r7
 1133 0616 3146     		mov	r1, r6
 1134 0618 0023     		movs	r3, #0
 1135              	.L57:
 1136 061a 57F803B0 		ldr	fp, [r7, r3]
 1137 061e 4BFA00FC 		asr	ip, fp, r0
 1138 0622 47F803C0 		str	ip, [r7, r3]
 1139 0626 D2F804E0 		ldr	lr, [r2, #4]
 1140 062a 4EFA00FA 		asr	sl, lr, r0
 1141 062e C2F804A0 		str	sl, [r2, #4]
 1142 0632 D1F80090 		ldr	r9, [r1, #0]
 1143 0636 0833     		adds	r3, r3, #8
 1144 0638 49FA00F8 		asr	r8, r9, r0
 1145 063c 0832     		adds	r2, r2, #8
 1146 063e 482B     		cmp	r3, #72
 1147 0640 41F8048B 		str	r8, [r1], #4
 1148 0644 E9D1     		bne	.L57
 1149 0646 1099     		ldr	r1, [sp, #64]
 1150 0648 0D91     		str	r1, [sp, #52]
 1151 064a 09E0     		b	.L56
 1152              	.L100:
 1153              		.align	2
 1154              	.L99:
 1155 064c 20000000 		.word	.LANCHOR1+32
 1156 0650 00000000 		.word	xmp3fixpt_imdctWin
 1157 0654 00000000 		.word	.LANCHOR1
 1158 0658 00000000 		.word	.LANCHOR0
 1159              	.L82:
 1160 065c 0020     		movs	r0, #0
 1161 065e 0D90     		str	r0, [sp, #52]
 1162              	.L56:
 1163 0660 3846     		mov	r0, r7
 1164 0662 3EA9     		add	r1, sp, #248
 1165 0664 FFF7FEFF 		bl	imdct12
 1166 0668 381D     		adds	r0, r7, #4
 1167 066a 44A9     		add	r1, sp, #272
 1168 066c FFF7FEFF 		bl	imdct12
 1169 0670 DFF8E0A2 		ldr	sl, .L101
 1170 0674 07F10800 		add	r0, r7, #8
 1171 0678 4AA9     		add	r1, sp, #296
 1172 067a FFF7FEFF 		bl	imdct12
 1173 067e 2246     		mov	r2, r4
 1174 0680 3046     		mov	r0, r6
 1175 0682 2CA9     		add	r1, sp, #176
 1176 0684 FFF7FEFF 		bl	WinPrevious
 1177 0688 0DF1B008 		add	r8, sp, #176
 1178 068c 3EAB     		add	r3, sp, #248
 1179 068e 5246     		mov	r2, sl
 1180 0690 4FF00009 		mov	r9, #0
 1181 0694 059C     		ldr	r4, [sp, #20]
 1182 0696 1697     		str	r7, [sp, #88]
 1183 0698 B346     		mov	fp, r6
 1184 069a AA46     		mov	sl, r5
 1185 069c 0493     		str	r3, [sp, #16]
 1186 069e CDF82090 		str	r9, [sp, #32]
 1187 06a2 4746     		mov	r7, r8
 1188 06a4 1E46     		mov	r6, r3
 1189 06a6 1546     		mov	r5, r2
 1190              	.L58:
 1191 06a8 0DF1B00E 		add	lr, sp, #176
 1192 06ac 59F80E30 		ldr	r3, [r9, lr]
 1193 06b0 4FEA8308 		lsl	r8, r3, #2
 1194 06b4 4046     		mov	r0, r8
 1195 06b6 FFF7FEFF 		bl	FASTABS
 1196 06ba C4F80080 		str	r8, [r4, #0]
 1197 06be F968     		ldr	r1, [r7, #12]
 1198 06c0 1190     		str	r0, [sp, #68]
 1199 06c2 4FEA8108 		lsl	r8, r1, #2
 1200 06c6 4046     		mov	r0, r8
 1201 06c8 FFF7FEFF 		bl	FASTABS
 1202 06cc C4F88081 		str	r8, [r4, #384]
 1203 06d0 D5F82021 		ldr	r2, [r5, #288]
 1204 06d4 0A90     		str	r0, [sp, #40]
 1205 06d6 B869     		ldr	r0, [r7, #24]
 1206 06d8 F168     		ldr	r1, [r6, #12]
 1207 06da 0392     		str	r2, [sp, #12]
 1208 06dc 4FEA8008 		lsl	r8, r0, #2
 1209 06e0 1046     		mov	r0, r2
 1210 06e2 FFF7FEFF 		bl	MULSHIFT32
 1211 06e6 8044     		add	r8, r8, r0
 1212 06e8 4046     		mov	r0, r8
 1213 06ea FFF7FEFF 		bl	FASTABS
 1214 06ee C4F80083 		str	r8, [r4, #768]
 1215 06f2 D5F82CC1 		ldr	ip, [r5, #300]
 1216 06f6 0499     		ldr	r1, [sp, #16]
 1217 06f8 7B6A     		ldr	r3, [r7, #36]
 1218 06fa 4969     		ldr	r1, [r1, #20]
 1219 06fc 0B90     		str	r0, [sp, #44]
 1220 06fe 6046     		mov	r0, ip
 1221 0700 CDF804C0 		str	ip, [sp, #4]
 1222 0704 4FEA8308 		lsl	r8, r3, #2
 1223 0708 FFF7FEFF 		bl	MULSHIFT32
 1224 070c 8044     		add	r8, r8, r0
 1225 070e 4046     		mov	r0, r8
 1226 0710 FFF7FEFF 		bl	FASTABS
 1227 0714 C4F88084 		str	r8, [r4, #1152]
 1228 0718 3A6B     		ldr	r2, [r7, #48]
 1229 071a 049B     		ldr	r3, [sp, #16]
 1230 071c 1590     		str	r0, [sp, #84]
 1231 071e 9000     		lsls	r0, r2, #2
 1232 0720 9968     		ldr	r1, [r3, #8]
 1233 0722 0090     		str	r0, [sp, #0]
 1234 0724 D5F83801 		ldr	r0, [r5, #312]
 1235 0728 FFF7FEFF 		bl	MULSHIFT32
 1236 072c 0399     		ldr	r1, [sp, #12]
 1237 072e 8046     		mov	r8, r0
 1238 0730 0846     		mov	r0, r1
 1239 0732 716A     		ldr	r1, [r6, #36]
 1240 0734 FFF7FEFF 		bl	MULSHIFT32
 1241 0738 009A     		ldr	r2, [sp, #0]
 1242 073a 08EB0003 		add	r3, r8, r0
 1243 073e 02EB0308 		add	r8, r2, r3
 1244 0742 4046     		mov	r0, r8
 1245 0744 FFF7FEFF 		bl	FASTABS
 1246 0748 C4F80086 		str	r8, [r4, #1536]
 1247 074c 0090     		str	r0, [sp, #0]
 1248 074e 3EA9     		add	r1, sp, #248
 1249 0750 F86B     		ldr	r0, [r7, #60]
 1250 0752 59F80110 		ldr	r1, [r9, r1]
 1251 0756 8300     		lsls	r3, r0, #2
 1252 0758 D5F84401 		ldr	r0, [r5, #324]
 1253 075c 0393     		str	r3, [sp, #12]
 1254 075e FFF7FEFF 		bl	MULSHIFT32
 1255 0762 DDF804C0 		ldr	ip, [sp, #4]
 1256 0766 049A     		ldr	r2, [sp, #16]
 1257 0768 8046     		mov	r8, r0
 1258 076a D16A     		ldr	r1, [r2, #44]
 1259 076c 6046     		mov	r0, ip
 1260 076e FFF7FEFF 		bl	MULSHIFT32
 1261 0772 039B     		ldr	r3, [sp, #12]
 1262 0774 4044     		add	r0, r8, r0
 1263 0776 03EB0008 		add	r8, r3, r0
 1264 077a 4046     		mov	r0, r8
 1265 077c FFF7FEFF 		bl	FASTABS
 1266 0780 0A99     		ldr	r1, [sp, #40]
 1267 0782 DDF844C0 		ldr	ip, [sp, #68]
 1268 0786 0B9A     		ldr	r2, [sp, #44]
 1269 0788 159B     		ldr	r3, [sp, #84]
 1270 078a C4F88087 		str	r8, [r4, #1920]
 1271 078e 41EA0C0E 		orr	lr, r1, ip
 1272 0792 4EEA0201 		orr	r1, lr, r2
 1273 0796 009A     		ldr	r2, [sp, #0]
 1274 0798 DDF820C0 		ldr	ip, [sp, #32]
 1275 079c 1943     		orrs	r1, r1, r3
 1276 079e 41EA0203 		orr	r3, r1, r2
 1277 07a2 43EA0002 		orr	r2, r3, r0
 1278 07a6 0498     		ldr	r0, [sp, #16]
 1279 07a8 09F10409 		add	r9, r9, #4
 1280 07ac 011F     		subs	r1, r0, #4
 1281 07ae 4CEA020E 		orr	lr, ip, r2
 1282 07b2 0437     		adds	r7, r7, #4
 1283 07b4 8034     		adds	r4, r4, #128
 1284 07b6 0435     		adds	r5, r5, #4
 1285 07b8 0436     		adds	r6, r6, #4
 1286 07ba B9F10C0F 		cmp	r9, #12
 1287 07be CDF820E0 		str	lr, [sp, #32]
 1288 07c2 0491     		str	r1, [sp, #16]
 1289 07c4 7FF470AF 		bne	.L58
 1290 07c8 449C     		ldr	r4, [sp, #272]
 1291 07ca 169F     		ldr	r7, [sp, #88]
 1292 07cc 5E46     		mov	r6, fp
 1293 07ce A310     		asrs	r3, r4, #2
 1294 07d0 3360     		str	r3, [r6, #0]
 1295 07d2 4599     		ldr	r1, [sp, #276]
 1296 07d4 8810     		asrs	r0, r1, #2
 1297 07d6 7060     		str	r0, [r6, #4]
 1298 07d8 469A     		ldr	r2, [sp, #280]
 1299 07da 9410     		asrs	r4, r2, #2
 1300 07dc 5546     		mov	r5, sl
 1301 07de B460     		str	r4, [r6, #8]
 1302 07e0 49AA     		add	r2, sp, #292
 1303 07e2 5B46     		mov	r3, fp
 1304 07e4 0BF11801 		add	r1, fp, #24
 1305              	.L59:
 1306 07e8 52F8044F 		ldr	r4, [r2, #4]!
 1307 07ec A010     		asrs	r0, r4, #2
 1308 07ee D860     		str	r0, [r3, #12]
 1309 07f0 0433     		adds	r3, r3, #4
 1310 07f2 8B42     		cmp	r3, r1
 1311 07f4 F8D1     		bne	.L59
 1312 07f6 3146     		mov	r1, r6
 1313 07f8 2A46     		mov	r2, r5
 1314 07fa 0D9B     		ldr	r3, [sp, #52]
 1315 07fc 0598     		ldr	r0, [sp, #20]
 1316 07fe FFF7FEFF 		bl	FreqInvertRescale
 1317 0802 089A     		ldr	r2, [sp, #32]
 1318 0804 099C     		ldr	r4, [sp, #36]
 1319 0806 0599     		ldr	r1, [sp, #20]
 1320 0808 42EA000C 		orr	ip, r2, r0
 1321 080c 44EA0C03 		orr	r3, r4, ip
 1322 0810 0A1D     		adds	r2, r1, #4
 1323 0812 0993     		str	r3, [sp, #36]
 1324 0814 4837     		adds	r7, r7, #72
 1325 0816 2436     		adds	r6, r6, #36
 1326 0818 0135     		adds	r5, r5, #1
 1327 081a 0592     		str	r2, [sp, #20]
 1328              	.L54:
 1329 081c 1898     		ldr	r0, [sp, #96]
 1330 081e 8542     		cmp	r5, r0
 1331 0820 FFF6EFAE 		blt	.L60
 1332 0824 099C     		ldr	r4, [sp, #36]
 1333 0826 2F46     		mov	r7, r5
 1334 0828 50E0     		b	.L61
 1335              	.L65:
 1336 082a 139B     		ldr	r3, [sp, #76]
 1337 082c 129A     		ldr	r2, [sp, #72]
 1338 082e 1AA9     		add	r1, sp, #104
 1339 0830 9D42     		cmp	r5, r3
 1340 0832 B8BF     		it	lt
 1341 0834 0022     		movlt	r2, #0
 1342 0836 3046     		mov	r0, r6
 1343 0838 FFF7FEFF 		bl	WinPrevious
 1344 083c EB07     		lsls	r3, r5, #31
 1345 083e DDF83C90 		ldr	r9, [sp, #60]
 1346 0842 D917     		asrs	r1, r3, #31
 1347 0844 4FF00008 		mov	r8, #0
 1348 0848 3A46     		mov	r2, r7
 1349 084a 0491     		str	r1, [sp, #16]
 1350 084c 09EB8509 		add	r9, r9, r5, lsl #2
 1351 0850 C246     		mov	sl, r8
 1352 0852 3346     		mov	r3, r6
 1353 0854 2F46     		mov	r7, r5
 1354              	.L63:
 1355 0856 1AA8     		add	r0, sp, #104
 1356 0858 4FEA4806 		lsl	r6, r8, #1
 1357 085c 50F81850 		ldr	r5, [r0, r8, lsl #1]
 1358 0860 4FEA850B 		lsl	fp, r5, #2
 1359 0864 C9F800B0 		str	fp, [r9, #0]
 1360 0868 5846     		mov	r0, fp
 1361 086a 0392     		str	r2, [sp, #12]
 1362 086c 0293     		str	r3, [sp, #8]
 1363 086e FFF7FEFF 		bl	FASTABS
 1364 0872 0DF1680C 		add	ip, sp, #104
 1365 0876 0CEB0603 		add	r3, ip, r6
 1366 087a 0499     		ldr	r1, [sp, #16]
 1367 087c 0546     		mov	r5, r0
 1368 087e 5868     		ldr	r0, [r3, #4]
 1369 0880 07F00102 		and	r2, r7, #1
 1370 0884 81EA800C 		eor	ip, r1, r0, lsl #2
 1371 0888 0CEB0200 		add	r0, ip, r2
 1372 088c C9F88000 		str	r0, [r9, #128]
 1373 0890 4BEA000B 		orr	fp, fp, r0
 1374 0894 FFF7FEFF 		bl	FASTABS
 1375 0898 029B     		ldr	r3, [sp, #8]
 1376 089a 039A     		ldr	r2, [sp, #12]
 1377 089c 0021     		movs	r1, #0
 1378 089e 43F80810 		str	r1, [r3, r8]
 1379 08a2 08F10408 		add	r8, r8, #4
 1380 08a6 40EA0506 		orr	r6, r0, r5
 1381 08aa B8F1240F 		cmp	r8, #36
 1382 08ae 4AEA0B0A 		orr	sl, sl, fp
 1383 08b2 44EA0604 		orr	r4, r4, r6
 1384 08b6 09F58079 		add	r9, r9, #256
 1385 08ba CCD1     		bne	.L63
 1386 08bc 3D46     		mov	r5, r7
 1387 08be 1746     		mov	r7, r2
 1388 08c0 8A45     		cmp	sl, r1
 1389 08c2 18BF     		it	ne
 1390 08c4 2F46     		movne	r7, r5
 1391 08c6 03F12406 		add	r6, r3, #36
 1392 08ca 0135     		adds	r5, r5, #1
 1393              	.L61:
 1394 08cc 199A     		ldr	r2, [sp, #100]
 1395 08ce 9542     		cmp	r5, r2
 1396 08d0 ABDB     		blt	.L65
 1397 08d2 2946     		mov	r1, r5
 1398 08d4 0022     		movs	r2, #0
 1399 08d6 0EE0     		b	.L66
 1400              	.L85:
 1401 08d8 0023     		movs	r3, #0
 1402              	.L67:
 1403 08da 0F9E     		ldr	r6, [sp, #60]
 1404 08dc 06EB8100 		add	r0, r6, r1, lsl #2
 1405 08e0 00EB020C 		add	ip, r0, r2
 1406 08e4 0026     		movs	r6, #0
 1407 08e6 4CF80360 		str	r6, [ip, r3]
 1408 08ea 8033     		adds	r3, r3, #128
 1409 08ec B3F5106F 		cmp	r3, #2304
 1410 08f0 F3D1     		bne	.L67
 1411 08f2 0135     		adds	r5, r5, #1
 1412 08f4 0432     		adds	r2, r2, #4
 1413              	.L66:
 1414 08f6 1F2D     		cmp	r5, #31
 1415 08f8 EEDD     		ble	.L85
 1416 08fa 34B1     		cbz	r4, .L86
 1417 08fc 0023     		movs	r3, #0
 1418 08fe 01E0     		b	.L69
 1419              	.L70:
 1420 0900 0133     		adds	r3, r3, #1
 1421 0902 6400     		lsls	r4, r4, #1
 1422              	.L69:
 1423 0904 002C     		cmp	r4, #0
 1424 0906 FBDA     		bge	.L70
 1425 0908 00E0     		b	.L68
 1426              	.L86:
 1427 090a 2023     		movs	r3, #32
 1428              	.L68:
 1429 090c 149C     		ldr	r4, [sp, #80]
 1430 090e 079D     		ldr	r5, [sp, #28]
 1431 0910 079A     		ldr	r2, [sp, #28]
 1432 0912 0699     		ldr	r1, [sp, #24]
 1433 0914 9020     		movs	r0, #144
 1434 0916 6043     		muls	r0, r4, r0
 1435 0918 4826     		movs	r6, #72
 1436 091a 06FB050C 		mla	ip, r6, r5, r0
 1437 091e 0C9E     		ldr	r6, [sp, #48]
 1438 0920 02F5D862 		add	r2, r2, #1728
 1439 0924 06EB0C04 		add	r4, r6, ip
 1440 0928 41F82270 		str	r7, [r1, r2, lsl #2]
 1441 092c E56B     		ldr	r5, [r4, #60]
 1442 092e 069C     		ldr	r4, [sp, #24]
 1443 0930 911C     		adds	r1, r2, #2
 1444 0932 101D     		adds	r0, r2, #4
 1445 0934 44F82150 		str	r5, [r4, r1, lsl #2]
 1446 0938 179D     		ldr	r5, [sp, #92]
 1447 093a 911D     		adds	r1, r2, #6
 1448 093c 013B     		subs	r3, r3, #1
 1449 093e 44F82050 		str	r5, [r4, r0, lsl #2]
 1450 0942 44F82130 		str	r3, [r4, r1, lsl #2]
 1451 0946 0020     		movs	r0, #0
 1452 0948 01E0     		b	.L32
 1453              	.L75:
 1454 094a 4FF0FF30 		mov	r0, #-1
 1455              	.L32:
 1456 094e 51B0     		add	sp, sp, #324
 1457 0950 BDE8F08F 		pop	{r4, r5, r6, r7, r8, r9, sl, fp, pc}
 1458              	.L102:
 1459              		.align	2
 1460              	.L101:
 1461 0954 00000000 		.word	xmp3fixpt_imdctWin
 1463              		.section	.rodata.fastWin36,"a",%progbits
 1464              		.align	2
 1465              		.set	.LANCHOR0,. + 0
 1468              	fastWin36:
 1469 0000 8BCEAA42 		.word	1118490251
 1470 0004 2427E9C2 		.word	-1024907484
 1471 0008 281C3147 		.word	1194400808
 1472 000c 9A615FC9 		.word	-916495974
 1473 0010 EB8F864A 		.word	1250332651
 1474 0014 8C9D85D0 		.word	-796549748
 1475 0018 513B914C 		.word	1284586321
 1476 001c A03E24D8 		.word	-668713312
 1477 0020 CC3C414D 		.word	1296121036
 1478 0024 000000E0 		.word	-536870912
 1479 0028 513B914C 		.word	1284586321
 1480 002c 61C1DBE7 		.word	-405028511
 1481 0030 EB8F864A 		.word	1250332651
 1482 0034 75627AEF 		.word	-277192075
 1483 0038 281C3147 		.word	1194400808
 1484 003c 679EA0F6 		.word	-157245849
 1485 0040 8BCEAA42 		.word	1118490251
 1486 0044 DDD816FD 		.word	-48834339
 1487              		.section	.rodata.c18,"a",%progbits
 1488              		.align	2
 1489              		.set	.LANCHOR1,. + 0
 1492              	c18:
 1493 0000 D04E837F 		.word	2139311824
 1494 0004 1D75A37B 		.word	2074309917
 1495 0008 C1E40174 		.word	1946281153
 1496 000c 64F9D968 		.word	1759115620
 1497 0010 9A79825A 		.word	1518500250
 1498 0014 E2F36A49 		.word	1231746018
 1499 0018 EE5A1836 		.word	907565806
 1500 001c 83FB2021 		.word	555809667
 1501 0020 5CEB270B 		.word	187165532
 1502              		.ident	"GCC: (Sourcery CodeBench Lite 2012.03-56) 4.6.3"