   1              		.syntax unified
   2              		.cpu cortex-m4
   3              		.eabi_attribute 27, 3
   4              		.fpu fpv4-sp-d16
   5              		.eabi_attribute 20, 1
   6              		.eabi_attribute 21, 1
   7              		.eabi_attribute 23, 3
   8              		.eabi_attribute 24, 1
   9              		.eabi_attribute 25, 1
  10              		.eabi_attribute 26, 1
  11              		.eabi_attribute 30, 4
  12              		.eabi_attribute 34, 1
  13              		.eabi_attribute 18, 4
  14              		.thumb
  15              		.file	"polyphase.c"
  16              		.section	.text.MADD64,"ax",%progbits
  17              		.align	1
  18              		.thumb
  19              		.thumb_func
  21              	MADD64:
  22              		@ args = 0, pretend = 0, frame = 0
  23              		@ frame_needed = 0, uses_anonymous_args = 0
  24              		@ link register save eliminated.
  25 0000 C3FB0201 		smlal	r0, r1, r3, r2
  26 0004 7047     		bx	lr
  28              		.section	.text.ClipToShort.constprop.0,"ax",%progbits
  29              		.align	1
  30              		.thumb
  31              		.thumb_func
  33              	ClipToShort.constprop.0:
  34              		@ args = 0, pretend = 0, frame = 0
  35              		@ frame_needed = 0, uses_anonymous_args = 0
  36              		@ link register save eliminated.
  37 0000 C217     		asrs	r2, r0, #31
  38 0002 8311     		asrs	r3, r0, #6
  39 0004 B2EB605F 		cmp	r2, r0, asr #21
  40 0008 1CBF     		itt	ne
  41 000a 82F4FE43 		eorne	r3, r2, #32512
  42 000e 83F0FF03 		eorne	r3, r3, #255
  43 0012 18B2     		sxth	r0, r3
  44 0014 7047     		bx	lr
  46              		.section	.text.SAR64.constprop.1,"ax",%progbits
  47              		.align	1
  48              		.thumb
  49              		.thumb_func
  51              	SAR64.constprop.1:
  52              		@ args = 0, pretend = 0, frame = 0
  53              		@ frame_needed = 0, uses_anonymous_args = 0
  54              		@ link register save eliminated.
  55 0000 000D     		lsrs	r0, r0, #20
  56 0002 40EA0130 		orr	r0, r0, r1, lsl #12
  57 0006 090D     		lsrs	r1, r1, #20
  58 0008 7047     		bx	lr
  60              		.section	.text.xmp3fixpt_PolyphaseMono,"ax",%progbits
  61              		.align	1
  62              		.global	xmp3fixpt_PolyphaseMono
  63              		.thumb
  64              		.thumb_func
  66              	xmp3fixpt_PolyphaseMono:
  67              		@ args = 0, pretend = 0, frame = 24
  68              		@ frame_needed = 0, uses_anonymous_args = 0
  69 0000 2DE9F04F 		push	{r4, r5, r6, r7, r8, r9, sl, fp, lr}
  70 0004 1546     		mov	r5, r2
  71 0006 0E46     		mov	r6, r1
  72 0008 87B0     		sub	sp, sp, #28
  73 000a 0746     		mov	r7, r0
  74 000c 3268     		ldr	r2, [r6, #0]
  75 000e 2B68     		ldr	r3, [r5, #0]
  76 0010 0021     		movs	r1, #0
  77 0012 4FF00070 		mov	r0, #33554432
  78 0016 FFF7FEFF 		bl	MADD64
  79 001a 6C68     		ldr	r4, [r5, #4]
  80 001c F26D     		ldr	r2, [r6, #92]
  81 001e 6342     		negs	r3, r4
  82 0020 FFF7FEFF 		bl	MADD64
  83 0024 7268     		ldr	r2, [r6, #4]
  84 0026 AB68     		ldr	r3, [r5, #8]
  85 0028 FFF7FEFF 		bl	MADD64
  86 002c EB68     		ldr	r3, [r5, #12]
  87 002e B26D     		ldr	r2, [r6, #88]
  88 0030 5B42     		negs	r3, r3
  89 0032 FFF7FEFF 		bl	MADD64
  90 0036 B268     		ldr	r2, [r6, #8]
  91 0038 2B69     		ldr	r3, [r5, #16]
  92 003a FFF7FEFF 		bl	MADD64
  93 003e 6C69     		ldr	r4, [r5, #20]
  94 0040 726D     		ldr	r2, [r6, #84]
  95 0042 6342     		negs	r3, r4
  96 0044 FFF7FEFF 		bl	MADD64
  97 0048 F268     		ldr	r2, [r6, #12]
  98 004a AB69     		ldr	r3, [r5, #24]
  99 004c FFF7FEFF 		bl	MADD64
 100 0050 EB69     		ldr	r3, [r5, #28]
 101 0052 326D     		ldr	r2, [r6, #80]
 102 0054 5B42     		negs	r3, r3
 103 0056 FFF7FEFF 		bl	MADD64
 104 005a 3269     		ldr	r2, [r6, #16]
 105 005c 2B6A     		ldr	r3, [r5, #32]
 106 005e FFF7FEFF 		bl	MADD64
 107 0062 6C6A     		ldr	r4, [r5, #36]
 108 0064 F26C     		ldr	r2, [r6, #76]
 109 0066 6342     		negs	r3, r4
 110 0068 FFF7FEFF 		bl	MADD64
 111 006c 7269     		ldr	r2, [r6, #20]
 112 006e AB6A     		ldr	r3, [r5, #40]
 113 0070 FFF7FEFF 		bl	MADD64
 114 0074 EB6A     		ldr	r3, [r5, #44]
 115 0076 B26C     		ldr	r2, [r6, #72]
 116 0078 5B42     		negs	r3, r3
 117 007a FFF7FEFF 		bl	MADD64
 118 007e B269     		ldr	r2, [r6, #24]
 119 0080 2B6B     		ldr	r3, [r5, #48]
 120 0082 FFF7FEFF 		bl	MADD64
 121 0086 6C6B     		ldr	r4, [r5, #52]
 122 0088 726C     		ldr	r2, [r6, #68]
 123 008a 6342     		negs	r3, r4
 124 008c FFF7FEFF 		bl	MADD64
 125 0090 F269     		ldr	r2, [r6, #28]
 126 0092 AB6B     		ldr	r3, [r5, #56]
 127 0094 FFF7FEFF 		bl	MADD64
 128 0098 EB6B     		ldr	r3, [r5, #60]
 129 009a 326C     		ldr	r2, [r6, #64]
 130 009c 5B42     		negs	r3, r3
 131 009e FFF7FEFF 		bl	MADD64
 132 00a2 FFF7FEFF 		bl	SAR64.constprop.1
 133 00a6 FFF7FEFF 		bl	ClipToShort.constprop.0
 134 00aa 06F58054 		add	r4, r6, #4096
 135 00ae 3880     		strh	r0, [r7, #0]	@ movhi
 136 00b0 0021     		movs	r1, #0
 137 00b2 2268     		ldr	r2, [r4, #0]
 138 00b4 D5F80034 		ldr	r3, [r5, #1024]
 139 00b8 4FF00070 		mov	r0, #33554432
 140 00bc FFF7FEFF 		bl	MADD64
 141 00c0 6268     		ldr	r2, [r4, #4]
 142 00c2 D5F80434 		ldr	r3, [r5, #1028]
 143 00c6 FFF7FEFF 		bl	MADD64
 144 00ca A268     		ldr	r2, [r4, #8]
 145 00cc D5F80834 		ldr	r3, [r5, #1032]
 146 00d0 FFF7FEFF 		bl	MADD64
 147 00d4 E268     		ldr	r2, [r4, #12]
 148 00d6 D5F80C34 		ldr	r3, [r5, #1036]
 149 00da FFF7FEFF 		bl	MADD64
 150 00de 2269     		ldr	r2, [r4, #16]
 151 00e0 D5F81034 		ldr	r3, [r5, #1040]
 152 00e4 FFF7FEFF 		bl	MADD64
 153 00e8 6269     		ldr	r2, [r4, #20]
 154 00ea D5F81434 		ldr	r3, [r5, #1044]
 155 00ee FFF7FEFF 		bl	MADD64
 156 00f2 A269     		ldr	r2, [r4, #24]
 157 00f4 D5F81834 		ldr	r3, [r5, #1048]
 158 00f8 FFF7FEFF 		bl	MADD64
 159 00fc E269     		ldr	r2, [r4, #28]
 160 00fe D5F81C34 		ldr	r3, [r5, #1052]
 161 0102 FFF7FEFF 		bl	MADD64
 162 0106 FFF7FEFF 		bl	SAR64.constprop.1
 163 010a FFF7FEFF 		bl	ClipToShort.constprop.0
 164 010e 05F14004 		add	r4, r5, #64
 165 0112 05F58065 		add	r5, r5, #1024
 166 0116 3884     		strh	r0, [r7, #32]	@ movhi
 167 0118 06F58076 		add	r6, r6, #256
 168 011c BB46     		mov	fp, r7
 169 011e 0595     		str	r5, [sp, #20]
 170 0120 BA46     		mov	sl, r7
 171              	.L6:
 172 0122 D4F80090 		ldr	r9, [r4, #0]
 173 0126 3568     		ldr	r5, [r6, #0]
 174 0128 6768     		ldr	r7, [r4, #4]
 175 012a D6F85C80 		ldr	r8, [r6, #92]
 176 012e 2A46     		mov	r2, r5
 177 0130 4B46     		mov	r3, r9
 178 0132 0021     		movs	r1, #0
 179 0134 4FF00070 		mov	r0, #33554432
 180 0138 FFF7FEFF 		bl	MADD64
 181 013c 2A46     		mov	r2, r5
 182 013e CDE90001 		strd	r0, [sp]
 183 0142 3B46     		mov	r3, r7
 184 0144 0021     		movs	r1, #0
 185 0146 4FF00070 		mov	r0, #33554432
 186 014a FFF7FEFF 		bl	MADD64
 187 014e 7B42     		negs	r3, r7
 188 0150 4246     		mov	r2, r8
 189 0152 CDE90201 		strd	r0, [sp, #8]
 190 0156 DDE90001 		ldrd	r0, [sp]
 191 015a FFF7FEFF 		bl	MADD64
 192 015e 4246     		mov	r2, r8
 193 0160 4B46     		mov	r3, r9
 194 0162 CDE90001 		strd	r0, [sp]
 195 0166 DDE90201 		ldrd	r0, [sp, #8]
 196 016a FFF7FEFF 		bl	MADD64
 197 016e D4F80890 		ldr	r9, [r4, #8]
 198 0172 7568     		ldr	r5, [r6, #4]
 199 0174 E768     		ldr	r7, [r4, #12]
 200 0176 D6F85880 		ldr	r8, [r6, #88]
 201 017a 2A46     		mov	r2, r5
 202 017c 4B46     		mov	r3, r9
 203 017e CDE90201 		strd	r0, [sp, #8]
 204 0182 DDE90001 		ldrd	r0, [sp]
 205 0186 FFF7FEFF 		bl	MADD64
 206 018a 2A46     		mov	r2, r5
 207 018c 3B46     		mov	r3, r7
 208 018e CDE90001 		strd	r0, [sp]
 209 0192 DDE90201 		ldrd	r0, [sp, #8]
 210 0196 FFF7FEFF 		bl	MADD64
 211 019a 7B42     		negs	r3, r7
 212 019c 4246     		mov	r2, r8
 213 019e CDE90201 		strd	r0, [sp, #8]
 214 01a2 DDE90001 		ldrd	r0, [sp]
 215 01a6 FFF7FEFF 		bl	MADD64
 216 01aa 4246     		mov	r2, r8
 217 01ac 4B46     		mov	r3, r9
 218 01ae CDE90001 		strd	r0, [sp]
 219 01b2 DDE90201 		ldrd	r0, [sp, #8]
 220 01b6 FFF7FEFF 		bl	MADD64
 221 01ba D4F81090 		ldr	r9, [r4, #16]
 222 01be B568     		ldr	r5, [r6, #8]
 223 01c0 6769     		ldr	r7, [r4, #20]
 224 01c2 D6F85480 		ldr	r8, [r6, #84]
 225 01c6 2A46     		mov	r2, r5
 226 01c8 4B46     		mov	r3, r9
 227 01ca CDE90201 		strd	r0, [sp, #8]
 228 01ce DDE90001 		ldrd	r0, [sp]
 229 01d2 FFF7FEFF 		bl	MADD64
 230 01d6 2A46     		mov	r2, r5
 231 01d8 3B46     		mov	r3, r7
 232 01da CDE90001 		strd	r0, [sp]
 233 01de DDE90201 		ldrd	r0, [sp, #8]
 234 01e2 FFF7FEFF 		bl	MADD64
 235 01e6 7B42     		negs	r3, r7
 236 01e8 4246     		mov	r2, r8
 237 01ea CDE90201 		strd	r0, [sp, #8]
 238 01ee DDE90001 		ldrd	r0, [sp]
 239 01f2 FFF7FEFF 		bl	MADD64
 240 01f6 4246     		mov	r2, r8
 241 01f8 4B46     		mov	r3, r9
 242 01fa CDE90001 		strd	r0, [sp]
 243 01fe DDE90201 		ldrd	r0, [sp, #8]
 244 0202 FFF7FEFF 		bl	MADD64
 245 0206 CDE90201 		strd	r0, [sp, #8]
 246 020a D4F81890 		ldr	r9, [r4, #24]
 247 020e F568     		ldr	r5, [r6, #12]
 248 0210 E769     		ldr	r7, [r4, #28]
 249 0212 D6F85080 		ldr	r8, [r6, #80]
 250 0216 DDE90001 		ldrd	r0, [sp]
 251 021a 2A46     		mov	r2, r5
 252 021c 4B46     		mov	r3, r9
 253 021e FFF7FEFF 		bl	MADD64
 254 0222 2A46     		mov	r2, r5
 255 0224 3B46     		mov	r3, r7
 256 0226 CDE90001 		strd	r0, [sp]
 257 022a DDE90201 		ldrd	r0, [sp, #8]
 258 022e FFF7FEFF 		bl	MADD64
 259 0232 7B42     		negs	r3, r7
 260 0234 4246     		mov	r2, r8
 261 0236 CDE90201 		strd	r0, [sp, #8]
 262 023a DDE90001 		ldrd	r0, [sp]
 263 023e FFF7FEFF 		bl	MADD64
 264 0242 4246     		mov	r2, r8
 265 0244 4B46     		mov	r3, r9
 266 0246 CDE90001 		strd	r0, [sp]
 267 024a DDE90201 		ldrd	r0, [sp, #8]
 268 024e FFF7FEFF 		bl	MADD64
 269 0252 D4F82090 		ldr	r9, [r4, #32]
 270 0256 3569     		ldr	r5, [r6, #16]
 271 0258 676A     		ldr	r7, [r4, #36]
 272 025a D6F84C80 		ldr	r8, [r6, #76]
 273 025e 2A46     		mov	r2, r5
 274 0260 4B46     		mov	r3, r9
 275 0262 CDE90201 		strd	r0, [sp, #8]
 276 0266 DDE90001 		ldrd	r0, [sp]
 277 026a FFF7FEFF 		bl	MADD64
 278 026e 2A46     		mov	r2, r5
 279 0270 3B46     		mov	r3, r7
 280 0272 CDE90001 		strd	r0, [sp]
 281 0276 DDE90201 		ldrd	r0, [sp, #8]
 282 027a FFF7FEFF 		bl	MADD64
 283 027e 7B42     		negs	r3, r7
 284 0280 4246     		mov	r2, r8
 285 0282 CDE90201 		strd	r0, [sp, #8]
 286 0286 DDE90001 		ldrd	r0, [sp]
 287 028a FFF7FEFF 		bl	MADD64
 288 028e 4246     		mov	r2, r8
 289 0290 4B46     		mov	r3, r9
 290 0292 CDE90001 		strd	r0, [sp]
 291 0296 DDE90201 		ldrd	r0, [sp, #8]
 292 029a FFF7FEFF 		bl	MADD64
 293 029e D4F82890 		ldr	r9, [r4, #40]
 294 02a2 7569     		ldr	r5, [r6, #20]
 295 02a4 E76A     		ldr	r7, [r4, #44]
 296 02a6 D6F84880 		ldr	r8, [r6, #72]
 297 02aa 2A46     		mov	r2, r5
 298 02ac 4B46     		mov	r3, r9
 299 02ae CDE90201 		strd	r0, [sp, #8]
 300 02b2 DDE90001 		ldrd	r0, [sp]
 301 02b6 FFF7FEFF 		bl	MADD64
 302 02ba 2A46     		mov	r2, r5
 303 02bc 3B46     		mov	r3, r7
 304 02be CDE90001 		strd	r0, [sp]
 305 02c2 DDE90201 		ldrd	r0, [sp, #8]
 306 02c6 FFF7FEFF 		bl	MADD64
 307 02ca 7B42     		negs	r3, r7
 308 02cc 4246     		mov	r2, r8
 309 02ce CDE90201 		strd	r0, [sp, #8]
 310 02d2 DDE90001 		ldrd	r0, [sp]
 311 02d6 FFF7FEFF 		bl	MADD64
 312 02da 4246     		mov	r2, r8
 313 02dc 4B46     		mov	r3, r9
 314 02de CDE90001 		strd	r0, [sp]
 315 02e2 DDE90201 		ldrd	r0, [sp, #8]
 316 02e6 FFF7FEFF 		bl	MADD64
 317 02ea D4F83090 		ldr	r9, [r4, #48]
 318 02ee B569     		ldr	r5, [r6, #24]
 319 02f0 676B     		ldr	r7, [r4, #52]
 320 02f2 D6F84480 		ldr	r8, [r6, #68]
 321 02f6 2A46     		mov	r2, r5
 322 02f8 4B46     		mov	r3, r9
 323 02fa CDE90201 		strd	r0, [sp, #8]
 324 02fe DDE90001 		ldrd	r0, [sp]
 325 0302 FFF7FEFF 		bl	MADD64
 326 0306 2A46     		mov	r2, r5
 327 0308 3B46     		mov	r3, r7
 328 030a CDE90001 		strd	r0, [sp]
 329 030e DDE90201 		ldrd	r0, [sp, #8]
 330 0312 FFF7FEFF 		bl	MADD64
 331 0316 7B42     		negs	r3, r7
 332 0318 4246     		mov	r2, r8
 333 031a CDE90201 		strd	r0, [sp, #8]
 334 031e DDE90001 		ldrd	r0, [sp]
 335 0322 FFF7FEFF 		bl	MADD64
 336 0326 4246     		mov	r2, r8
 337 0328 4B46     		mov	r3, r9
 338 032a CDE90001 		strd	r0, [sp]
 339 032e DDE90201 		ldrd	r0, [sp, #8]
 340 0332 FFF7FEFF 		bl	MADD64
 341 0336 D4F83890 		ldr	r9, [r4, #56]
 342 033a F569     		ldr	r5, [r6, #28]
 343 033c E76B     		ldr	r7, [r4, #60]
 344 033e D6F84080 		ldr	r8, [r6, #64]
 345 0342 4B46     		mov	r3, r9
 346 0344 CDE90201 		strd	r0, [sp, #8]
 347 0348 2A46     		mov	r2, r5
 348 034a DDE90001 		ldrd	r0, [sp]
 349 034e FFF7FEFF 		bl	MADD64
 350 0352 2A46     		mov	r2, r5
 351 0354 CDE90001 		strd	r0, [sp]
 352 0358 3B46     		mov	r3, r7
 353 035a DDE90201 		ldrd	r0, [sp, #8]
 354 035e FFF7FEFF 		bl	MADD64
 355 0362 4246     		mov	r2, r8
 356 0364 7B42     		negs	r3, r7
 357 0366 CDE90201 		strd	r0, [sp, #8]
 358 036a DDE90001 		ldrd	r0, [sp]
 359 036e FFF7FEFF 		bl	MADD64
 360 0372 4246     		mov	r2, r8
 361 0374 4B46     		mov	r3, r9
 362 0376 CDE90001 		strd	r0, [sp]
 363 037a DDE90201 		ldrd	r0, [sp, #8]
 364 037e FFF7FEFF 		bl	MADD64
 365 0382 8046     		mov	r8, r0
 366 0384 8946     		mov	r9, r1
 367 0386 DDE90001 		ldrd	r0, [sp]
 368 038a FFF7FEFF 		bl	SAR64.constprop.1
 369 038e FFF7FEFF 		bl	ClipToShort.constprop.0
 370 0392 4946     		mov	r1, r9
 371 0394 2BF8020F 		strh	r0, [fp, #2]!	@ movhi
 372 0398 4046     		mov	r0, r8
 373 039a FFF7FEFF 		bl	SAR64.constprop.1
 374 039e FFF7FEFF 		bl	ClipToShort.constprop.0
 375 03a2 AAF83E00 		strh	r0, [sl, #62]	@ movhi
 376 03a6 0598     		ldr	r0, [sp, #20]
 377 03a8 4034     		adds	r4, r4, #64
 378 03aa 8442     		cmp	r4, r0
 379 03ac 06F58076 		add	r6, r6, #256
 380 03b0 AAF1020A 		sub	sl, sl, #2
 381 03b4 7FF4B5AE 		bne	.L6
 382 03b8 07B0     		add	sp, sp, #28
 383 03ba BDE8F08F 		pop	{r4, r5, r6, r7, r8, r9, sl, fp, pc}
 385              		.section	.text.xmp3fixpt_PolyphaseStereo,"ax",%progbits
 386              		.align	1
 387              		.global	xmp3fixpt_PolyphaseStereo
 388              		.thumb
 389              		.thumb_func
 391              	xmp3fixpt_PolyphaseStereo:
 392              		@ args = 0, pretend = 0, frame = 48
 393              		@ frame_needed = 0, uses_anonymous_args = 0
 394 0000 2DE9F04F 		push	{r4, r5, r6, r7, r8, r9, sl, fp, lr}
 395 0004 0D46     		mov	r5, r1
 396 0006 8DB0     		sub	sp, sp, #52
 397 0008 1768     		ldr	r7, [r2, #0]
 398 000a 0B90     		str	r0, [sp, #44]
 399 000c 1646     		mov	r6, r2
 400 000e 3B46     		mov	r3, r7
 401 0010 2A68     		ldr	r2, [r5, #0]
 402 0012 0021     		movs	r1, #0
 403 0014 4FF00070 		mov	r0, #33554432
 404 0018 FFF7FEFF 		bl	MADD64
 405 001c 7368     		ldr	r3, [r6, #4]
 406 001e EA6D     		ldr	r2, [r5, #92]
 407 0020 5C42     		negs	r4, r3
 408 0022 2346     		mov	r3, r4
 409 0024 FFF7FEFF 		bl	MADD64
 410 0028 D5F88020 		ldr	r2, [r5, #128]
 411 002c 8046     		mov	r8, r0
 412 002e 8946     		mov	r9, r1
 413 0030 3B46     		mov	r3, r7
 414 0032 0021     		movs	r1, #0
 415 0034 4FF00070 		mov	r0, #33554432
 416 0038 FFF7FEFF 		bl	MADD64
 417 003c D5F8DC20 		ldr	r2, [r5, #220]
 418 0040 2346     		mov	r3, r4
 419 0042 FFF7FEFF 		bl	MADD64
 420 0046 B768     		ldr	r7, [r6, #8]
 421 0048 6A68     		ldr	r2, [r5, #4]
 422 004a 8246     		mov	sl, r0
 423 004c 8B46     		mov	fp, r1
 424 004e 3B46     		mov	r3, r7
 425 0050 4046     		mov	r0, r8
 426 0052 4946     		mov	r1, r9
 427 0054 FFF7FEFF 		bl	MADD64
 428 0058 F268     		ldr	r2, [r6, #12]
 429 005a 5442     		negs	r4, r2
 430 005c 2346     		mov	r3, r4
 431 005e AA6D     		ldr	r2, [r5, #88]
 432 0060 FFF7FEFF 		bl	MADD64
 433 0064 D5F88420 		ldr	r2, [r5, #132]
 434 0068 CDE90201 		strd	r0, [sp, #8]
 435 006c 3B46     		mov	r3, r7
 436 006e 5046     		mov	r0, sl
 437 0070 5946     		mov	r1, fp
 438 0072 FFF7FEFF 		bl	MADD64
 439 0076 D5F8D820 		ldr	r2, [r5, #216]
 440 007a 2346     		mov	r3, r4
 441 007c FFF7FEFF 		bl	MADD64
 442 0080 3769     		ldr	r7, [r6, #16]
 443 0082 AA68     		ldr	r2, [r5, #8]
 444 0084 8046     		mov	r8, r0
 445 0086 8946     		mov	r9, r1
 446 0088 3B46     		mov	r3, r7
 447 008a DDE90201 		ldrd	r0, [sp, #8]
 448 008e FFF7FEFF 		bl	MADD64
 449 0092 7369     		ldr	r3, [r6, #20]
 450 0094 6A6D     		ldr	r2, [r5, #84]
 451 0096 5C42     		negs	r4, r3
 452 0098 2346     		mov	r3, r4
 453 009a FFF7FEFF 		bl	MADD64
 454 009e D5F88820 		ldr	r2, [r5, #136]
 455 00a2 8246     		mov	sl, r0
 456 00a4 8B46     		mov	fp, r1
 457 00a6 3B46     		mov	r3, r7
 458 00a8 4046     		mov	r0, r8
 459 00aa 4946     		mov	r1, r9
 460 00ac FFF7FEFF 		bl	MADD64
 461 00b0 D5F8D420 		ldr	r2, [r5, #212]
 462 00b4 2346     		mov	r3, r4
 463 00b6 FFF7FEFF 		bl	MADD64
 464 00ba B769     		ldr	r7, [r6, #24]
 465 00bc EA68     		ldr	r2, [r5, #12]
 466 00be 8046     		mov	r8, r0
 467 00c0 8946     		mov	r9, r1
 468 00c2 3B46     		mov	r3, r7
 469 00c4 5046     		mov	r0, sl
 470 00c6 5946     		mov	r1, fp
 471 00c8 FFF7FEFF 		bl	MADD64
 472 00cc F269     		ldr	r2, [r6, #28]
 473 00ce 5442     		negs	r4, r2
 474 00d0 2346     		mov	r3, r4
 475 00d2 2A6D     		ldr	r2, [r5, #80]
 476 00d4 FFF7FEFF 		bl	MADD64
 477 00d8 D5F88C20 		ldr	r2, [r5, #140]
 478 00dc 8246     		mov	sl, r0
 479 00de 8B46     		mov	fp, r1
 480 00e0 3B46     		mov	r3, r7
 481 00e2 4046     		mov	r0, r8
 482 00e4 4946     		mov	r1, r9
 483 00e6 FFF7FEFF 		bl	MADD64
 484 00ea D5F8D020 		ldr	r2, [r5, #208]
 485 00ee 2346     		mov	r3, r4
 486 00f0 FFF7FEFF 		bl	MADD64
 487 00f4 376A     		ldr	r7, [r6, #32]
 488 00f6 2A69     		ldr	r2, [r5, #16]
 489 00f8 8046     		mov	r8, r0
 490 00fa 8946     		mov	r9, r1
 491 00fc 3B46     		mov	r3, r7
 492 00fe 5046     		mov	r0, sl
 493 0100 5946     		mov	r1, fp
 494 0102 FFF7FEFF 		bl	MADD64
 495 0106 736A     		ldr	r3, [r6, #36]
 496 0108 EA6C     		ldr	r2, [r5, #76]
 497 010a 5C42     		negs	r4, r3
 498 010c 2346     		mov	r3, r4
 499 010e FFF7FEFF 		bl	MADD64
 500 0112 D5F89020 		ldr	r2, [r5, #144]
 501 0116 8246     		mov	sl, r0
 502 0118 8B46     		mov	fp, r1
 503 011a 3B46     		mov	r3, r7
 504 011c 4046     		mov	r0, r8
 505 011e 4946     		mov	r1, r9
 506 0120 FFF7FEFF 		bl	MADD64
 507 0124 D5F8CC20 		ldr	r2, [r5, #204]
 508 0128 2346     		mov	r3, r4
 509 012a FFF7FEFF 		bl	MADD64
 510 012e B76A     		ldr	r7, [r6, #40]
 511 0130 6A69     		ldr	r2, [r5, #20]
 512 0132 8046     		mov	r8, r0
 513 0134 8946     		mov	r9, r1
 514 0136 3B46     		mov	r3, r7
 515 0138 5046     		mov	r0, sl
 516 013a 5946     		mov	r1, fp
 517 013c FFF7FEFF 		bl	MADD64
 518 0140 F26A     		ldr	r2, [r6, #44]
 519 0142 5442     		negs	r4, r2
 520 0144 2346     		mov	r3, r4
 521 0146 AA6C     		ldr	r2, [r5, #72]
 522 0148 FFF7FEFF 		bl	MADD64
 523 014c D5F89420 		ldr	r2, [r5, #148]
 524 0150 8246     		mov	sl, r0
 525 0152 8B46     		mov	fp, r1
 526 0154 3B46     		mov	r3, r7
 527 0156 4046     		mov	r0, r8
 528 0158 4946     		mov	r1, r9
 529 015a FFF7FEFF 		bl	MADD64
 530 015e D5F8C820 		ldr	r2, [r5, #200]
 531 0162 2346     		mov	r3, r4
 532 0164 FFF7FEFF 		bl	MADD64
 533 0168 376B     		ldr	r7, [r6, #48]
 534 016a AA69     		ldr	r2, [r5, #24]
 535 016c 8046     		mov	r8, r0
 536 016e 8946     		mov	r9, r1
 537 0170 3B46     		mov	r3, r7
 538 0172 5046     		mov	r0, sl
 539 0174 5946     		mov	r1, fp
 540 0176 FFF7FEFF 		bl	MADD64
 541 017a 736B     		ldr	r3, [r6, #52]
 542 017c 6A6C     		ldr	r2, [r5, #68]
 543 017e 5C42     		negs	r4, r3
 544 0180 2346     		mov	r3, r4
 545 0182 FFF7FEFF 		bl	MADD64
 546 0186 D5F89820 		ldr	r2, [r5, #152]
 547 018a 8246     		mov	sl, r0
 548 018c 8B46     		mov	fp, r1
 549 018e 3B46     		mov	r3, r7
 550 0190 4046     		mov	r0, r8
 551 0192 4946     		mov	r1, r9
 552 0194 FFF7FEFF 		bl	MADD64
 553 0198 D5F8C420 		ldr	r2, [r5, #196]
 554 019c 2346     		mov	r3, r4
 555 019e FFF7FEFF 		bl	MADD64
 556 01a2 B76B     		ldr	r7, [r6, #56]
 557 01a4 EA69     		ldr	r2, [r5, #28]
 558 01a6 8046     		mov	r8, r0
 559 01a8 8946     		mov	r9, r1
 560 01aa 3B46     		mov	r3, r7
 561 01ac 5046     		mov	r0, sl
 562 01ae 5946     		mov	r1, fp
 563 01b0 FFF7FEFF 		bl	MADD64
 564 01b4 F26B     		ldr	r2, [r6, #60]
 565 01b6 5442     		negs	r4, r2
 566 01b8 2346     		mov	r3, r4
 567 01ba 2A6C     		ldr	r2, [r5, #64]
 568 01bc FFF7FEFF 		bl	MADD64
 569 01c0 D5F89C20 		ldr	r2, [r5, #156]
 570 01c4 8246     		mov	sl, r0
 571 01c6 8B46     		mov	fp, r1
 572 01c8 3B46     		mov	r3, r7
 573 01ca 4046     		mov	r0, r8
 574 01cc 4946     		mov	r1, r9
 575 01ce FFF7FEFF 		bl	MADD64
 576 01d2 D5F8C020 		ldr	r2, [r5, #192]
 577 01d6 2346     		mov	r3, r4
 578 01d8 FFF7FEFF 		bl	MADD64
 579 01dc 8046     		mov	r8, r0
 580 01de 0F46     		mov	r7, r1
 581 01e0 5046     		mov	r0, sl
 582 01e2 5946     		mov	r1, fp
 583 01e4 FFF7FEFF 		bl	SAR64.constprop.1
 584 01e8 FFF7FEFF 		bl	ClipToShort.constprop.0
 585 01ec 0B9B     		ldr	r3, [sp, #44]
 586 01ee 3946     		mov	r1, r7
 587 01f0 1880     		strh	r0, [r3, #0]	@ movhi
 588 01f2 4046     		mov	r0, r8
 589 01f4 FFF7FEFF 		bl	SAR64.constprop.1
 590 01f8 FFF7FEFF 		bl	ClipToShort.constprop.0
 591 01fc 05F58057 		add	r7, r5, #4096
 592 0200 D6F80044 		ldr	r4, [r6, #1024]
 593 0204 0B9A     		ldr	r2, [sp, #44]
 594 0206 2346     		mov	r3, r4
 595 0208 5080     		strh	r0, [r2, #2]	@ movhi
 596 020a 0021     		movs	r1, #0
 597 020c 3A68     		ldr	r2, [r7, #0]
 598 020e 4FF00070 		mov	r0, #33554432
 599 0212 FFF7FEFF 		bl	MADD64
 600 0216 05F58458 		add	r8, r5, #4224
 601 021a 8246     		mov	sl, r0
 602 021c D8F80020 		ldr	r2, [r8, #0]
 603 0220 8946     		mov	r9, r1
 604 0222 2346     		mov	r3, r4
 605 0224 0021     		movs	r1, #0
 606 0226 4FF00070 		mov	r0, #33554432
 607 022a FFF7FEFF 		bl	MADD64
 608 022e D6F80444 		ldr	r4, [r6, #1028]
 609 0232 7A68     		ldr	r2, [r7, #4]
 610 0234 CDE90201 		strd	r0, [sp, #8]
 611 0238 2346     		mov	r3, r4
 612 023a 5046     		mov	r0, sl
 613 023c 4946     		mov	r1, r9
 614 023e FFF7FEFF 		bl	MADD64
 615 0242 D8F80420 		ldr	r2, [r8, #4]
 616 0246 2346     		mov	r3, r4
 617 0248 CDE90401 		strd	r0, [sp, #16]
 618 024c DDE90201 		ldrd	r0, [sp, #8]
 619 0250 FFF7FEFF 		bl	MADD64
 620 0254 D6F80844 		ldr	r4, [r6, #1032]
 621 0258 BA68     		ldr	r2, [r7, #8]
 622 025a 8346     		mov	fp, r0
 623 025c 8946     		mov	r9, r1
 624 025e 2346     		mov	r3, r4
 625 0260 DDE90401 		ldrd	r0, [sp, #16]
 626 0264 FFF7FEFF 		bl	MADD64
 627 0268 D8F80820 		ldr	r2, [r8, #8]
 628 026c CDE90201 		strd	r0, [sp, #8]
 629 0270 2346     		mov	r3, r4
 630 0272 5846     		mov	r0, fp
 631 0274 4946     		mov	r1, r9
 632 0276 FFF7FEFF 		bl	MADD64
 633 027a D6F80C44 		ldr	r4, [r6, #1036]
 634 027e FA68     		ldr	r2, [r7, #12]
 635 0280 8246     		mov	sl, r0
 636 0282 8B46     		mov	fp, r1
 637 0284 2346     		mov	r3, r4
 638 0286 DDE90201 		ldrd	r0, [sp, #8]
 639 028a FFF7FEFF 		bl	MADD64
 640 028e D8F80C20 		ldr	r2, [r8, #12]
 641 0292 CDE90201 		strd	r0, [sp, #8]
 642 0296 2346     		mov	r3, r4
 643 0298 5046     		mov	r0, sl
 644 029a 5946     		mov	r1, fp
 645 029c FFF7FEFF 		bl	MADD64
 646 02a0 D6F81044 		ldr	r4, [r6, #1040]
 647 02a4 3A69     		ldr	r2, [r7, #16]
 648 02a6 8146     		mov	r9, r0
 649 02a8 8B46     		mov	fp, r1
 650 02aa 2346     		mov	r3, r4
 651 02ac DDE90201 		ldrd	r0, [sp, #8]
 652 02b0 FFF7FEFF 		bl	MADD64
 653 02b4 D8F81020 		ldr	r2, [r8, #16]
 654 02b8 CDE90201 		strd	r0, [sp, #8]
 655 02bc 2346     		mov	r3, r4
 656 02be 4846     		mov	r0, r9
 657 02c0 5946     		mov	r1, fp
 658 02c2 FFF7FEFF 		bl	MADD64
 659 02c6 D6F81444 		ldr	r4, [r6, #1044]
 660 02ca 7A69     		ldr	r2, [r7, #20]
 661 02cc 8246     		mov	sl, r0
 662 02ce 8946     		mov	r9, r1
 663 02d0 2346     		mov	r3, r4
 664 02d2 DDE90201 		ldrd	r0, [sp, #8]
 665 02d6 FFF7FEFF 		bl	MADD64
 666 02da 2346     		mov	r3, r4
 667 02dc CDE90201 		strd	r0, [sp, #8]
 668 02e0 D8F81420 		ldr	r2, [r8, #20]
 669 02e4 5046     		mov	r0, sl
 670 02e6 4946     		mov	r1, r9
 671 02e8 FFF7FEFF 		bl	MADD64
 672 02ec D6F81844 		ldr	r4, [r6, #1048]
 673 02f0 BA69     		ldr	r2, [r7, #24]
 674 02f2 8346     		mov	fp, r0
 675 02f4 8946     		mov	r9, r1
 676 02f6 2346     		mov	r3, r4
 677 02f8 DDE90201 		ldrd	r0, [sp, #8]
 678 02fc FFF7FEFF 		bl	MADD64
 679 0300 D8F81820 		ldr	r2, [r8, #24]
 680 0304 CDE90201 		strd	r0, [sp, #8]
 681 0308 2346     		mov	r3, r4
 682 030a 5846     		mov	r0, fp
 683 030c 4946     		mov	r1, r9
 684 030e FFF7FEFF 		bl	MADD64
 685 0312 D6F81C44 		ldr	r4, [r6, #1052]
 686 0316 FA69     		ldr	r2, [r7, #28]
 687 0318 8246     		mov	sl, r0
 688 031a 8B46     		mov	fp, r1
 689 031c 2346     		mov	r3, r4
 690 031e DDE90201 		ldrd	r0, [sp, #8]
 691 0322 FFF7FEFF 		bl	MADD64
 692 0326 D8F81C20 		ldr	r2, [r8, #28]
 693 032a 2346     		mov	r3, r4
 694 032c CDE90201 		strd	r0, [sp, #8]
 695 0330 5046     		mov	r0, sl
 696 0332 5946     		mov	r1, fp
 697 0334 FFF7FEFF 		bl	MADD64
 698 0338 8046     		mov	r8, r0
 699 033a 8946     		mov	r9, r1
 700 033c DDE90201 		ldrd	r0, [sp, #8]
 701 0340 FFF7FEFF 		bl	SAR64.constprop.1
 702 0344 FFF7FEFF 		bl	ClipToShort.constprop.0
 703 0348 0B99     		ldr	r1, [sp, #44]
 704 034a A1F84000 		strh	r0, [r1, #64]	@ movhi
 705 034e 4046     		mov	r0, r8
 706 0350 4946     		mov	r1, r9
 707 0352 FFF7FEFF 		bl	SAR64.constprop.1
 708 0356 FFF7FEFF 		bl	ClipToShort.constprop.0
 709 035a 0B9B     		ldr	r3, [sp, #44]
 710 035c 06F1400A 		add	sl, r6, #64
 711 0360 A3F84200 		strh	r0, [r3, #66]	@ movhi
 712 0364 05F58075 		add	r5, r5, #256
 713 0368 9B46     		mov	fp, r3
 714 036a 4FF0000C 		mov	ip, #0
 715              	.L9:
 716 036e 9AE8C000 		ldmia	sl, {r6, r7}
 717 0372 2C68     		ldr	r4, [r5, #0]
 718 0374 D5F85C80 		ldr	r8, [r5, #92]
 719 0378 CDF804C0 		str	ip, [sp, #4]
 720 037c 2246     		mov	r2, r4
 721 037e 3346     		mov	r3, r6
 722 0380 0021     		movs	r1, #0
 723 0382 4FF00070 		mov	r0, #33554432
 724 0386 FFF7FEFF 		bl	MADD64
 725 038a 2246     		mov	r2, r4
 726 038c CDE90201 		strd	r0, [sp, #8]
 727 0390 3B46     		mov	r3, r7
 728 0392 0021     		movs	r1, #0
 729 0394 4FF00070 		mov	r0, #33554432
 730 0398 FFF7FEFF 		bl	MADD64
 731 039c C7F10009 		rsb	r9, r7, #0
 732 03a0 4246     		mov	r2, r8
 733 03a2 4B46     		mov	r3, r9
 734 03a4 CDE90401 		strd	r0, [sp, #16]
 735 03a8 DDE90201 		ldrd	r0, [sp, #8]
 736 03ac FFF7FEFF 		bl	MADD64
 737 03b0 4246     		mov	r2, r8
 738 03b2 3346     		mov	r3, r6
 739 03b4 CDE90201 		strd	r0, [sp, #8]
 740 03b8 DDE90401 		ldrd	r0, [sp, #16]
 741 03bc FFF7FEFF 		bl	MADD64
 742 03c0 D5F88040 		ldr	r4, [r5, #128]
 743 03c4 D5F8DC80 		ldr	r8, [r5, #220]
 744 03c8 CDE90401 		strd	r0, [sp, #16]
 745 03cc 2246     		mov	r2, r4
 746 03ce 3346     		mov	r3, r6
 747 03d0 0021     		movs	r1, #0
 748 03d2 4FF00070 		mov	r0, #33554432
 749 03d6 FFF7FEFF 		bl	MADD64
 750 03da 2246     		mov	r2, r4
 751 03dc CDE90601 		strd	r0, [sp, #24]
 752 03e0 3B46     		mov	r3, r7
 753 03e2 0021     		movs	r1, #0
 754 03e4 4FF00070 		mov	r0, #33554432
 755 03e8 FFF7FEFF 		bl	MADD64
 756 03ec 4246     		mov	r2, r8
 757 03ee 4B46     		mov	r3, r9
 758 03f0 CDE90801 		strd	r0, [sp, #32]
 759 03f4 DDE90601 		ldrd	r0, [sp, #24]
 760 03f8 FFF7FEFF 		bl	MADD64
 761 03fc 4246     		mov	r2, r8
 762 03fe 3346     		mov	r3, r6
 763 0400 CDE90601 		strd	r0, [sp, #24]
 764 0404 DDE90801 		ldrd	r0, [sp, #32]
 765 0408 FFF7FEFF 		bl	MADD64
 766 040c DAF80860 		ldr	r6, [sl, #8]
 767 0410 6C68     		ldr	r4, [r5, #4]
 768 0412 DAF80C70 		ldr	r7, [sl, #12]
 769 0416 D5F85880 		ldr	r8, [r5, #88]
 770 041a 2246     		mov	r2, r4
 771 041c 3346     		mov	r3, r6
 772 041e CDE90801 		strd	r0, [sp, #32]
 773 0422 DDE90201 		ldrd	r0, [sp, #8]
 774 0426 FFF7FEFF 		bl	MADD64
 775 042a 2246     		mov	r2, r4
 776 042c 3B46     		mov	r3, r7
 777 042e CDE90201 		strd	r0, [sp, #8]
 778 0432 DDE90401 		ldrd	r0, [sp, #16]
 779 0436 FFF7FEFF 		bl	MADD64
 780 043a C7F10009 		rsb	r9, r7, #0
 781 043e 4246     		mov	r2, r8
 782 0440 4B46     		mov	r3, r9
 783 0442 CDE90401 		strd	r0, [sp, #16]
 784 0446 DDE90201 		ldrd	r0, [sp, #8]
 785 044a FFF7FEFF 		bl	MADD64
 786 044e 4246     		mov	r2, r8
 787 0450 3346     		mov	r3, r6
 788 0452 CDE90201 		strd	r0, [sp, #8]
 789 0456 DDE90401 		ldrd	r0, [sp, #16]
 790 045a FFF7FEFF 		bl	MADD64
 791 045e D5F88440 		ldr	r4, [r5, #132]
 792 0462 D5F8D880 		ldr	r8, [r5, #216]
 793 0466 2246     		mov	r2, r4
 794 0468 3346     		mov	r3, r6
 795 046a CDE90401 		strd	r0, [sp, #16]
 796 046e DDE90601 		ldrd	r0, [sp, #24]
 797 0472 FFF7FEFF 		bl	MADD64
 798 0476 2246     		mov	r2, r4
 799 0478 3B46     		mov	r3, r7
 800 047a CDE90601 		strd	r0, [sp, #24]
 801 047e DDE90801 		ldrd	r0, [sp, #32]
 802 0482 FFF7FEFF 		bl	MADD64
 803 0486 4246     		mov	r2, r8
 804 0488 4B46     		mov	r3, r9
 805 048a CDE90801 		strd	r0, [sp, #32]
 806 048e DDE90601 		ldrd	r0, [sp, #24]
 807 0492 FFF7FEFF 		bl	MADD64
 808 0496 4246     		mov	r2, r8
 809 0498 3346     		mov	r3, r6
 810 049a CDE90601 		strd	r0, [sp, #24]
 811 049e DDE90801 		ldrd	r0, [sp, #32]
 812 04a2 FFF7FEFF 		bl	MADD64
 813 04a6 DAF81060 		ldr	r6, [sl, #16]
 814 04aa AC68     		ldr	r4, [r5, #8]
 815 04ac DAF81470 		ldr	r7, [sl, #20]
 816 04b0 D5F85480 		ldr	r8, [r5, #84]
 817 04b4 2246     		mov	r2, r4
 818 04b6 3346     		mov	r3, r6
 819 04b8 CDE90801 		strd	r0, [sp, #32]
 820 04bc DDE90201 		ldrd	r0, [sp, #8]
 821 04c0 FFF7FEFF 		bl	MADD64
 822 04c4 2246     		mov	r2, r4
 823 04c6 3B46     		mov	r3, r7
 824 04c8 CDE90201 		strd	r0, [sp, #8]
 825 04cc DDE90401 		ldrd	r0, [sp, #16]
 826 04d0 FFF7FEFF 		bl	MADD64
 827 04d4 C7F10009 		rsb	r9, r7, #0
 828 04d8 4246     		mov	r2, r8
 829 04da 4B46     		mov	r3, r9
 830 04dc CDE90401 		strd	r0, [sp, #16]
 831 04e0 DDE90201 		ldrd	r0, [sp, #8]
 832 04e4 FFF7FEFF 		bl	MADD64
 833 04e8 4246     		mov	r2, r8
 834 04ea 3346     		mov	r3, r6
 835 04ec CDE90201 		strd	r0, [sp, #8]
 836 04f0 DDE90401 		ldrd	r0, [sp, #16]
 837 04f4 FFF7FEFF 		bl	MADD64
 838 04f8 D5F88840 		ldr	r4, [r5, #136]
 839 04fc D5F8D480 		ldr	r8, [r5, #212]
 840 0500 2246     		mov	r2, r4
 841 0502 3346     		mov	r3, r6
 842 0504 CDE90401 		strd	r0, [sp, #16]
 843 0508 DDE90601 		ldrd	r0, [sp, #24]
 844 050c FFF7FEFF 		bl	MADD64
 845 0510 2246     		mov	r2, r4
 846 0512 3B46     		mov	r3, r7
 847 0514 CDE90601 		strd	r0, [sp, #24]
 848 0518 DDE90801 		ldrd	r0, [sp, #32]
 849 051c FFF7FEFF 		bl	MADD64
 850 0520 4246     		mov	r2, r8
 851 0522 4B46     		mov	r3, r9
 852 0524 CDE90801 		strd	r0, [sp, #32]
 853 0528 DDE90601 		ldrd	r0, [sp, #24]
 854 052c FFF7FEFF 		bl	MADD64
 855 0530 4246     		mov	r2, r8
 856 0532 3346     		mov	r3, r6
 857 0534 CDE90601 		strd	r0, [sp, #24]
 858 0538 DDE90801 		ldrd	r0, [sp, #32]
 859 053c FFF7FEFF 		bl	MADD64
 860 0540 DAF81860 		ldr	r6, [sl, #24]
 861 0544 EC68     		ldr	r4, [r5, #12]
 862 0546 DAF81C70 		ldr	r7, [sl, #28]
 863 054a D5F85080 		ldr	r8, [r5, #80]
 864 054e 2246     		mov	r2, r4
 865 0550 3346     		mov	r3, r6
 866 0552 CDE90801 		strd	r0, [sp, #32]
 867 0556 DDE90201 		ldrd	r0, [sp, #8]
 868 055a FFF7FEFF 		bl	MADD64
 869 055e 2246     		mov	r2, r4
 870 0560 3B46     		mov	r3, r7
 871 0562 CDE90201 		strd	r0, [sp, #8]
 872 0566 DDE90401 		ldrd	r0, [sp, #16]
 873 056a FFF7FEFF 		bl	MADD64
 874 056e C7F10009 		rsb	r9, r7, #0
 875 0572 4246     		mov	r2, r8
 876 0574 4B46     		mov	r3, r9
 877 0576 CDE90401 		strd	r0, [sp, #16]
 878 057a DDE90201 		ldrd	r0, [sp, #8]
 879 057e FFF7FEFF 		bl	MADD64
 880 0582 4246     		mov	r2, r8
 881 0584 3346     		mov	r3, r6
 882 0586 CDE90201 		strd	r0, [sp, #8]
 883 058a DDE90401 		ldrd	r0, [sp, #16]
 884 058e FFF7FEFF 		bl	MADD64
 885 0592 D5F88C40 		ldr	r4, [r5, #140]
 886 0596 D5F8D080 		ldr	r8, [r5, #208]
 887 059a 2246     		mov	r2, r4
 888 059c 3346     		mov	r3, r6
 889 059e CDE90401 		strd	r0, [sp, #16]
 890 05a2 DDE90601 		ldrd	r0, [sp, #24]
 891 05a6 FFF7FEFF 		bl	MADD64
 892 05aa 2246     		mov	r2, r4
 893 05ac 3B46     		mov	r3, r7
 894 05ae CDE90601 		strd	r0, [sp, #24]
 895 05b2 DDE90801 		ldrd	r0, [sp, #32]
 896 05b6 FFF7FEFF 		bl	MADD64
 897 05ba 4246     		mov	r2, r8
 898 05bc 4B46     		mov	r3, r9
 899 05be CDE90801 		strd	r0, [sp, #32]
 900 05c2 DDE90601 		ldrd	r0, [sp, #24]
 901 05c6 FFF7FEFF 		bl	MADD64
 902 05ca 4246     		mov	r2, r8
 903 05cc 3346     		mov	r3, r6
 904 05ce CDE90601 		strd	r0, [sp, #24]
 905 05d2 DDE90801 		ldrd	r0, [sp, #32]
 906 05d6 FFF7FEFF 		bl	MADD64
 907 05da DAF82060 		ldr	r6, [sl, #32]
 908 05de 2C69     		ldr	r4, [r5, #16]
 909 05e0 DAF82470 		ldr	r7, [sl, #36]
 910 05e4 D5F84C80 		ldr	r8, [r5, #76]
 911 05e8 2246     		mov	r2, r4
 912 05ea 3346     		mov	r3, r6
 913 05ec CDE90801 		strd	r0, [sp, #32]
 914 05f0 DDE90201 		ldrd	r0, [sp, #8]
 915 05f4 FFF7FEFF 		bl	MADD64
 916 05f8 2246     		mov	r2, r4
 917 05fa 3B46     		mov	r3, r7
 918 05fc CDE90201 		strd	r0, [sp, #8]
 919 0600 DDE90401 		ldrd	r0, [sp, #16]
 920 0604 FFF7FEFF 		bl	MADD64
 921 0608 C7F10009 		rsb	r9, r7, #0
 922 060c 4246     		mov	r2, r8
 923 060e 4B46     		mov	r3, r9
 924 0610 CDE90401 		strd	r0, [sp, #16]
 925 0614 DDE90201 		ldrd	r0, [sp, #8]
 926 0618 FFF7FEFF 		bl	MADD64
 927 061c 4246     		mov	r2, r8
 928 061e 3346     		mov	r3, r6
 929 0620 CDE90201 		strd	r0, [sp, #8]
 930 0624 DDE90401 		ldrd	r0, [sp, #16]
 931 0628 FFF7FEFF 		bl	MADD64
 932 062c D5F89040 		ldr	r4, [r5, #144]
 933 0630 D5F8CC80 		ldr	r8, [r5, #204]
 934 0634 2246     		mov	r2, r4
 935 0636 3346     		mov	r3, r6
 936 0638 CDE90401 		strd	r0, [sp, #16]
 937 063c DDE90601 		ldrd	r0, [sp, #24]
 938 0640 FFF7FEFF 		bl	MADD64
 939 0644 2246     		mov	r2, r4
 940 0646 3B46     		mov	r3, r7
 941 0648 CDE90601 		strd	r0, [sp, #24]
 942 064c DDE90801 		ldrd	r0, [sp, #32]
 943 0650 FFF7FEFF 		bl	MADD64
 944 0654 4246     		mov	r2, r8
 945 0656 4B46     		mov	r3, r9
 946 0658 CDE90801 		strd	r0, [sp, #32]
 947 065c DDE90601 		ldrd	r0, [sp, #24]
 948 0660 FFF7FEFF 		bl	MADD64
 949 0664 4246     		mov	r2, r8
 950 0666 3346     		mov	r3, r6
 951 0668 CDE90601 		strd	r0, [sp, #24]
 952 066c DDE90801 		ldrd	r0, [sp, #32]
 953 0670 FFF7FEFF 		bl	MADD64
 954 0674 DAF82860 		ldr	r6, [sl, #40]
 955 0678 6C69     		ldr	r4, [r5, #20]
 956 067a DAF82C70 		ldr	r7, [sl, #44]
 957 067e D5F84880 		ldr	r8, [r5, #72]
 958 0682 2246     		mov	r2, r4
 959 0684 3346     		mov	r3, r6
 960 0686 CDE90801 		strd	r0, [sp, #32]
 961 068a DDE90201 		ldrd	r0, [sp, #8]
 962 068e FFF7FEFF 		bl	MADD64
 963 0692 2246     		mov	r2, r4
 964 0694 3B46     		mov	r3, r7
 965 0696 CDE90201 		strd	r0, [sp, #8]
 966 069a DDE90401 		ldrd	r0, [sp, #16]
 967 069e FFF7FEFF 		bl	MADD64
 968 06a2 C7F10009 		rsb	r9, r7, #0
 969 06a6 4246     		mov	r2, r8
 970 06a8 4B46     		mov	r3, r9
 971 06aa CDE90401 		strd	r0, [sp, #16]
 972 06ae DDE90201 		ldrd	r0, [sp, #8]
 973 06b2 FFF7FEFF 		bl	MADD64
 974 06b6 4246     		mov	r2, r8
 975 06b8 3346     		mov	r3, r6
 976 06ba CDE90201 		strd	r0, [sp, #8]
 977 06be DDE90401 		ldrd	r0, [sp, #16]
 978 06c2 FFF7FEFF 		bl	MADD64
 979 06c6 D5F89440 		ldr	r4, [r5, #148]
 980 06ca D5F8C880 		ldr	r8, [r5, #200]
 981 06ce 2246     		mov	r2, r4
 982 06d0 3346     		mov	r3, r6
 983 06d2 CDE90401 		strd	r0, [sp, #16]
 984 06d6 DDE90601 		ldrd	r0, [sp, #24]
 985 06da FFF7FEFF 		bl	MADD64
 986 06de 2246     		mov	r2, r4
 987 06e0 3B46     		mov	r3, r7
 988 06e2 CDE90601 		strd	r0, [sp, #24]
 989 06e6 DDE90801 		ldrd	r0, [sp, #32]
 990 06ea FFF7FEFF 		bl	MADD64
 991 06ee 4246     		mov	r2, r8
 992 06f0 4B46     		mov	r3, r9
 993 06f2 CDE90801 		strd	r0, [sp, #32]
 994 06f6 DDE90601 		ldrd	r0, [sp, #24]
 995 06fa FFF7FEFF 		bl	MADD64
 996 06fe 4246     		mov	r2, r8
 997 0700 3346     		mov	r3, r6
 998 0702 CDE90601 		strd	r0, [sp, #24]
 999 0706 DDE90801 		ldrd	r0, [sp, #32]
 1000 070a FFF7FEFF 		bl	MADD64
 1001 070e DAF83060 		ldr	r6, [sl, #48]
 1002 0712 AC69     		ldr	r4, [r5, #24]
 1003 0714 DAF83470 		ldr	r7, [sl, #52]
 1004 0718 D5F84480 		ldr	r8, [r5, #68]
 1005 071c 2246     		mov	r2, r4
 1006 071e 3346     		mov	r3, r6
 1007 0720 CDE90801 		strd	r0, [sp, #32]
 1008 0724 DDE90201 		ldrd	r0, [sp, #8]
 1009 0728 FFF7FEFF 		bl	MADD64
 1010 072c 2246     		mov	r2, r4
 1011 072e 3B46     		mov	r3, r7
 1012 0730 CDE90201 		strd	r0, [sp, #8]
 1013 0734 DDE90401 		ldrd	r0, [sp, #16]
 1014 0738 FFF7FEFF 		bl	MADD64
 1015 073c C7F10009 		rsb	r9, r7, #0
 1016 0740 4246     		mov	r2, r8
 1017 0742 4B46     		mov	r3, r9
 1018 0744 CDE90401 		strd	r0, [sp, #16]
 1019 0748 DDE90201 		ldrd	r0, [sp, #8]
 1020 074c FFF7FEFF 		bl	MADD64
 1021 0750 4246     		mov	r2, r8
 1022 0752 3346     		mov	r3, r6
 1023 0754 CDE90201 		strd	r0, [sp, #8]
 1024 0758 DDE90401 		ldrd	r0, [sp, #16]
 1025 075c FFF7FEFF 		bl	MADD64
 1026 0760 D5F89840 		ldr	r4, [r5, #152]
 1027 0764 D5F8C480 		ldr	r8, [r5, #196]
 1028 0768 2246     		mov	r2, r4
 1029 076a 3346     		mov	r3, r6
 1030 076c CDE90401 		strd	r0, [sp, #16]
 1031 0770 DDE90601 		ldrd	r0, [sp, #24]
 1032 0774 FFF7FEFF 		bl	MADD64
 1033 0778 2246     		mov	r2, r4
 1034 077a 3B46     		mov	r3, r7
 1035 077c CDE90601 		strd	r0, [sp, #24]
 1036 0780 DDE90801 		ldrd	r0, [sp, #32]
 1037 0784 FFF7FEFF 		bl	MADD64
 1038 0788 4246     		mov	r2, r8
 1039 078a 4B46     		mov	r3, r9
 1040 078c CDE90801 		strd	r0, [sp, #32]
 1041 0790 DDE90601 		ldrd	r0, [sp, #24]
 1042 0794 FFF7FEFF 		bl	MADD64
 1043 0798 4246     		mov	r2, r8
 1044 079a 3346     		mov	r3, r6
 1045 079c CDE90601 		strd	r0, [sp, #24]
 1046 07a0 DDE90801 		ldrd	r0, [sp, #32]
 1047 07a4 FFF7FEFF 		bl	MADD64
 1048 07a8 DAF83860 		ldr	r6, [sl, #56]
 1049 07ac EC69     		ldr	r4, [r5, #28]
 1050 07ae DAF83C70 		ldr	r7, [sl, #60]
 1051 07b2 D5F84080 		ldr	r8, [r5, #64]
 1052 07b6 2246     		mov	r2, r4
 1053 07b8 3346     		mov	r3, r6
 1054 07ba CDE90801 		strd	r0, [sp, #32]
 1055 07be DDE90201 		ldrd	r0, [sp, #8]
 1056 07c2 FFF7FEFF 		bl	MADD64
 1057 07c6 2246     		mov	r2, r4
 1058 07c8 3B46     		mov	r3, r7
 1059 07ca CDE90201 		strd	r0, [sp, #8]
 1060 07ce DDE90401 		ldrd	r0, [sp, #16]
 1061 07d2 FFF7FEFF 		bl	MADD64
 1062 07d6 C7F10009 		rsb	r9, r7, #0
 1063 07da 4246     		mov	r2, r8
 1064 07dc CDE90401 		strd	r0, [sp, #16]
 1065 07e0 4B46     		mov	r3, r9
 1066 07e2 DDE90201 		ldrd	r0, [sp, #8]
 1067 07e6 FFF7FEFF 		bl	MADD64
 1068 07ea 4246     		mov	r2, r8
 1069 07ec 3346     		mov	r3, r6
 1070 07ee CDE90201 		strd	r0, [sp, #8]
 1071 07f2 DDE90401 		ldrd	r0, [sp, #16]
 1072 07f6 FFF7FEFF 		bl	MADD64
 1073 07fa D5F89C40 		ldr	r4, [r5, #156]
 1074 07fe D5F8C080 		ldr	r8, [r5, #192]
 1075 0802 2246     		mov	r2, r4
 1076 0804 3346     		mov	r3, r6
 1077 0806 CDE90401 		strd	r0, [sp, #16]
 1078 080a DDE90601 		ldrd	r0, [sp, #24]
 1079 080e FFF7FEFF 		bl	MADD64
 1080 0812 2246     		mov	r2, r4
 1081 0814 3B46     		mov	r3, r7
 1082 0816 CDE90601 		strd	r0, [sp, #24]
 1083 081a DDE90801 		ldrd	r0, [sp, #32]
 1084 081e FFF7FEFF 		bl	MADD64
 1085 0822 4246     		mov	r2, r8
 1086 0824 CDE90801 		strd	r0, [sp, #32]
 1087 0828 4B46     		mov	r3, r9
 1088 082a DDE90601 		ldrd	r0, [sp, #24]
 1089 082e FFF7FEFF 		bl	MADD64
 1090 0832 3346     		mov	r3, r6
 1091 0834 4246     		mov	r2, r8
 1092 0836 CDE90601 		strd	r0, [sp, #24]
 1093 083a DDE90801 		ldrd	r0, [sp, #32]
 1094 083e FFF7FEFF 		bl	MADD64
 1095 0842 0646     		mov	r6, r0
 1096 0844 0F46     		mov	r7, r1
 1097 0846 DDE90201 		ldrd	r0, [sp, #8]
 1098 084a FFF7FEFF 		bl	SAR64.constprop.1
 1099 084e FFF7FEFF 		bl	ClipToShort.constprop.0
 1100 0852 DDF804C0 		ldr	ip, [sp, #4]
 1101 0856 0B99     		ldr	r1, [sp, #44]
 1102 0858 01EB0C04 		add	r4, r1, ip
 1103 085c 0AF1400A 		add	sl, sl, #64
 1104 0860 A080     		strh	r0, [r4, #4]	@ movhi
 1105 0862 DDE90601 		ldrd	r0, [sp, #24]
 1106 0866 FFF7FEFF 		bl	SAR64.constprop.1
 1107 086a FFF7FEFF 		bl	ClipToShort.constprop.0
 1108 086e E080     		strh	r0, [r4, #6]	@ movhi
 1109 0870 DDE90401 		ldrd	r0, [sp, #16]
 1110 0874 FFF7FEFF 		bl	SAR64.constprop.1
 1111 0878 FFF7FEFF 		bl	ClipToShort.constprop.0
 1112 087c 3946     		mov	r1, r7
 1113 087e ABF87C00 		strh	r0, [fp, #124]	@ movhi
 1114 0882 3046     		mov	r0, r6
 1115 0884 FFF7FEFF 		bl	SAR64.constprop.1
 1116 0888 FFF7FEFF 		bl	ClipToShort.constprop.0
 1117 088c DDF804C0 		ldr	ip, [sp, #4]
 1118 0890 ABF87E00 		strh	r0, [fp, #126]	@ movhi
 1119 0894 0CF1040C 		add	ip, ip, #4
 1120 0898 BCF13C0F 		cmp	ip, #60
 1121 089c 05F58075 		add	r5, r5, #256
 1122 08a0 ABF1040B 		sub	fp, fp, #4
 1123 08a4 7FF463AD 		bne	.L9
 1124 08a8 0DB0     		add	sp, sp, #52
 1125 08aa BDE8F08F 		pop	{r4, r5, r6, r7, r8, r9, sl, fp, pc}
 1127              		.ident	"GCC: (Sourcery CodeBench Lite 2012.03-56) 4.6.3"