   1              		.syntax unified
   2              		.cpu cortex-m4
   3              		.eabi_attribute 27, 3
   4              		.fpu fpv4-sp-d16
   5              		.eabi_attribute 20, 1
   6              		.eabi_attribute 21, 1
   7              		.eabi_attribute 23, 3
   8              		.eabi_attribute 24, 1
   9              		.eabi_attribute 25, 1
  10              		.eabi_attribute 26, 1
  11              		.eabi_attribute 30, 4
  12              		.eabi_attribute 34, 1
  13              		.eabi_attribute 18, 4
  14              		.thumb
  15              		.file	"scalfact.c"
  16              		.section	.text.xmp3fixpt_UnpackScaleFactors,"ax",%progbits
  17              		.align	1
  18              		.global	xmp3fixpt_UnpackScaleFactors
  19              		.thumb
  20              		.thumb_func
  22              	xmp3fixpt_UnpackScaleFactors:
  23              		@ args = 8, pretend = 0, frame = 72
  24              		@ frame_needed = 0, uses_anonymous_args = 0
  25 0000 2DE9F04F 		push	{r4, r5, r6, r7, r8, r9, sl, fp, lr}
  26 0004 93B0     		sub	sp, sp, #76
  27 0006 0591     		str	r1, [sp, #20]
  28 0008 0492     		str	r2, [sp, #16]
  29 000a 1C9D     		ldr	r5, [sp, #112]
  30 000c 1D9C     		ldr	r4, [sp, #116]
  31 000e 0390     		str	r0, [sp, #12]
  32 0010 0028     		cmp	r0, #0
  33 0012 00F07A82 		beq	.L47
  34 0016 D0F80080 		ldr	r8, [r0, #0]
  35 001a B8F1000F 		cmp	r8, #0
  36 001e 00F07482 		beq	.L47
  37 0022 4068     		ldr	r0, [r0, #4]
  38 0024 0290     		str	r0, [sp, #8]
  39 0026 0028     		cmp	r0, #0
  40 0028 00F06F82 		beq	.L47
  41 002c 0399     		ldr	r1, [sp, #12]
  42 002e 8E68     		ldr	r6, [r1, #8]
  43 0030 002E     		cmp	r6, #0
  44 0032 00F06A82 		beq	.L47
  45 0036 1068     		ldr	r0, [r2, #0]
  46 0038 059A     		ldr	r2, [sp, #20]
  47 003a 1B18     		adds	r3, r3, r0
  48 003c DF1D     		adds	r7, r3, #7
  49 003e 48BF     		it	mi
  50 0040 03F10E07 		addmi	r7, r3, #14
  51 0044 F910     		asrs	r1, r7, #3
  52 0046 06A8     		add	r0, sp, #24
  53 0048 FFF7FEFF 		bl	xmp3fixpt_SetBitstreamPointer
  54 004c 049A     		ldr	r2, [sp, #16]
  55 004e 1168     		ldr	r1, [r2, #0]
  56 0050 11B1     		cbz	r1, .L4
  57 0052 06A8     		add	r0, sp, #24
  58 0054 FFF7FEFF 		bl	xmp3fixpt_GetBits
  59              	.L4:
  60 0058 0298     		ldr	r0, [sp, #8]
  61 005a 98F80030 		ldrb	r3, [r8, #0]	@ zero_extendqisi2
  62 005e 9022     		movs	r2, #144
  63 0060 4827     		movs	r7, #72
  64 0062 6A43     		muls	r2, r5, r2
  65 0064 00F12809 		add	r9, r0, #40
  66 0068 07FB0421 		mla	r1, r7, r4, r2
  67 006c 09EB0100 		add	r0, r9, r1
  68 0070 002B     		cmp	r3, #0
  69 0072 40F0E480 		bne	.L5
  70 0076 3E21     		movs	r1, #62
  71 0078 7C27     		movs	r7, #124
  72 007a 6143     		muls	r1, r4, r1
  73 007c D0F80CE0 		ldr	lr, [r0, #12]
  74 0080 AD4A     		ldr	r2, .L73
  75 0082 07FB0518 		mla	r8, r7, r5, r1
  76 0086 06EB0807 		add	r7, r6, r8
  77 008a 12F81E80 		ldrb	r8, [r2, lr, lsl #1]	@ zero_extendqisi2
  78 008e 02EB4E02 		add	r2, r2, lr, lsl #1
  79 0092 92F80190 		ldrb	r9, [r2, #1]	@ zero_extendqisi2
  80 0096 4269     		ldr	r2, [r0, #20]
  81 0098 022A     		cmp	r2, #2
  82 009a 46D1     		bne	.L6
  83 009c 8669     		ldr	r6, [r0, #24]
  84 009e 4EB1     		cbz	r6, .L7
  85 00a0 1E46     		mov	r6, r3
  86              	.L8:
  87 00a2 06A8     		add	r0, sp, #24
  88 00a4 4146     		mov	r1, r8
  89 00a6 FFF7FEFF 		bl	xmp3fixpt_GetBits
  90 00aa B855     		strb	r0, [r7, r6]
  91 00ac 0136     		adds	r6, r6, #1
  92 00ae 082E     		cmp	r6, #8
  93 00b0 F7D1     		bne	.L8
  94 00b2 0326     		movs	r6, #3
  95              	.L7:
  96 00b4 06EB4603 		add	r3, r6, r6, lsl #1
  97 00b8 07EB030A 		add	sl, r7, r3
  98 00bc 0AF1170A 		add	sl, sl, #23
  99              	.L9:
 100 00c0 4146     		mov	r1, r8
 101 00c2 06A8     		add	r0, sp, #24
 102 00c4 FFF7FEFF 		bl	xmp3fixpt_GetBits
 103 00c8 4146     		mov	r1, r8
 104 00ca 8AF80000 		strb	r0, [sl, #0]
 105 00ce 06A8     		add	r0, sp, #24
 106 00d0 FFF7FEFF 		bl	xmp3fixpt_GetBits
 107 00d4 4146     		mov	r1, r8
 108 00d6 8AF80100 		strb	r0, [sl, #1]
 109 00da 06A8     		add	r0, sp, #24
 110 00dc FFF7FEFF 		bl	xmp3fixpt_GetBits
 111 00e0 0136     		adds	r6, r6, #1
 112 00e2 062E     		cmp	r6, #6
 113 00e4 8AF80200 		strb	r0, [sl, #2]
 114 00e8 0AF1030A 		add	sl, sl, #3
 115 00ec E8D1     		bne	.L9
 116 00ee B846     		mov	r8, r7
 117              	.L10:
 118 00f0 4946     		mov	r1, r9
 119 00f2 06A8     		add	r0, sp, #24
 120 00f4 FFF7FEFF 		bl	xmp3fixpt_GetBits
 121 00f8 4946     		mov	r1, r9
 122 00fa 88F82900 		strb	r0, [r8, #41]
 123 00fe 06A8     		add	r0, sp, #24
 124 0100 FFF7FEFF 		bl	xmp3fixpt_GetBits
 125 0104 4946     		mov	r1, r9
 126 0106 88F82A00 		strb	r0, [r8, #42]
 127 010a 06A8     		add	r0, sp, #24
 128 010c FFF7FEFF 		bl	xmp3fixpt_GetBits
 129 0110 013E     		subs	r6, r6, #1
 130 0112 88F82B00 		strb	r0, [r8, #43]
 131 0116 08F10308 		add	r8, r8, #3
 132 011a E9D1     		bne	.L10
 133 011c 87F83D60 		strb	r6, [r7, #61]
 134 0120 87F83C60 		strb	r6, [r7, #60]
 135 0124 87F83B60 		strb	r6, [r7, #59]
 136 0128 D2E1     		b	.L11
 137              	.L6:
 138 012a 8DB9     		cbnz	r5, .L12
 139 012c 2E46     		mov	r6, r5
 140              	.L13:
 141 012e 06A8     		add	r0, sp, #24
 142 0130 4146     		mov	r1, r8
 143 0132 FFF7FEFF 		bl	xmp3fixpt_GetBits
 144 0136 B855     		strb	r0, [r7, r6]
 145 0138 0136     		adds	r6, r6, #1
 146 013a 0B2E     		cmp	r6, #11
 147 013c F7D1     		bne	.L13
 148              	.L58:
 149 013e 06A8     		add	r0, sp, #24
 150 0140 4946     		mov	r1, r9
 151 0142 FFF7FEFF 		bl	xmp3fixpt_GetBits
 152 0146 B855     		strb	r0, [r7, r6]
 153 0148 0136     		adds	r6, r6, #1
 154 014a 152E     		cmp	r6, #21
 155 014c F7D1     		bne	.L58
 156 014e BFE1     		b	.L11
 157              	.L12:
 158 0150 2201     		lsls	r2, r4, #4
 159 0152 0832     		adds	r2, r2, #8
 160 0154 0298     		ldr	r0, [sp, #8]
 161 0156 00EB020A 		add	sl, r0, r2
 162 015a 8258     		ldr	r2, [r0, r2]
 163 015c 7618     		adds	r6, r6, r1
 164 015e 2AB1     		cbz	r2, .L49
 165              	.L16:
 166 0160 F15C     		ldrb	r1, [r6, r3]	@ zero_extendqisi2
 167 0162 F954     		strb	r1, [r7, r3]
 168 0164 0133     		adds	r3, r3, #1
 169 0166 062B     		cmp	r3, #6
 170 0168 FAD1     		bne	.L16
 171 016a 0BE0     		b	.L17
 172              	.L49:
 173 016c 9346     		mov	fp, r2
 174              	.L15:
 175 016e 06A8     		add	r0, sp, #24
 176 0170 4146     		mov	r1, r8
 177 0172 FFF7FEFF 		bl	xmp3fixpt_GetBits
 178 0176 07F80B00 		strb	r0, [r7, fp]
 179 017a 0BF1010B 		add	fp, fp, #1
 180 017e BBF1060F 		cmp	fp, #6
 181 0182 F4D1     		bne	.L15
 182              	.L17:
 183 0184 DAF80430 		ldr	r3, [sl, #4]
 184 0188 73B1     		cbz	r3, .L50
 185 018a 96F806E0 		ldrb	lr, [r6, #6]	@ zero_extendqisi2
 186 018e 87F806E0 		strb	lr, [r7, #6]
 187 0192 96F807C0 		ldrb	ip, [r6, #7]	@ zero_extendqisi2
 188 0196 87F807C0 		strb	ip, [r7, #7]
 189 019a 317A     		ldrb	r1, [r6, #8]	@ zero_extendqisi2
 190 019c 3972     		strb	r1, [r7, #8]
 191 019e 707A     		ldrb	r0, [r6, #9]	@ zero_extendqisi2
 192 01a0 7872     		strb	r0, [r7, #9]
 193 01a2 B27A     		ldrb	r2, [r6, #10]	@ zero_extendqisi2
 194 01a4 BA72     		strb	r2, [r7, #10]
 195 01a6 0CE0     		b	.L19
 196              	.L50:
 197 01a8 4FF0060B 		mov	fp, #6
 198              	.L18:
 199 01ac 06A8     		add	r0, sp, #24
 200 01ae 4146     		mov	r1, r8
 201 01b0 FFF7FEFF 		bl	xmp3fixpt_GetBits
 202 01b4 07F80B00 		strb	r0, [r7, fp]
 203 01b8 0BF1010B 		add	fp, fp, #1
 204 01bc BBF10B0F 		cmp	fp, #11
 205 01c0 F4D1     		bne	.L18
 206              	.L19:
 207 01c2 DAF80830 		ldr	r3, [sl, #8]
 208 01c6 73B1     		cbz	r3, .L51
 209 01c8 96F80BE0 		ldrb	lr, [r6, #11]	@ zero_extendqisi2
 210 01cc 87F80BE0 		strb	lr, [r7, #11]
 211 01d0 96F80CC0 		ldrb	ip, [r6, #12]	@ zero_extendqisi2
 212 01d4 87F80CC0 		strb	ip, [r7, #12]
 213 01d8 717B     		ldrb	r1, [r6, #13]	@ zero_extendqisi2
 214 01da 7973     		strb	r1, [r7, #13]
 215 01dc B07B     		ldrb	r0, [r6, #14]	@ zero_extendqisi2
 216 01de B873     		strb	r0, [r7, #14]
 217 01e0 F27B     		ldrb	r2, [r6, #15]	@ zero_extendqisi2
 218 01e2 FA73     		strb	r2, [r7, #15]
 219 01e4 0CE0     		b	.L21
 220              	.L51:
 221 01e6 4FF00B08 		mov	r8, #11
 222              	.L20:
 223 01ea 06A8     		add	r0, sp, #24
 224 01ec 4946     		mov	r1, r9
 225 01ee FFF7FEFF 		bl	xmp3fixpt_GetBits
 226 01f2 07F80800 		strb	r0, [r7, r8]
 227 01f6 08F10108 		add	r8, r8, #1
 228 01fa B8F1100F 		cmp	r8, #16
 229 01fe F4D1     		bne	.L20
 230              	.L21:
 231 0200 DAF80C30 		ldr	r3, [sl, #12]
 232 0204 73B1     		cbz	r3, .L52
 233 0206 96F810E0 		ldrb	lr, [r6, #16]	@ zero_extendqisi2
 234 020a 87F810E0 		strb	lr, [r7, #16]
 235 020e 96F811C0 		ldrb	ip, [r6, #17]	@ zero_extendqisi2
 236 0212 87F811C0 		strb	ip, [r7, #17]
 237 0216 B17C     		ldrb	r1, [r6, #18]	@ zero_extendqisi2
 238 0218 B974     		strb	r1, [r7, #18]
 239 021a F07C     		ldrb	r0, [r6, #19]	@ zero_extendqisi2
 240 021c F874     		strb	r0, [r7, #19]
 241 021e 327D     		ldrb	r2, [r6, #20]	@ zero_extendqisi2
 242 0220 3A75     		strb	r2, [r7, #20]
 243 0222 08E0     		b	.L23
 244              	.L52:
 245 0224 1026     		movs	r6, #16
 246              	.L22:
 247 0226 06A8     		add	r0, sp, #24
 248 0228 4946     		mov	r1, r9
 249 022a FFF7FEFF 		bl	xmp3fixpt_GetBits
 250 022e B855     		strb	r0, [r7, r6]
 251 0230 0136     		adds	r6, r6, #1
 252 0232 152E     		cmp	r6, #21
 253 0234 F7D1     		bne	.L22
 254              	.L23:
 255 0236 0023     		movs	r3, #0
 256 0238 7B75     		strb	r3, [r7, #21]
 257 023a BB75     		strb	r3, [r7, #22]
 258 023c 48E1     		b	.L11
 259              	.L5:
 260 023e 7C27     		movs	r7, #124
 261 0240 6F43     		muls	r7, r5, r7
 262 0242 3E22     		movs	r2, #62
 263 0244 D8F82010 		ldr	r1, [r8, #32]
 264 0248 02FB0479 		mla	r9, r2, r4, r7
 265 024c 06EB0907 		add	r7, r6, r9
 266 0250 11F00109 		ands	r9, r1, #1
 267 0254 06F1F80A 		add	sl, r6, #248
 268 0258 C268     		ldr	r2, [r0, #12]
 269 025a 01D0     		beq	.L24
 270 025c 012C     		cmp	r4, #1
 271 025e 44D0     		beq	.L25
 272              	.L24:
 273 0260 B2F5C87F 		cmp	r2, #400
 274 0264 14DA     		bge	.L26
 275 0266 1111     		asrs	r1, r2, #4
 276 0268 0523     		movs	r3, #5
 277 026a 91FBF3F3 		sdiv	r3, r1, r3
 278 026e 03EB8308 		add	r8, r3, r3, lsl #2
 279 0272 C8EB0101 		rsb	r1, r8, r1
 280 0276 0A93     		str	r3, [sp, #40]
 281 0278 02F00F03 		and	r3, r2, #15
 282 027c 0B91     		str	r1, [sp, #44]
 283 027e 9910     		asrs	r1, r3, #2
 284 0280 02F00303 		and	r3, r2, #3
 285 0284 0D93     		str	r3, [sp, #52]
 286 0286 0023     		movs	r3, #0
 287 0288 0C91     		str	r1, [sp, #48]
 288 028a 1A46     		mov	r2, r3
 289 028c 1946     		mov	r1, r3
 290 028e 67E0     		b	.L27
 291              	.L26:
 292 0290 B2F5FA7F 		cmp	r2, #500
 293 0294 13DA     		bge	.L28
 294 0296 A2F5C872 		sub	r2, r2, #400
 295 029a 9110     		asrs	r1, r2, #2
 296 029c 0523     		movs	r3, #5
 297 029e 91FBF3F3 		sdiv	r3, r1, r3
 298 02a2 03EB830C 		add	ip, r3, r3, lsl #2
 299 02a6 CCEB0101 		rsb	r1, ip, r1
 300 02aa 02F00302 		and	r2, r2, #3
 301 02ae 0A93     		str	r3, [sp, #40]
 302 02b0 0023     		movs	r3, #0
 303 02b2 0B91     		str	r1, [sp, #44]
 304 02b4 0C92     		str	r2, [sp, #48]
 305 02b6 0D93     		str	r3, [sp, #52]
 306 02b8 1946     		mov	r1, r3
 307 02ba 0122     		movs	r2, #1
 308 02bc 50E0     		b	.L27
 309              	.L28:
 310 02be A2F5FA7E 		sub	lr, r2, #500
 311 02c2 0322     		movs	r2, #3
 312 02c4 9EFBF2F1 		sdiv	r1, lr, r2
 313 02c8 01EB4103 		add	r3, r1, r1, lsl #1
 314 02cc 8269     		ldr	r2, [r0, #24]
 315 02ce 0A91     		str	r1, [sp, #40]
 316 02d0 C3EB0E0E 		rsb	lr, r3, lr
 317 02d4 0023     		movs	r3, #0
 318 02d6 CDF82CE0 		str	lr, [sp, #44]
 319 02da 0D93     		str	r3, [sp, #52]
 320 02dc 0C93     		str	r3, [sp, #48]
 321 02de 002A     		cmp	r2, #0
 322 02e0 3BD0     		beq	.L53
 323 02e2 CDF830E0 		str	lr, [sp, #48]
 324 02e6 0B91     		str	r1, [sp, #44]
 325 02e8 38E0     		b	.L71
 326              	.L25:
 327 02ea 02F00103 		and	r3, r2, #1
 328 02ee 5210     		asrs	r2, r2, #1
 329 02f0 B32A     		cmp	r2, #179
 330 02f2 11DC     		bgt	.L29
 331 02f4 4FF0240C 		mov	ip, #36
 332 02f8 92FBFCF1 		sdiv	r1, r2, ip
 333 02fc 0CFB1128 		mls	r8, ip, r1, r2
 334 0300 0A91     		str	r1, [sp, #40]
 335 0302 0621     		movs	r1, #6
 336 0304 98FBF1F2 		sdiv	r2, r8, r1
 337 0308 01FB1281 		mls	r1, r1, r2, r8
 338 030c 0C91     		str	r1, [sp, #48]
 339 030e 0021     		movs	r1, #0
 340 0310 0B92     		str	r2, [sp, #44]
 341 0312 0D91     		str	r1, [sp, #52]
 342 0314 0322     		movs	r2, #3
 343 0316 23E0     		b	.L27
 344              	.L29:
 345 0318 F32A     		cmp	r2, #243
 346 031a 0FDC     		bgt	.L30
 347 031c B43A     		subs	r2, r2, #180
 348 031e 1111     		asrs	r1, r2, #4
 349 0320 0A91     		str	r1, [sp, #40]
 350 0322 02F00F01 		and	r1, r2, #15
 351 0326 8910     		asrs	r1, r1, #2
 352 0328 02F00302 		and	r2, r2, #3
 353 032c 0B91     		str	r1, [sp, #44]
 354 032e 0021     		movs	r1, #0
 355 0330 0C92     		str	r2, [sp, #48]
 356 0332 0D91     		str	r1, [sp, #52]
 357 0334 0422     		movs	r2, #4
 358 0336 13E0     		b	.L27
 359              	.L74:
 360              		.align	2
 361              	.L73:
 362 0338 00000000 		.word	.LANCHOR0
 363              	.L30:
 364 033c F43A     		subs	r2, r2, #244
 365 033e 0321     		movs	r1, #3
 366 0340 92FBF1F1 		sdiv	r1, r2, r1
 367 0344 01EB410E 		add	lr, r1, r1, lsl #1
 368 0348 CEEB0202 		rsb	r2, lr, r2
 369 034c 0A91     		str	r1, [sp, #40]
 370 034e 0021     		movs	r1, #0
 371 0350 0B92     		str	r2, [sp, #44]
 372 0352 0D91     		str	r1, [sp, #52]
 373 0354 0C91     		str	r1, [sp, #48]
 374 0356 0522     		movs	r2, #5
 375 0358 02E0     		b	.L27
 376              	.L53:
 377 035a 1346     		mov	r3, r2
 378              	.L71:
 379 035c 0121     		movs	r1, #1
 380 035e 0222     		movs	r2, #2
 381              	.L27:
 382 0360 D0F814E0 		ldr	lr, [r0, #20]
 383 0364 BEF1020F 		cmp	lr, #2
 384 0368 09D1     		bne	.L54
 385 036a D0F81880 		ldr	r8, [r0, #24]
 386 036e B8F1000F 		cmp	r8, #0
 387 0372 0CBF     		ite	eq
 388 0374 4FF00108 		moveq	r8, #1
 389 0378 4FF00208 		movne	r8, #2
 390 037c 01E0     		b	.L31
 391              	.L54:
 392 037e 4FF00008 		mov	r8, #0
 393              	.L31:
 394 0382 02EB4202 		add	r2, r2, r2, lsl #1
 395 0386 DFF88CC1 		ldr	ip, .L75
 396 038a 4244     		add	r2, r2, r8
 397 038c 1CF82280 		ldrb	r8, [ip, r2, lsl #2]	@ zero_extendqisi2
 398 0390 0CEB8202 		add	r2, ip, r2, lsl #2
 399 0394 CDF83880 		str	r8, [sp, #56]
 400 0398 92F801C0 		ldrb	ip, [r2, #1]	@ zero_extendqisi2
 401 039c CDF83CC0 		str	ip, [sp, #60]
 402 03a0 92F802C0 		ldrb	ip, [r2, #2]	@ zero_extendqisi2
 403 03a4 D278     		ldrb	r2, [r2, #3]	@ zero_extendqisi2
 404 03a6 CDF840C0 		str	ip, [sp, #64]
 405 03aa 1192     		str	r2, [sp, #68]
 406 03ac B9F1000F 		cmp	r9, #0
 407 03b0 16D0     		beq	.L32
 408 03b2 012C     		cmp	r4, #1
 409 03b4 14D1     		bne	.L32
 410 03b6 0022     		movs	r2, #0
 411 03b8 9C46     		mov	ip, r3
 412 03ba 8846     		mov	r8, r1
 413              	.L33:
 414 03bc 0DF12809 		add	r9, sp, #40
 415 03c0 0AEB0203 		add	r3, sl, r2
 416 03c4 52F80910 		ldr	r1, [r2, r9]
 417 03c8 0DF13809 		add	r9, sp, #56
 418 03cc 5960     		str	r1, [r3, #4]
 419 03ce 52F80910 		ldr	r1, [r2, r9]
 420 03d2 0432     		adds	r2, r2, #4
 421 03d4 102A     		cmp	r2, #16
 422 03d6 5961     		str	r1, [r3, #20]
 423 03d8 F0D1     		bne	.L33
 424 03da 4146     		mov	r1, r8
 425 03dc C6F8F8C0 		str	ip, [r6, #248]
 426              	.L32:
 427 03e0 BEF1020F 		cmp	lr, #2
 428 03e4 C163     		str	r1, [r0, #60]
 429 03e6 6BD1     		bne	.L56
 430 03e8 8369     		ldr	r3, [r0, #24]
 431 03ea 63B1     		cbz	r3, .L57
 432 03ec 0026     		movs	r6, #0
 433              	.L36:
 434 03ee 06A8     		add	r0, sp, #24
 435 03f0 0A99     		ldr	r1, [sp, #40]
 436 03f2 FFF7FEFF 		bl	xmp3fixpt_GetBits
 437 03f6 B855     		strb	r0, [r7, r6]
 438 03f8 0136     		adds	r6, r6, #1
 439 03fa 062E     		cmp	r6, #6
 440 03fc F7D1     		bne	.L36
 441 03fe 4FF0010A 		mov	sl, #1
 442 0402 0326     		movs	r6, #3
 443 0404 01E0     		b	.L35
 444              	.L57:
 445 0406 9A46     		mov	sl, r3
 446 0408 1E46     		mov	r6, r3
 447              	.L35:
 448 040a 4FF00009 		mov	r9, #0
 449 040e D346     		mov	fp, sl
 450 0410 2A46     		mov	r2, r5
 451 0412 2346     		mov	r3, r4
 452 0414 31E0     		b	.L37
 453              	.L38:
 454 0416 0DF1280E 		add	lr, sp, #40
 455 041a 0EEB0100 		add	r0, lr, r1
 456 041e 0135     		adds	r5, r5, #1
 457 0420 50F80980 		ldr	r8, [r0, r9]
 458 0424 0192     		str	r2, [sp, #4]
 459 0426 4146     		mov	r1, r8
 460 0428 06A8     		add	r0, sp, #24
 461 042a 0093     		str	r3, [sp, #0]
 462 042c FFF7FEFF 		bl	xmp3fixpt_GetBits
 463 0430 4146     		mov	r1, r8
 464 0432 04F8030C 		strb	r0, [r4, #-3]
 465 0436 06A8     		add	r0, sp, #24
 466 0438 FFF7FEFF 		bl	xmp3fixpt_GetBits
 467 043c 4146     		mov	r1, r8
 468 043e 04F8020C 		strb	r0, [r4, #-2]
 469 0442 06A8     		add	r0, sp, #24
 470 0444 FFF7FEFF 		bl	xmp3fixpt_GetBits
 471 0448 04F8010C 		strb	r0, [r4, #-1]
 472 044c 009B     		ldr	r3, [sp, #0]
 473 044e 019A     		ldr	r2, [sp, #4]
 474              	.L40:
 475 0450 0DF1380C 		add	ip, sp, #56
 476 0454 4FEA8A01 		lsl	r1, sl, #2
 477 0458 0CEB010E 		add	lr, ip, r1
 478 045c 0334     		adds	r4, r4, #3
 479 045e 5EF809C0 		ldr	ip, [lr, r9]
 480 0462 6545     		cmp	r5, ip
 481 0464 05EB0600 		add	r0, r5, r6
 482 0468 D5DB     		blt	.L38
 483 046a 0BF1010B 		add	fp, fp, #1
 484 046e BBF1040F 		cmp	fp, #4
 485 0472 09F10409 		add	r9, r9, #4
 486 0476 06D0     		beq	.L39
 487 0478 0646     		mov	r6, r0
 488              	.L37:
 489 047a 06EB4604 		add	r4, r6, r6, lsl #1
 490 047e 3C19     		adds	r4, r7, r4
 491 0480 1734     		adds	r4, r4, #23
 492 0482 0025     		movs	r5, #0
 493 0484 E4E7     		b	.L40
 494              	.L39:
 495 0486 1546     		mov	r5, r2
 496 0488 0022     		movs	r2, #0
 497 048a 1C46     		mov	r4, r3
 498 048c 87F83D20 		strb	r2, [r7, #61]
 499 0490 87F83C20 		strb	r2, [r7, #60]
 500 0494 87F83B20 		strb	r2, [r7, #59]
 501 0498 1AE0     		b	.L11
 502              	.L41:
 503 049a 0AAB     		add	r3, sp, #40
 504 049c 06A8     		add	r0, sp, #24
 505 049e F158     		ldr	r1, [r6, r3]
 506 04a0 FFF7FEFF 		bl	xmp3fixpt_GetBits
 507 04a4 09F10109 		add	r9, r9, #1
 508 04a8 07F80800 		strb	r0, [r7, r8]
 509 04ac 08F10108 		add	r8, r8, #1
 510              	.L43:
 511 04b0 0EA8     		add	r0, sp, #56
 512 04b2 3158     		ldr	r1, [r6, r0]
 513 04b4 8945     		cmp	r9, r1
 514 04b6 F0DB     		blt	.L41
 515 04b8 0436     		adds	r6, r6, #4
 516 04ba 102E     		cmp	r6, #16
 517 04bc 02D1     		bne	.L34
 518 04be 04E0     		b	.L72
 519              	.L56:
 520 04c0 0026     		movs	r6, #0
 521 04c2 B046     		mov	r8, r6
 522              	.L34:
 523 04c4 4FF00009 		mov	r9, #0
 524 04c8 F2E7     		b	.L43
 525              	.L72:
 526 04ca 0022     		movs	r2, #0
 527 04cc BA75     		strb	r2, [r7, #22]
 528 04ce 7A75     		strb	r2, [r7, #21]
 529              	.L11:
 530 04d0 9023     		movs	r3, #144
 531 04d2 04EB4500 		add	r0, r4, r5, lsl #1
 532 04d6 4822     		movs	r2, #72
 533 04d8 5D43     		muls	r5, r3, r5
 534 04da 02FB045C 		mla	ip, r2, r4, r5
 535 04de 029C     		ldr	r4, [sp, #8]
 536 04e0 049B     		ldr	r3, [sp, #16]
 537 04e2 6444     		add	r4, r4, ip
 538 04e4 00F5FC7E 		add	lr, r0, #504
 539 04e8 A16A     		ldr	r1, [r4, #40]
 540 04ea 0398     		ldr	r0, [sp, #12]
 541 04ec 40F82E10 		str	r1, [r0, lr, lsl #2]
 542 04f0 0599     		ldr	r1, [sp, #20]
 543 04f2 1A68     		ldr	r2, [r3, #0]
 544 04f4 06A8     		add	r0, sp, #24
 545 04f6 FFF7FEFF 		bl	xmp3fixpt_CalcBitsUsed
 546 04fa 0499     		ldr	r1, [sp, #16]
 547 04fc 0A68     		ldr	r2, [r1, #0]
 548 04fe 8018     		adds	r0, r0, r2
 549 0500 00F00703 		and	r3, r0, #7
 550 0504 0B60     		str	r3, [r1, #0]
 551 0506 C010     		asrs	r0, r0, #3
 552 0508 01E0     		b	.L2
 553              	.L47:
 554 050a 4FF0FF30 		mov	r0, #-1
 555              	.L2:
 556 050e 13B0     		add	sp, sp, #76
 557 0510 BDE8F08F 		pop	{r4, r5, r6, r7, r8, r9, sl, fp, pc}
 558              	.L76:
 559              		.align	2
 560              	.L75:
 561 0514 00000000 		.word	.LANCHOR1
 563              		.section	.rodata.SFLenTab,"a",%progbits
 564              		.set	.LANCHOR0,. + 0
 567              	SFLenTab:
 568 0000 00       		.byte	0
 569 0001 00       		.byte	0
 570 0002 00       		.byte	0
 571 0003 01       		.byte	1
 572 0004 00       		.byte	0
 573 0005 02       		.byte	2
 574 0006 00       		.byte	0
 575 0007 03       		.byte	3
 576 0008 03       		.byte	3
 577 0009 00       		.byte	0
 578 000a 01       		.byte	1
 579 000b 01       		.byte	1
 580 000c 01       		.byte	1
 581 000d 02       		.byte	2
 582 000e 01       		.byte	1
 583 000f 03       		.byte	3
 584 0010 02       		.byte	2
 585 0011 01       		.byte	1
 586 0012 02       		.byte	2
 587 0013 02       		.byte	2
 588 0014 02       		.byte	2
 589 0015 03       		.byte	3
 590 0016 03       		.byte	3
 591 0017 01       		.byte	1
 592 0018 03       		.byte	3
 593 0019 02       		.byte	2
 594 001a 03       		.byte	3
 595 001b 03       		.byte	3
 596 001c 04       		.byte	4
 597 001d 02       		.byte	2
 598 001e 04       		.byte	4
 599 001f 03       		.byte	3
 600              		.section	.rodata.NRTab,"a",%progbits
 601              		.set	.LANCHOR1,. + 0
 604              	NRTab:
 605 0000 06       		.byte	6
 606 0001 05       		.byte	5
 607 0002 05       		.byte	5
 608 0003 05       		.byte	5
 609 0004 03       		.byte	3
 610 0005 03       		.byte	3
 611 0006 03       		.byte	3
 612 0007 03       		.byte	3
 613 0008 06       		.byte	6
 614 0009 03       		.byte	3
 615 000a 03       		.byte	3
 616 000b 03       		.byte	3
 617 000c 06       		.byte	6
 618 000d 05       		.byte	5
 619 000e 07       		.byte	7
 620 000f 03       		.byte	3
 621 0010 03       		.byte	3
 622 0011 03       		.byte	3
 623 0012 04       		.byte	4
 624 0013 02       		.byte	2
 625 0014 06       		.byte	6
 626 0015 03       		.byte	3
 627 0016 04       		.byte	4
 628 0017 02       		.byte	2
 629 0018 0B       		.byte	11
 630 0019 0A       		.byte	10
 631 001a 00       		.byte	0
 632 001b 00       		.byte	0
 633 001c 06       		.byte	6
 634 001d 06       		.byte	6
 635 001e 00       		.byte	0
 636 001f 00       		.byte	0
 637 0020 06       		.byte	6
 638 0021 03       		.byte	3
 639 0022 06       		.byte	6
 640 0023 00       		.byte	0
 641 0024 07       		.byte	7
 642 0025 07       		.byte	7
 643 0026 07       		.byte	7
 644 0027 00       		.byte	0
 645 0028 04       		.byte	4
 646 0029 04       		.byte	4
 647 002a 04       		.byte	4
 648 002b 00       		.byte	0
 649 002c 06       		.byte	6
 650 002d 05       		.byte	5
 651 002e 04       		.byte	4
 652 002f 00       		.byte	0
 653 0030 06       		.byte	6
 654 0031 06       		.byte	6
 655 0032 06       		.byte	6
 656 0033 03       		.byte	3
 657 0034 04       		.byte	4
 658 0035 03       		.byte	3
 659 0036 03       		.byte	3
 660 0037 02       		.byte	2
 661 0038 06       		.byte	6
 662 0039 04       		.byte	4
 663 003a 03       		.byte	3
 664 003b 02       		.byte	2
 665 003c 08       		.byte	8
 666 003d 08       		.byte	8
 667 003e 05       		.byte	5
 668 003f 00       		.byte	0
 669 0040 05       		.byte	5
 670 0041 04       		.byte	4
 671 0042 03       		.byte	3
 672 0043 00       		.byte	0
 673 0044 06       		.byte	6
 674 0045 06       		.byte	6
 675 0046 03       		.byte	3
 676 0047 00       		.byte	0
 677              		.ident	"GCC: (Sourcery CodeBench Lite 2012.03-56) 4.6.3"
DEFINED SYMBOLS
                            *ABS*:00000000 scalfact.c
     /tmp/ccZbgrp9.s:17     .text.xmp3fixpt_UnpackScaleFactors:00000000 $t
     /tmp/ccZbgrp9.s:22     .text.xmp3fixpt_UnpackScaleFactors:00000000 xmp3fixpt_UnpackScaleFactors
     /tmp/ccZbgrp9.s:362    .text.xmp3fixpt_UnpackScaleFactors:00000338 $d
     /tmp/ccZbgrp9.s:364    .text.xmp3fixpt_UnpackScaleFactors:0000033c $t
     /tmp/ccZbgrp9.s:561    .text.xmp3fixpt_UnpackScaleFactors:00000514 $d
     /tmp/ccZbgrp9.s:567    .rodata.SFLenTab:00000000 SFLenTab
     /tmp/ccZbgrp9.s:604    .rodata.NRTab:00000000 NRTab

UNDEFINED SYMBOLS
xmp3fixpt_SetBitstreamPointer
xmp3fixpt_GetBits
xmp3fixpt_CalcBitsUsed
