   1              		.syntax unified
   2              		.cpu cortex-m4
   3              		.eabi_attribute 27, 3
   4              		.fpu fpv4-sp-d16
   5              		.eabi_attribute 20, 1
   6              		.eabi_attribute 21, 1
   7              		.eabi_attribute 23, 3
   8              		.eabi_attribute 24, 1
   9              		.eabi_attribute 25, 1
  10              		.eabi_attribute 26, 1
  11              		.eabi_attribute 30, 4
  12              		.eabi_attribute 34, 1
  13              		.eabi_attribute 18, 4
  14              		.thumb
  15              		.file	"subband.c"
  16              		.section	.text.xmp3fixpt_Subband,"ax",%progbits
  17              		.align	1
  18              		.global	xmp3fixpt_Subband
  19              		.thumb
  20              		.thumb_func
  22              	xmp3fixpt_Subband:
  23              		@ args = 0, pretend = 0, frame = 0
  24              		@ frame_needed = 0, uses_anonymous_args = 0
  25 0000 2DE9F74F 		push	{r0, r1, r2, r4, r5, r6, r7, r8, r9, sl, fp, lr}
  26 0004 8B46     		mov	fp, r1
  27 0006 0028     		cmp	r0, #0
  28 0008 69D0     		beq	.L8
  29 000a C368     		ldr	r3, [r0, #12]
  30 000c 002B     		cmp	r3, #0
  31 000e 66D0     		beq	.L8
  32 0010 4569     		ldr	r5, [r0, #20]
  33 0012 002D     		cmp	r5, #0
  34 0014 63D0     		beq	.L8
  35 0016 8469     		ldr	r4, [r0, #24]
  36 0018 002C     		cmp	r4, #0
  37 001a 60D0     		beq	.L8
  38 001c D0F8BC07 		ldr	r0, [r0, #1980]
  39 0020 0026     		movs	r6, #0
  40 0022 0228     		cmp	r0, #2
  41 0024 34D1     		bne	.L3
  42 0026 B246     		mov	sl, r6
  43              	.L4:
  44 0028 05F5D858 		add	r8, r5, #6912
  45 002c 04F50857 		add	r7, r4, #8704
  46 0030 D8F81800 		ldr	r0, [r8, #24]
  47 0034 0AF00109 		and	r9, sl, #1
  48 0038 0090     		str	r0, [sp, #0]
  49 003a 4B46     		mov	r3, r9
  50 003c A819     		adds	r0, r5, r6
  51 003e 2146     		mov	r1, r4
  52 0040 3A68     		ldr	r2, [r7, #0]
  53 0042 FFF7FEFF 		bl	xmp3fixpt_FDCT32
  54 0046 D8F81C30 		ldr	r3, [r8, #28]
  55 004a 06F51062 		add	r2, r6, #2304
  56 004e 0093     		str	r3, [sp, #0]
  57 0050 A818     		adds	r0, r5, r2
  58 0052 4B46     		mov	r3, r9
  59 0054 04F18001 		add	r1, r4, #128
  60 0058 3A68     		ldr	r2, [r7, #0]
  61 005a FFF7FEFF 		bl	xmp3fixpt_FDCT32
  62 005e 3968     		ldr	r1, [r7, #0]
  63 0060 214A     		ldr	r2, .L13
  64 0062 4FF48860 		mov	r0, #1088
  65 0066 00FB0913 		mla	r3, r0, r9, r1
  66 006a 04EB8301 		add	r1, r4, r3, lsl #2
  67 006e 0BEB0600 		add	r0, fp, r6
  68 0072 FFF7FEFF 		bl	xmp3fixpt_PolyphaseStereo
  69 0076 3A68     		ldr	r2, [r7, #0]
  70 0078 0AF1010A 		add	sl, sl, #1
  71 007c C9EB0209 		rsb	r9, r9, r2
  72 0080 09F00701 		and	r1, r9, #7
  73 0084 8036     		adds	r6, r6, #128
  74 0086 BAF1120F 		cmp	sl, #18
  75 008a 3960     		str	r1, [r7, #0]
  76 008c CCD1     		bne	.L4
  77 008e 24E0     		b	.L12
  78              	.L3:
  79 0090 05F5D850 		add	r0, r5, #6912
  80 0094 04F50857 		add	r7, r4, #8704
  81 0098 8369     		ldr	r3, [r0, #24]
  82 009a 06F00108 		and	r8, r6, #1
  83 009e F201     		lsls	r2, r6, #7
  84 00a0 0093     		str	r3, [sp, #0]
  85 00a2 A818     		adds	r0, r5, r2
  86 00a4 4346     		mov	r3, r8
  87 00a6 2146     		mov	r1, r4
  88 00a8 3A68     		ldr	r2, [r7, #0]
  89 00aa FFF7FEFF 		bl	xmp3fixpt_FDCT32
  90 00ae 3968     		ldr	r1, [r7, #0]
  91 00b0 0D4A     		ldr	r2, .L13
  92 00b2 4FF48860 		mov	r0, #1088
  93 00b6 00FB0813 		mla	r3, r0, r8, r1
  94 00ba 04EB8301 		add	r1, r4, r3, lsl #2
  95 00be 5846     		mov	r0, fp
  96 00c0 FFF7FEFF 		bl	xmp3fixpt_PolyphaseMono
  97 00c4 3A68     		ldr	r2, [r7, #0]
  98 00c6 0136     		adds	r6, r6, #1
  99 00c8 C8EB0208 		rsb	r8, r8, r2
 100 00cc 08F00701 		and	r1, r8, #7
 101 00d0 122E     		cmp	r6, #18
 102 00d2 3960     		str	r1, [r7, #0]
 103 00d4 0BF1400B 		add	fp, fp, #64
 104 00d8 DAD1     		bne	.L3
 105              	.L12:
 106 00da 0020     		movs	r0, #0
 107 00dc 01E0     		b	.L2
 108              	.L8:
 109 00de 4FF0FF30 		mov	r0, #-1
 110              	.L2:
 111 00e2 BDE8FE8F 		pop	{r1, r2, r3, r4, r5, r6, r7, r8, r9, sl, fp, pc}
 112              	.L14:
 113 00e6 00BF     		.align	2
 114              	.L13:
 115 00e8 00000000 		.word	xmp3fixpt_polyCoef
 117              		.section	.text.Delay_nop,"ax",%progbits
 118              		.align	1
 119              		.global	Delay_nop
 120              		.thumb
 121              		.thumb_func
 123              	Delay_nop:
 124              		@ args = 0, pretend = 0, frame = 8
 125              		@ frame_needed = 0, uses_anonymous_args = 0
 126              		@ link register save eliminated.
 127 0000 82B0     		sub	sp, sp, #8
 128 0002 0190     		str	r0, [sp, #4]
 129              	.L16:
 130 0004 019B     		ldr	r3, [sp, #4]
 131 0006 5A1E     		subs	r2, r3, #1
 132 0008 0192     		str	r2, [sp, #4]
 133 000a 002B     		cmp	r3, #0
 134 000c FAD1     		bne	.L16
 135 000e 02B0     		add	sp, sp, #8
 136 0010 7047     		bx	lr
 138              		.section	.text.Delay_1us,"ax",%progbits
 139              		.align	1
 140              		.global	Delay_1us
 141              		.thumb
 142              		.thumb_func
 144              	Delay_1us:
 145              		@ args = 0, pretend = 0, frame = 8
 146              		@ frame_needed = 0, uses_anonymous_args = 0
 147              		@ link register save eliminated.
 148 0000 82B0     		sub	sp, sp, #8
 149 0002 0190     		str	r0, [sp, #4]
 150 0004 02E0     		b	.L19
 151              	.L20:
 152 0006 0198     		ldr	r0, [sp, #4]
 153 0008 431E     		subs	r3, r0, #1
 154 000a 0193     		str	r3, [sp, #4]
 155              	.L19:
 156 000c 0199     		ldr	r1, [sp, #4]
 157 000e 0029     		cmp	r1, #0
 158 0010 F9D1     		bne	.L20
 159 0012 02B0     		add	sp, sp, #8
 160 0014 7047     		bx	lr
 162              		.section	.text.Delay_10us,"ax",%progbits
 163              		.align	1
 164              		.global	Delay_10us
 165              		.thumb
 166              		.thumb_func
 168              	Delay_10us:
 169              		@ args = 0, pretend = 0, frame = 8
 170              		@ frame_needed = 0, uses_anonymous_args = 0
 171              		@ link register save eliminated.
 172 0000 82B0     		sub	sp, sp, #8
 173 0002 0190     		str	r0, [sp, #4]
 174 0004 02E0     		b	.L22
 175              	.L23:
 176 0006 0198     		ldr	r0, [sp, #4]
 177 0008 431E     		subs	r3, r0, #1
 178 000a 0193     		str	r3, [sp, #4]
 179              	.L22:
 180 000c 0199     		ldr	r1, [sp, #4]
 181 000e 0029     		cmp	r1, #0
 182 0010 F9D1     		bne	.L23
 183 0012 02B0     		add	sp, sp, #8
 184 0014 7047     		bx	lr
 186              		.section	.text.Delay_100us,"ax",%progbits
 187              		.align	1
 188              		.global	Delay_100us
 189              		.thumb
 190              		.thumb_func
 192              	Delay_100us:
 193              		@ args = 0, pretend = 0, frame = 8
 194              		@ frame_needed = 0, uses_anonymous_args = 0
 195              		@ link register save eliminated.
 196 0000 82B0     		sub	sp, sp, #8
 197 0002 0190     		str	r0, [sp, #4]
 198 0004 02E0     		b	.L25
 199              	.L26:
 200 0006 0198     		ldr	r0, [sp, #4]
 201 0008 431E     		subs	r3, r0, #1
 202 000a 0193     		str	r3, [sp, #4]
 203              	.L25:
 204 000c 0199     		ldr	r1, [sp, #4]
 205 000e 0029     		cmp	r1, #0
 206 0010 F9D1     		bne	.L26
 207 0012 02B0     		add	sp, sp, #8
 208 0014 7047     		bx	lr
 210              		.section	.text.Delay_1ms,"ax",%progbits
 211              		.align	1
 212              		.global	Delay_1ms
 213              		.thumb
 214              		.thumb_func
 216              	Delay_1ms:
 217              		@ args = 0, pretend = 0, frame = 8
 218              		@ frame_needed = 0, uses_anonymous_args = 0
 219              		@ link register save eliminated.
 220 0000 82B0     		sub	sp, sp, #8
 221 0002 0190     		str	r0, [sp, #4]
 222 0004 02E0     		b	.L28
 223              	.L29:
 224 0006 0198     		ldr	r0, [sp, #4]
 225 0008 431E     		subs	r3, r0, #1
 226 000a 0193     		str	r3, [sp, #4]
 227              	.L28:
 228 000c 0199     		ldr	r1, [sp, #4]
 229 000e 0029     		cmp	r1, #0
 230 0010 F9D1     		bne	.L29
 231 0012 02B0     		add	sp, sp, #8
 232 0014 7047     		bx	lr
 234              		.section	.text.Delay_10ms,"ax",%progbits
 235              		.align	1
 236              		.global	Delay_10ms
 237              		.thumb
 238              		.thumb_func
 240              	Delay_10ms:
 241              		@ args = 0, pretend = 0, frame = 8
 242              		@ frame_needed = 0, uses_anonymous_args = 0
 243              		@ link register save eliminated.
 244 0000 82B0     		sub	sp, sp, #8
 245 0002 0190     		str	r0, [sp, #4]
 246 0004 02E0     		b	.L31
 247              	.L32:
 248 0006 0198     		ldr	r0, [sp, #4]
 249 0008 431E     		subs	r3, r0, #1
 250 000a 0193     		str	r3, [sp, #4]
 251              	.L31:
 252 000c 0199     		ldr	r1, [sp, #4]
 253 000e 0029     		cmp	r1, #0
 254 0010 F9D1     		bne	.L32
 255 0012 02B0     		add	sp, sp, #8
 256 0014 7047     		bx	lr
 258              		.section	.text.Delay_100ms,"ax",%progbits
 259              		.align	1
 260              		.global	Delay_100ms
 261              		.thumb
 262              		.thumb_func
 264              	Delay_100ms:
 265              		@ args = 0, pretend = 0, frame = 8
 266              		@ frame_needed = 0, uses_anonymous_args = 0
 267              		@ link register save eliminated.
 268 0000 82B0     		sub	sp, sp, #8
 269 0002 0190     		str	r0, [sp, #4]
 270 0004 02E0     		b	.L34
 271              	.L35:
 272 0006 0198     		ldr	r0, [sp, #4]
 273 0008 431E     		subs	r3, r0, #1
 274 000a 0193     		str	r3, [sp, #4]
 275              	.L34:
 276 000c 0199     		ldr	r1, [sp, #4]
 277 000e 0029     		cmp	r1, #0
 278 0010 F9D1     		bne	.L35
 279 0012 02B0     		add	sp, sp, #8
 280 0014 7047     		bx	lr
 282              		.ident	"GCC: (Sourcery CodeBench Lite 2012.03-56) 4.6.3"