   1              		.syntax unified
   2              		.cpu cortex-m4
   3              		.eabi_attribute 27, 3
   4              		.fpu fpv4-sp-d16
   5              		.eabi_attribute 20, 1
   6              		.eabi_attribute 21, 1
   7              		.eabi_attribute 23, 3
   8              		.eabi_attribute 24, 1
   9              		.eabi_attribute 25, 1
  10              		.eabi_attribute 26, 1
  11              		.eabi_attribute 30, 4
  12              		.eabi_attribute 34, 1
  13              		.eabi_attribute 18, 4
  14              		.thumb
  15              		.file	"stm32_dma.c"
  16              		.section	.text.Vector6C,"ax",%progbits
  17              		.align	1
  18              		.global	Vector6C
  19              		.thumb
  20              		.thumb_func
  22              	Vector6C:
  23              		@ args = 0, pretend = 0, frame = 0
  24              		@ frame_needed = 0, uses_anonymous_args = 0
  25 0000 08B5     		push	{r3, lr}
  26 0002 074B     		ldr	r3, .L3
  27 0004 3D22     		movs	r2, #61
  28 0006 1968     		ldr	r1, [r3, #0]
  29 0008 9A60     		str	r2, [r3, #8]
  30 000a 064A     		ldr	r2, .L3+4
  31 000c 1368     		ldr	r3, [r2, #0]
  32 000e 1BB1     		cbz	r3, .L2
  33 0010 5068     		ldr	r0, [r2, #4]
  34 0012 01F03D01 		and	r1, r1, #61
  35 0016 9847     		blx	r3
  36              	.L2:
  37 0018 BDE80840 		pop	{r3, lr}
  38 001c FFF7FEBF 		b	_port_irq_epilogue
  39              	.L4:
  40              		.align	2
  41              	.L3:
  42 0020 00600240 		.word	1073897472
  43 0024 00000000 		.word	.LANCHOR0
  45              		.section	.text.Vector70,"ax",%progbits
  46              		.align	1
  47              		.global	Vector70
  48              		.thumb
  49              		.thumb_func
  51              	Vector70:
  52              		@ args = 0, pretend = 0, frame = 0
  53              		@ frame_needed = 0, uses_anonymous_args = 0
  54 0000 08B5     		push	{r3, lr}
  55 0002 084B     		ldr	r3, .L7
  56 0004 4FF47462 		mov	r2, #3904
  57 0008 1968     		ldr	r1, [r3, #0]
  58 000a 9A60     		str	r2, [r3, #8]
  59 000c 064A     		ldr	r2, .L7+4
  60 000e 9368     		ldr	r3, [r2, #8]
  61 0010 23B1     		cbz	r3, .L6
  62 0012 8909     		lsrs	r1, r1, #6
  63 0014 5068     		ldr	r0, [r2, #4]
  64 0016 01F03D01 		and	r1, r1, #61
  65 001a 9847     		blx	r3
  66              	.L6:
  67 001c BDE80840 		pop	{r3, lr}
  68 0020 FFF7FEBF 		b	_port_irq_epilogue
  69              	.L8:
  70              		.align	2
  71              	.L7:
  72 0024 00600240 		.word	1073897472
  73 0028 00000000 		.word	.LANCHOR0
  75              		.section	.text.Vector74,"ax",%progbits
  76              		.align	1
  77              		.global	Vector74
  78              		.thumb
  79              		.thumb_func
  81              	Vector74:
  82              		@ args = 0, pretend = 0, frame = 0
  83              		@ frame_needed = 0, uses_anonymous_args = 0
  84 0000 08B5     		push	{r3, lr}
  85 0002 084B     		ldr	r3, .L11
  86 0004 4FF47412 		mov	r2, #3997696
  87 0008 1968     		ldr	r1, [r3, #0]
  88 000a 9A60     		str	r2, [r3, #8]
  89 000c 064A     		ldr	r2, .L11+4
  90 000e 1369     		ldr	r3, [r2, #16]
  91 0010 23B1     		cbz	r3, .L10
  92 0012 090C     		lsrs	r1, r1, #16
  93 0014 5069     		ldr	r0, [r2, #20]
  94 0016 01F03D01 		and	r1, r1, #61
  95 001a 9847     		blx	r3
  96              	.L10:
  97 001c BDE80840 		pop	{r3, lr}
  98 0020 FFF7FEBF 		b	_port_irq_epilogue
  99              	.L12:
 100              		.align	2
 101              	.L11:
 102 0024 00600240 		.word	1073897472
 103 0028 00000000 		.word	.LANCHOR0
 105              		.section	.text.Vector78,"ax",%progbits
 106              		.align	1
 107              		.global	Vector78
 108              		.thumb
 109              		.thumb_func
 111              	Vector78:
 112              		@ args = 0, pretend = 0, frame = 0
 113              		@ frame_needed = 0, uses_anonymous_args = 0
 114 0000 08B5     		push	{r3, lr}
 115 0002 084B     		ldr	r3, .L15
 116 0004 4FF07462 		mov	r2, #255852544
 117 0008 1968     		ldr	r1, [r3, #0]
 118 000a 9A60     		str	r2, [r3, #8]
 119 000c 064A     		ldr	r2, .L15+4
 120 000e 9369     		ldr	r3, [r2, #24]
 121 0010 23B1     		cbz	r3, .L14
 122 0012 890D     		lsrs	r1, r1, #22
 123 0014 D069     		ldr	r0, [r2, #28]
 124 0016 01F03D01 		and	r1, r1, #61
 125 001a 9847     		blx	r3
 126              	.L14:
 127 001c BDE80840 		pop	{r3, lr}
 128 0020 FFF7FEBF 		b	_port_irq_epilogue
 129              	.L16:
 130              		.align	2
 131              	.L15:
 132 0024 00600240 		.word	1073897472
 133 0028 00000000 		.word	.LANCHOR0
 135              		.section	.text.Vector7C,"ax",%progbits
 136              		.align	1
 137              		.global	Vector7C
 138              		.thumb
 139              		.thumb_func
 141              	Vector7C:
 142              		@ args = 0, pretend = 0, frame = 0
 143              		@ frame_needed = 0, uses_anonymous_args = 0
 144 0000 08B5     		push	{r3, lr}
 145 0002 074B     		ldr	r3, .L19
 146 0004 3D22     		movs	r2, #61
 147 0006 5968     		ldr	r1, [r3, #4]
 148 0008 DA60     		str	r2, [r3, #12]
 149 000a 064A     		ldr	r2, .L19+4
 150 000c 136A     		ldr	r3, [r2, #32]
 151 000e 1BB1     		cbz	r3, .L18
 152 0010 506A     		ldr	r0, [r2, #36]
 153 0012 01F03D01 		and	r1, r1, #61
 154 0016 9847     		blx	r3
 155              	.L18:
 156 0018 BDE80840 		pop	{r3, lr}
 157 001c FFF7FEBF 		b	_port_irq_epilogue
 158              	.L20:
 159              		.align	2
 160              	.L19:
 161 0020 00600240 		.word	1073897472
 162 0024 00000000 		.word	.LANCHOR0
 164              		.section	.text.Vector80,"ax",%progbits
 165              		.align	1
 166              		.global	Vector80
 167              		.thumb
 168              		.thumb_func
 170              	Vector80:
 171              		@ args = 0, pretend = 0, frame = 0
 172              		@ frame_needed = 0, uses_anonymous_args = 0
 173 0000 08B5     		push	{r3, lr}
 174 0002 084B     		ldr	r3, .L23
 175 0004 4FF47462 		mov	r2, #3904
 176 0008 5968     		ldr	r1, [r3, #4]
 177 000a DA60     		str	r2, [r3, #12]
 178 000c 064A     		ldr	r2, .L23+4
 179 000e 936A     		ldr	r3, [r2, #40]
 180 0010 23B1     		cbz	r3, .L22
 181 0012 8909     		lsrs	r1, r1, #6
 182 0014 D06A     		ldr	r0, [r2, #44]
 183 0016 01F03D01 		and	r1, r1, #61
 184 001a 9847     		blx	r3
 185              	.L22:
 186 001c BDE80840 		pop	{r3, lr}
 187 0020 FFF7FEBF 		b	_port_irq_epilogue
 188              	.L24:
 189              		.align	2
 190              	.L23:
 191 0024 00600240 		.word	1073897472
 192 0028 00000000 		.word	.LANCHOR0
 194              		.section	.text.Vector84,"ax",%progbits
 195              		.align	1
 196              		.global	Vector84
 197              		.thumb
 198              		.thumb_func
 200              	Vector84:
 201              		@ args = 0, pretend = 0, frame = 0
 202              		@ frame_needed = 0, uses_anonymous_args = 0
 203 0000 08B5     		push	{r3, lr}
 204 0002 084B     		ldr	r3, .L27
 205 0004 4FF47412 		mov	r2, #3997696
 206 0008 5968     		ldr	r1, [r3, #4]
 207 000a DA60     		str	r2, [r3, #12]
 208 000c 064A     		ldr	r2, .L27+4
 209 000e 136B     		ldr	r3, [r2, #48]
 210 0010 23B1     		cbz	r3, .L26
 211 0012 090C     		lsrs	r1, r1, #16
 212 0014 506B     		ldr	r0, [r2, #52]
 213 0016 01F03D01 		and	r1, r1, #61
 214 001a 9847     		blx	r3
 215              	.L26:
 216 001c BDE80840 		pop	{r3, lr}
 217 0020 FFF7FEBF 		b	_port_irq_epilogue
 218              	.L28:
 219              		.align	2
 220              	.L27:
 221 0024 00600240 		.word	1073897472
 222 0028 00000000 		.word	.LANCHOR0
 224              		.section	.text.VectorFC,"ax",%progbits
 225              		.align	1
 226              		.global	VectorFC
 227              		.thumb
 228              		.thumb_func
 230              	VectorFC:
 231              		@ args = 0, pretend = 0, frame = 0
 232              		@ frame_needed = 0, uses_anonymous_args = 0
 233 0000 08B5     		push	{r3, lr}
 234 0002 084B     		ldr	r3, .L31
 235 0004 4FF07462 		mov	r2, #255852544
 236 0008 5968     		ldr	r1, [r3, #4]
 237 000a DA60     		str	r2, [r3, #12]
 238 000c 064A     		ldr	r2, .L31+4
 239 000e 936B     		ldr	r3, [r2, #56]
 240 0010 23B1     		cbz	r3, .L30
 241 0012 890D     		lsrs	r1, r1, #22
 242 0014 D06B     		ldr	r0, [r2, #60]
 243 0016 01F03D01 		and	r1, r1, #61
 244 001a 9847     		blx	r3
 245              	.L30:
 246 001c BDE80840 		pop	{r3, lr}
 247 0020 FFF7FEBF 		b	_port_irq_epilogue
 248              	.L32:
 249              		.align	2
 250              	.L31:
 251 0024 00600240 		.word	1073897472
 252 0028 00000000 		.word	.LANCHOR0
 254              		.section	.text.Vector120,"ax",%progbits
 255              		.align	1
 256              		.global	Vector120
 257              		.thumb
 258              		.thumb_func
 260              	Vector120:
 261              		@ args = 0, pretend = 0, frame = 0
 262              		@ frame_needed = 0, uses_anonymous_args = 0
 263 0000 08B5     		push	{r3, lr}
 264 0002 074B     		ldr	r3, .L35
 265 0004 3D22     		movs	r2, #61
 266 0006 1968     		ldr	r1, [r3, #0]
 267 0008 9A60     		str	r2, [r3, #8]
 268 000a 064A     		ldr	r2, .L35+4
 269 000c 136C     		ldr	r3, [r2, #64]
 270 000e 1BB1     		cbz	r3, .L34
 271 0010 506C     		ldr	r0, [r2, #68]
 272 0012 01F03D01 		and	r1, r1, #61
 273 0016 9847     		blx	r3
 274              	.L34:
 275 0018 BDE80840 		pop	{r3, lr}
 276 001c FFF7FEBF 		b	_port_irq_epilogue
 277              	.L36:
 278              		.align	2
 279              	.L35:
 280 0020 00640240 		.word	1073898496
 281 0024 00000000 		.word	.LANCHOR0
 283              		.section	.text.Vector124,"ax",%progbits
 284              		.align	1
 285              		.global	Vector124
 286              		.thumb
 287              		.thumb_func
 289              	Vector124:
 290              		@ args = 0, pretend = 0, frame = 0
 291              		@ frame_needed = 0, uses_anonymous_args = 0
 292 0000 08B5     		push	{r3, lr}
 293 0002 084B     		ldr	r3, .L39
 294 0004 4FF47462 		mov	r2, #3904
 295 0008 1968     		ldr	r1, [r3, #0]
 296 000a 9A60     		str	r2, [r3, #8]
 297 000c 064A     		ldr	r2, .L39+4
 298 000e 936C     		ldr	r3, [r2, #72]
 299 0010 23B1     		cbz	r3, .L38
 300 0012 8909     		lsrs	r1, r1, #6
 301 0014 D06C     		ldr	r0, [r2, #76]
 302 0016 01F03D01 		and	r1, r1, #61
 303 001a 9847     		blx	r3
 304              	.L38:
 305 001c BDE80840 		pop	{r3, lr}
 306 0020 FFF7FEBF 		b	_port_irq_epilogue
 307              	.L40:
 308              		.align	2
 309              	.L39:
 310 0024 00640240 		.word	1073898496
 311 0028 00000000 		.word	.LANCHOR0
 313              		.section	.text.Vector128,"ax",%progbits
 314              		.align	1
 315              		.global	Vector128
 316              		.thumb
 317              		.thumb_func
 319              	Vector128:
 320              		@ args = 0, pretend = 0, frame = 0
 321              		@ frame_needed = 0, uses_anonymous_args = 0
 322 0000 08B5     		push	{r3, lr}
 323 0002 084B     		ldr	r3, .L43
 324 0004 4FF47412 		mov	r2, #3997696
 325 0008 1968     		ldr	r1, [r3, #0]
 326 000a 9A60     		str	r2, [r3, #8]
 327 000c 064A     		ldr	r2, .L43+4
 328 000e 136D     		ldr	r3, [r2, #80]
 329 0010 23B1     		cbz	r3, .L42
 330 0012 090C     		lsrs	r1, r1, #16
 331 0014 506D     		ldr	r0, [r2, #84]
 332 0016 01F03D01 		and	r1, r1, #61
 333 001a 9847     		blx	r3
 334              	.L42:
 335 001c BDE80840 		pop	{r3, lr}
 336 0020 FFF7FEBF 		b	_port_irq_epilogue
 337              	.L44:
 338              		.align	2
 339              	.L43:
 340 0024 00640240 		.word	1073898496
 341 0028 00000000 		.word	.LANCHOR0
 343              		.section	.text.Vector12C,"ax",%progbits
 344              		.align	1
 345              		.global	Vector12C
 346              		.thumb
 347              		.thumb_func
 349              	Vector12C:
 350              		@ args = 0, pretend = 0, frame = 0
 351              		@ frame_needed = 0, uses_anonymous_args = 0
 352 0000 08B5     		push	{r3, lr}
 353 0002 084B     		ldr	r3, .L47
 354 0004 4FF07462 		mov	r2, #255852544
 355 0008 1968     		ldr	r1, [r3, #0]
 356 000a 9A60     		str	r2, [r3, #8]
 357 000c 064A     		ldr	r2, .L47+4
 358 000e 936D     		ldr	r3, [r2, #88]
 359 0010 23B1     		cbz	r3, .L46
 360 0012 890D     		lsrs	r1, r1, #22
 361 0014 D06D     		ldr	r0, [r2, #92]
 362 0016 01F03D01 		and	r1, r1, #61
 363 001a 9847     		blx	r3
 364              	.L46:
 365 001c BDE80840 		pop	{r3, lr}
 366 0020 FFF7FEBF 		b	_port_irq_epilogue
 367              	.L48:
 368              		.align	2
 369              	.L47:
 370 0024 00640240 		.word	1073898496
 371 0028 00000000 		.word	.LANCHOR0
 373              		.section	.text.Vector130,"ax",%progbits
 374              		.align	1
 375              		.global	Vector130
 376              		.thumb
 377              		.thumb_func
 379              	Vector130:
 380              		@ args = 0, pretend = 0, frame = 0
 381              		@ frame_needed = 0, uses_anonymous_args = 0
 382 0000 08B5     		push	{r3, lr}
 383 0002 074B     		ldr	r3, .L51
 384 0004 3D22     		movs	r2, #61
 385 0006 5968     		ldr	r1, [r3, #4]
 386 0008 DA60     		str	r2, [r3, #12]
 387 000a 064A     		ldr	r2, .L51+4
 388 000c 136E     		ldr	r3, [r2, #96]
 389 000e 1BB1     		cbz	r3, .L50
 390 0010 506E     		ldr	r0, [r2, #100]
 391 0012 01F03D01 		and	r1, r1, #61
 392 0016 9847     		blx	r3
 393              	.L50:
 394 0018 BDE80840 		pop	{r3, lr}
 395 001c FFF7FEBF 		b	_port_irq_epilogue
 396              	.L52:
 397              		.align	2
 398              	.L51:
 399 0020 00640240 		.word	1073898496
 400 0024 00000000 		.word	.LANCHOR0
 402              		.section	.text.Vector150,"ax",%progbits
 403              		.align	1
 404              		.global	Vector150
 405              		.thumb
 406              		.thumb_func
 408              	Vector150:
 409              		@ args = 0, pretend = 0, frame = 0
 410              		@ frame_needed = 0, uses_anonymous_args = 0
 411 0000 08B5     		push	{r3, lr}
 412 0002 084B     		ldr	r3, .L55
 413 0004 4FF47462 		mov	r2, #3904
 414 0008 5968     		ldr	r1, [r3, #4]
 415 000a DA60     		str	r2, [r3, #12]
 416 000c 064A     		ldr	r2, .L55+4
 417 000e 936E     		ldr	r3, [r2, #104]
 418 0010 23B1     		cbz	r3, .L54
 419 0012 8909     		lsrs	r1, r1, #6
 420 0014 D06E     		ldr	r0, [r2, #108]
 421 0016 01F03D01 		and	r1, r1, #61
 422 001a 9847     		blx	r3
 423              	.L54:
 424 001c BDE80840 		pop	{r3, lr}
 425 0020 FFF7FEBF 		b	_port_irq_epilogue
 426              	.L56:
 427              		.align	2
 428              	.L55:
 429 0024 00640240 		.word	1073898496
 430 0028 00000000 		.word	.LANCHOR0
 432              		.section	.text.Vector154,"ax",%progbits
 433              		.align	1
 434              		.global	Vector154
 435              		.thumb
 436              		.thumb_func
 438              	Vector154:
 439              		@ args = 0, pretend = 0, frame = 0
 440              		@ frame_needed = 0, uses_anonymous_args = 0
 441 0000 08B5     		push	{r3, lr}
 442 0002 084B     		ldr	r3, .L59
 443 0004 4FF47412 		mov	r2, #3997696
 444 0008 5968     		ldr	r1, [r3, #4]
 445 000a DA60     		str	r2, [r3, #12]
 446 000c 064A     		ldr	r2, .L59+4
 447 000e 136F     		ldr	r3, [r2, #112]
 448 0010 23B1     		cbz	r3, .L58
 449 0012 090C     		lsrs	r1, r1, #16
 450 0014 506F     		ldr	r0, [r2, #116]
 451 0016 01F03D01 		and	r1, r1, #61
 452 001a 9847     		blx	r3
 453              	.L58:
 454 001c BDE80840 		pop	{r3, lr}
 455 0020 FFF7FEBF 		b	_port_irq_epilogue
 456              	.L60:
 457              		.align	2
 458              	.L59:
 459 0024 00640240 		.word	1073898496
 460 0028 00000000 		.word	.LANCHOR0
 462              		.section	.text.Vector158,"ax",%progbits
 463              		.align	1
 464              		.global	Vector158
 465              		.thumb
 466              		.thumb_func
 468              	Vector158:
 469              		@ args = 0, pretend = 0, frame = 0
 470              		@ frame_needed = 0, uses_anonymous_args = 0
 471 0000 08B5     		push	{r3, lr}
 472 0002 084B     		ldr	r3, .L63
 473 0004 4FF07462 		mov	r2, #255852544
 474 0008 5968     		ldr	r1, [r3, #4]
 475 000a DA60     		str	r2, [r3, #12]
 476 000c 064A     		ldr	r2, .L63+4
 477 000e 936F     		ldr	r3, [r2, #120]
 478 0010 23B1     		cbz	r3, .L62
 479 0012 890D     		lsrs	r1, r1, #22
 480 0014 D06F     		ldr	r0, [r2, #124]
 481 0016 01F03D01 		and	r1, r1, #61
 482 001a 9847     		blx	r3
 483              	.L62:
 484 001c BDE80840 		pop	{r3, lr}
 485 0020 FFF7FEBF 		b	_port_irq_epilogue
 486              	.L64:
 487              		.align	2
 488              	.L63:
 489 0024 00640240 		.word	1073898496
 490 0028 00000000 		.word	.LANCHOR0
 492              		.section	.text.dmaInit,"ax",%progbits
 493              		.align	1
 494              		.global	dmaInit
 495              		.thumb
 496              		.thumb_func
 498              	dmaInit:
 499              		@ args = 0, pretend = 0, frame = 0
 500              		@ frame_needed = 0, uses_anonymous_args = 0
 501              		@ link register save eliminated.
 502 0000 0B4B     		ldr	r3, .L68
 503 0002 0022     		movs	r2, #0
 504 0004 1A60     		str	r2, [r3, #0]
 505 0006 1346     		mov	r3, r2
 506              	.L66:
 507 0008 0A49     		ldr	r1, .L68+4
 508 000a 5858     		ldr	r0, [r3, r1]
 509 000c 0021     		movs	r1, #0
 510 000e 0160     		str	r1, [r0, #0]
 511 0010 0948     		ldr	r0, .L68+8
 512 0012 0C33     		adds	r3, r3, #12
 513 0014 1150     		str	r1, [r2, r0]
 514 0016 0832     		adds	r2, r2, #8
 515 0018 C02B     		cmp	r3, #192
 516 001a F5D1     		bne	.L66
 517 001c 0748     		ldr	r0, .L68+12
 518 001e 084A     		ldr	r2, .L68+16
 519 0020 4FF0FF33 		mov	r3, #-1
 520 0024 8360     		str	r3, [r0, #8]
 521 0026 C360     		str	r3, [r0, #12]
 522 0028 9360     		str	r3, [r2, #8]
 523 002a D360     		str	r3, [r2, #12]
 524 002c 7047     		bx	lr
 525              	.L69:
 526 002e 00BF     		.align	2
 527              	.L68:
 528 0030 00000000 		.word	.LANCHOR1
 529 0034 00000000 		.word	.LANCHOR2
 530 0038 00000000 		.word	.LANCHOR0
 531 003c 00600240 		.word	1073897472
 532 0040 00640240 		.word	1073898496
 534              		.section	.text.dmaStreamAllocate,"ax",%progbits
 535              		.align	1
 536              		.global	dmaStreamAllocate
 537              		.thumb
 538              		.thumb_func
 540              	dmaStreamAllocate:
 541              		@ args = 0, pretend = 0, frame = 0
 542              		@ frame_needed = 0, uses_anonymous_args = 0
 543 0000 F8B5     		push	{r3, r4, r5, r6, r7, lr}
 544 0002 1F4E     		ldr	r6, .L78
 545 0004 457A     		ldrb	r5, [r0, #9]	@ zero_extendqisi2
 546 0006 3768     		ldr	r7, [r6, #0]
 547 0008 0124     		movs	r4, #1
 548 000a 04FA05FC 		lsl	ip, r4, r5
 549 000e 1CEA070F 		tst	ip, r7
 550 0012 30D1     		bne	.L75
 551 0014 1B4C     		ldr	r4, .L78+4
 552 0016 44F83520 		str	r2, [r4, r5, lsl #3]
 553 001a 04EBC505 		add	r5, r4, r5, lsl #3
 554 001e 6B60     		str	r3, [r5, #4]
 555 0020 4CEA0703 		orr	r3, ip, r7
 556 0024 13F0FF0F 		tst	r3, #255
 557 0028 3360     		str	r3, [r6, #0]
 558 002a 04D0     		beq	.L72
 559 002c 164E     		ldr	r6, .L78+8
 560 002e 356B     		ldr	r5, [r6, #48]
 561 0030 45F40017 		orr	r7, r5, #2097152
 562 0034 3763     		str	r7, [r6, #48]
 563              	.L72:
 564 0036 13F47F4F 		tst	r3, #65280
 565 003a 04D0     		beq	.L73
 566 003c 124B     		ldr	r3, .L78+8
 567 003e 1E6B     		ldr	r6, [r3, #48]
 568 0040 46F48004 		orr	r4, r6, #4194304
 569 0044 1C63     		str	r4, [r3, #48]
 570              	.L73:
 571 0046 0368     		ldr	r3, [r0, #0]
 572 0048 1D68     		ldr	r5, [r3, #0]
 573 004a 25F00107 		bic	r7, r5, #1
 574 004e 1F60     		str	r7, [r3, #0]
 575              	.L74:
 576 0050 1C68     		ldr	r4, [r3, #0]
 577 0052 14F00104 		ands	r4, r4, #1
 578 0056 FBD1     		bne	.L74
 579 0058 90F808C0 		ldrb	ip, [r0, #8]	@ zero_extendqisi2
 580 005c 4568     		ldr	r5, [r0, #4]
 581 005e 3D27     		movs	r7, #61
 582 0060 07FA0CF6 		lsl	r6, r7, ip
 583 0064 2E60     		str	r6, [r5, #0]
 584 0066 2125     		movs	r5, #33
 585 0068 1C60     		str	r4, [r3, #0]
 586 006a 5D61     		str	r5, [r3, #20]
 587 006c 2AB1     		cbz	r2, .L76
 588 006e 807A     		ldrb	r0, [r0, #10]	@ zero_extendqisi2
 589 0070 0901     		lsls	r1, r1, #4
 590 0072 FFF7FEFF 		bl	nvicEnableVector
 591              	.L75:
 592 0076 2046     		mov	r0, r4
 593 0078 F8BD     		pop	{r3, r4, r5, r6, r7, pc}
 594              	.L76:
 595 007a 1046     		mov	r0, r2
 596 007c F8BD     		pop	{r3, r4, r5, r6, r7, pc}
 597              	.L79:
 598 007e 00BF     		.align	2
 599              	.L78:
 600 0080 00000000 		.word	.LANCHOR1
 601 0084 00000000 		.word	.LANCHOR0
 602 0088 00380240 		.word	1073887232
 604              		.section	.text.dmaStreamRelease,"ax",%progbits
 605              		.align	1
 606              		.global	dmaStreamRelease
 607              		.thumb
 608              		.thumb_func
 610              	dmaStreamRelease:
 611              		@ args = 0, pretend = 0, frame = 0
 612              		@ frame_needed = 0, uses_anonymous_args = 0
 613 0000 10B5     		push	{r4, lr}
 614 0002 0446     		mov	r4, r0
 615 0004 807A     		ldrb	r0, [r0, #10]	@ zero_extendqisi2
 616 0006 FFF7FEFF 		bl	nvicDisableVector
 617 000a 607A     		ldrb	r0, [r4, #9]	@ zero_extendqisi2
 618 000c 0122     		movs	r2, #1
 619 000e 02FA00F3 		lsl	r3, r2, r0
 620 0012 0B4A     		ldr	r2, .L83
 621 0014 1168     		ldr	r1, [r2, #0]
 622 0016 21EA0303 		bic	r3, r1, r3
 623 001a 13F0FF0F 		tst	r3, #255
 624 001e 1360     		str	r3, [r2, #0]
 625 0020 04D1     		bne	.L81
 626 0022 0848     		ldr	r0, .L83+4
 627 0024 026B     		ldr	r2, [r0, #48]
 628 0026 22F40011 		bic	r1, r2, #2097152
 629 002a 0163     		str	r1, [r0, #48]
 630              	.L81:
 631 002c 13F47F4F 		tst	r3, #65280
 632 0030 04D1     		bne	.L80
 633 0032 044B     		ldr	r3, .L83+4
 634 0034 186B     		ldr	r0, [r3, #48]
 635 0036 20F48001 		bic	r1, r0, #4194304
 636 003a 1963     		str	r1, [r3, #48]
 637              	.L80:
 638 003c 10BD     		pop	{r4, pc}
 639              	.L84:
 640 003e 00BF     		.align	2
 641              	.L83:
 642 0040 00000000 		.word	.LANCHOR1
 643 0044 00380240 		.word	1073887232
 645              		.global	_stm32_dma_streams
 646              		.section	.bss.dma_isr_redir,"aw",%nobits
 647              		.align	2
 648              		.set	.LANCHOR0,. + 0
 651              	dma_isr_redir:
 652 0000 00000000 		.space	128
 652      00000000 
 652      00000000 
 652      00000000 
 652      00000000 
 653              		.section	.rodata._stm32_dma_streams,"a",%progbits
 654              		.align	2
 655              		.set	.LANCHOR2,. + 0
 658              	_stm32_dma_streams:
 659 0000 10600240 		.word	1073897488
 660 0004 08600240 		.word	1073897480
 661 0008 00       		.byte	0
 662 0009 00       		.byte	0
 663 000a 0B       		.byte	11
 664 000b 00       		.space	1
 665 000c 28600240 		.word	1073897512
 666 0010 08600240 		.word	1073897480
 667 0014 06       		.byte	6
 668 0015 01       		.byte	1
 669 0016 0C       		.byte	12
 670 0017 00       		.space	1
 671 0018 40600240 		.word	1073897536
 672 001c 08600240 		.word	1073897480
 673 0020 10       		.byte	16
 674 0021 02       		.byte	2
 675 0022 0D       		.byte	13
 676 0023 00       		.space	1
 677 0024 58600240 		.word	1073897560
 678 0028 08600240 		.word	1073897480
 679 002c 16       		.byte	22
 680 002d 03       		.byte	3
 681 002e 0E       		.byte	14
 682 002f 00       		.space	1
 683 0030 70600240 		.word	1073897584
 684 0034 0C600240 		.word	1073897484
 685 0038 00       		.byte	0
 686 0039 04       		.byte	4
 687 003a 0F       		.byte	15
 688 003b 00       		.space	1
 689 003c 88600240 		.word	1073897608
 690 0040 0C600240 		.word	1073897484
 691 0044 06       		.byte	6
 692 0045 05       		.byte	5
 693 0046 10       		.byte	16
 694 0047 00       		.space	1
 695 0048 A0600240 		.word	1073897632
 696 004c 0C600240 		.word	1073897484
 697 0050 10       		.byte	16
 698 0051 06       		.byte	6
 699 0052 11       		.byte	17
 700 0053 00       		.space	1
 701 0054 B8600240 		.word	1073897656
 702 0058 0C600240 		.word	1073897484
 703 005c 16       		.byte	22
 704 005d 07       		.byte	7
 705 005e 2F       		.byte	47
 706 005f 00       		.space	1
 707 0060 10640240 		.word	1073898512
 708 0064 08640240 		.word	1073898504
 709 0068 00       		.byte	0
 710 0069 08       		.byte	8
 711 006a 38       		.byte	56
 712 006b 00       		.space	1
 713 006c 28640240 		.word	1073898536
 714 0070 08640240 		.word	1073898504
 715 0074 06       		.byte	6
 716 0075 09       		.byte	9
 717 0076 39       		.byte	57
 718 0077 00       		.space	1
 719 0078 40640240 		.word	1073898560
 720 007c 08640240 		.word	1073898504
 721 0080 10       		.byte	16
 722 0081 0A       		.byte	10
 723 0082 3A       		.byte	58
 724 0083 00       		.space	1
 725 0084 58640240 		.word	1073898584
 726 0088 08640240 		.word	1073898504
 727 008c 16       		.byte	22
 728 008d 0B       		.byte	11
 729 008e 3B       		.byte	59
 730 008f 00       		.space	1
 731 0090 70640240 		.word	1073898608
 732 0094 0C640240 		.word	1073898508
 733 0098 00       		.byte	0
 734 0099 0C       		.byte	12
 735 009a 3C       		.byte	60
 736 009b 00       		.space	1
 737 009c 88640240 		.word	1073898632
 738 00a0 0C640240 		.word	1073898508
 739 00a4 06       		.byte	6
 740 00a5 0D       		.byte	13
 741 00a6 44       		.byte	68
 742 00a7 00       		.space	1
 743 00a8 A0640240 		.word	1073898656
 744 00ac 0C640240 		.word	1073898508
 745 00b0 10       		.byte	16
 746 00b1 0E       		.byte	14
 747 00b2 45       		.byte	69
 748 00b3 00       		.space	1
 749 00b4 B8640240 		.word	1073898680
 750 00b8 0C640240 		.word	1073898508
 751 00bc 16       		.byte	22
 752 00bd 0F       		.byte	15
 753 00be 46       		.byte	70
 754 00bf 00       		.space	1
 755              		.section	.bss.dma_streams_mask,"aw",%nobits
 756              		.align	2
 757              		.set	.LANCHOR1,. + 0
 760              	dma_streams_mask:
 761 0000 00000000 		.space	4
 762              		.ident	"GCC: (Sourcery CodeBench Lite 2012.03-56) 4.6.3"