   1              		.syntax unified
   2              		.cpu cortex-m4
   3              		.eabi_attribute 27, 3
   4              		.fpu fpv4-sp-d16
   5              		.eabi_attribute 20, 1
   6              		.eabi_attribute 21, 1
   7              		.eabi_attribute 23, 3
   8              		.eabi_attribute 24, 1
   9              		.eabi_attribute 25, 1
  10              		.eabi_attribute 26, 1
  11              		.eabi_attribute 30, 4
  12              		.eabi_attribute 34, 1
  13              		.eabi_attribute 18, 4
  14              		.thumb
  15              		.file	"st_stm32f4xx_spi.c"
  16              		.section	.text.SPI_I2S_DeInit,"ax",%progbits
  17              		.align	1
  18              		.global	SPI_I2S_DeInit
  19              		.thumb
  20              		.thumb_func
  22              	SPI_I2S_DeInit:
  23              		@ args = 0, pretend = 0, frame = 0
  24              		@ frame_needed = 0, uses_anonymous_args = 0
  25 0000 08B5     		push	{r3, lr}
  26 0002 154B     		ldr	r3, .L6
  27 0004 9842     		cmp	r0, r3
  28 0006 0BD1     		bne	.L2
  29 0008 0121     		movs	r1, #1
  30 000a 4FF48050 		mov	r0, #4096
  31 000e FFF7FEFF 		bl	RCC_APB2PeriphResetCmd
  32 0012 4FF48050 		mov	r0, #4096
  33 0016 0021     		movs	r1, #0
  34 0018 BDE80840 		pop	{r3, lr}
  35 001c FFF7FEBF 		b	RCC_APB2PeriphResetCmd
  36              	.L2:
  37 0020 0E49     		ldr	r1, .L6+4
  38 0022 8842     		cmp	r0, r1
  39 0024 07D1     		bne	.L3
  40 0026 4FF48040 		mov	r0, #16384
  41 002a 0121     		movs	r1, #1
  42 002c FFF7FEFF 		bl	RCC_APB1PeriphResetCmd
  43 0030 4FF48040 		mov	r0, #16384
  44 0034 09E0     		b	.L5
  45              	.L3:
  46 0036 0A4A     		ldr	r2, .L6+8
  47 0038 9042     		cmp	r0, r2
  48 003a 0BD1     		bne	.L1
  49 003c 4FF40040 		mov	r0, #32768
  50 0040 0121     		movs	r1, #1
  51 0042 FFF7FEFF 		bl	RCC_APB1PeriphResetCmd
  52 0046 4FF40040 		mov	r0, #32768
  53              	.L5:
  54 004a 0021     		movs	r1, #0
  55 004c BDE80840 		pop	{r3, lr}
  56 0050 FFF7FEBF 		b	RCC_APB1PeriphResetCmd
  57              	.L1:
  58 0054 08BD     		pop	{r3, pc}
  59              	.L7:
  60 0056 00BF     		.align	2
  61              	.L6:
  62 0058 00300140 		.word	1073819648
  63 005c 00380040 		.word	1073756160
  64 0060 003C0040 		.word	1073757184
  66              		.section	.text.SPI_Init,"ax",%progbits
  67              		.align	1
  68              		.global	SPI_Init
  69              		.thumb
  70              		.thumb_func
  72              	SPI_Init:
  73              		@ args = 0, pretend = 0, frame = 0
  74              		@ frame_needed = 0, uses_anonymous_args = 0
  75 0000 0B88     		ldrh	r3, [r1, #0]
  76 0002 B1F802C0 		ldrh	ip, [r1, #2]
  77 0006 0288     		ldrh	r2, [r0, #0]
  78 0008 10B5     		push	{r4, lr}
  79 000a 8C88     		ldrh	r4, [r1, #4]
  80 000c 4CEA030C 		orr	ip, ip, r3
  81 0010 CB88     		ldrh	r3, [r1, #6]
  82 0012 4CEA040C 		orr	ip, ip, r4
  83 0016 0C89     		ldrh	r4, [r1, #8]
  84 0018 4CEA0303 		orr	r3, ip, r3
  85 001c B1F80AC0 		ldrh	ip, [r1, #10]
  86 0020 2343     		orrs	r3, r3, r4
  87 0022 8C89     		ldrh	r4, [r1, #12]
  88 0024 43EA0C0C 		orr	ip, r3, ip
  89 0028 4CEA0403 		orr	r3, ip, r4
  90 002c CC89     		ldrh	r4, [r1, #14]
  91 002e 02F44152 		and	r2, r2, #12352
  92 0032 43EA040C 		orr	ip, r3, r4
  93 0036 42EA0C03 		orr	r3, r2, ip
  94 003a 0380     		strh	r3, [r0, #0]	@ movhi
  95 003c B0F81CC0 		ldrh	ip, [r0, #28]
  96 0040 2CF40062 		bic	r2, ip, #2048
  97 0044 1304     		lsls	r3, r2, #16
  98 0046 1A0C     		lsrs	r2, r3, #16
  99 0048 0B8A     		ldrh	r3, [r1, #16]
 100 004a 8283     		strh	r2, [r0, #28]	@ movhi
 101 004c 0382     		strh	r3, [r0, #16]	@ movhi
 102 004e 10BD     		pop	{r4, pc}
 104              		.section	.text.I2S_Init,"ax",%progbits
 105              		.align	1
 106              		.global	I2S_Init
 107              		.thumb
 108              		.thumb_func
 110              	I2S_Init:
 111              		@ args = 0, pretend = 0, frame = 0
 112              		@ frame_needed = 0, uses_anonymous_args = 0
 113 0000 838B     		ldrh	r3, [r0, #28]
 114 0002 23F47A6C 		bic	ip, r3, #4000
 115 0006 F0B5     		push	{r4, r5, r6, r7, lr}
 116 0008 2CF01F05 		bic	r5, ip, #31
 117 000c 2C04     		lsls	r4, r5, #16
 118 000e 220C     		lsrs	r2, r4, #16
 119 0010 8283     		strh	r2, [r0, #28]	@ movhi
 120 0012 8A68     		ldr	r2, [r1, #8]
 121 0014 0223     		movs	r3, #2
 122 0016 0384     		strh	r3, [r0, #32]	@ movhi
 123 0018 022A     		cmp	r2, #2
 124 001a 858B     		ldrh	r5, [r0, #28]
 125 001c 3DD0     		beq	.L16
 126 001e 2E4B     		ldr	r3, .L20
 127 0020 8E88     		ldrh	r6, [r1, #4]
 128 0022 9F68     		ldr	r7, [r3, #8]
 129 0024 002E     		cmp	r6, #0
 130 0026 14BF     		ite	ne
 131 0028 0226     		movne	r6, #2
 132 002a 0126     		moveq	r6, #1
 133 002c 3C02     		lsls	r4, r7, #8
 134 002e 03D5     		bpl	.L12
 135 0030 9F68     		ldr	r7, [r3, #8]
 136 0032 27F40004 		bic	r4, r7, #8388608
 137 0036 9C60     		str	r4, [r3, #8]
 138              	.L12:
 139 0038 D3F884C0 		ldr	ip, [r3, #132]
 140 003c D3F88440 		ldr	r4, [r3, #132]
 141 0040 5F68     		ldr	r7, [r3, #4]
 142 0042 264B     		ldr	r3, .L20+4
 143 0044 07F03F07 		and	r7, r7, #63
 144 0048 B3FBF7F7 		udiv	r7, r3, r7
 145 004c 47F6C073 		movw	r3, #32704
 146 0050 0CEA0303 		and	r3, ip, r3
 147 0054 B1F806C0 		ldrh	ip, [r1, #6]
 148 0058 9B09     		lsrs	r3, r3, #6
 149 005a 04F0E044 		and	r4, r4, #1879048192
 150 005e 240F     		lsrs	r4, r4, #28
 151 0060 7B43     		muls	r3, r7, r3
 152 0062 BCF5007F 		cmp	ip, #512
 153 0066 B3FBF4F3 		udiv	r3, r3, r4
 154 006a 4FF00A04 		mov	r4, #10
 155 006e 01D1     		bne	.L13
 156 0070 1B0A     		lsrs	r3, r3, #8
 157 0072 02E0     		b	.L19
 158              	.L13:
 159 0074 7601     		lsls	r6, r6, #5
 160 0076 B3FBF6F3 		udiv	r3, r3, r6
 161              	.L19:
 162 007a 5C43     		muls	r4, r3, r4
 163 007c B4FBF2F4 		udiv	r4, r4, r2
 164 0080 621D     		adds	r2, r4, #5
 165 0082 1FFA82FC 		uxth	ip, r2
 166 0086 0A23     		movs	r3, #10
 167 0088 BCFBF3F4 		udiv	r4, ip, r3
 168 008c 04F00103 		and	r3, r4, #1
 169 0090 6208     		lsrs	r2, r4, #1
 170 0092 1C02     		lsls	r4, r3, #8
 171 0094 92B2     		uxth	r2, r2
 172 0096 A3B2     		uxth	r3, r4
 173 0098 00E0     		b	.L10
 174              	.L16:
 175 009a 0023     		movs	r3, #0
 176              	.L10:
 177 009c 941E     		subs	r4, r2, #2
 178 009e A4B2     		uxth	r4, r4
 179 00a0 FE2C     		cmp	r4, #254
 180 00a2 28BF     		it	cs
 181 00a4 0023     		movcs	r3, #0
 182 00a6 CC88     		ldrh	r4, [r1, #6]
 183 00a8 28BF     		it	cs
 184 00aa 0222     		movcs	r2, #2
 185 00ac 1A43     		orrs	r2, r2, r3
 186 00ae 0B88     		ldrh	r3, [r1, #0]
 187 00b0 42EA040C 		orr	ip, r2, r4
 188 00b4 A0F820C0 		strh	ip, [r0, #32]	@ movhi
 189 00b8 45EA0302 		orr	r2, r5, r3
 190 00bc B1F802C0 		ldrh	ip, [r1, #2]
 191 00c0 42F40063 		orr	r3, r2, #2048
 192 00c4 8A88     		ldrh	r2, [r1, #4]
 193 00c6 43EA0C0C 		orr	ip, r3, ip
 194 00ca 8B89     		ldrh	r3, [r1, #12]
 195 00cc 4CEA020C 		orr	ip, ip, r2
 196 00d0 4CEA0301 		orr	r1, ip, r3
 197 00d4 8183     		strh	r1, [r0, #28]	@ movhi
 198 00d6 F0BD     		pop	{r4, r5, r6, r7, pc}
 199              	.L21:
 200              		.align	2
 201              	.L20:
 202 00d8 00380240 		.word	1073887232
 203 00dc 00127A00 		.word	8000000
 205              		.section	.text.SPI_StructInit,"ax",%progbits
 206              		.align	1
 207              		.global	SPI_StructInit
 208              		.thumb
 209              		.thumb_func
 211              	SPI_StructInit:
 212              		@ args = 0, pretend = 0, frame = 0
 213              		@ frame_needed = 0, uses_anonymous_args = 0
 214              		@ link register save eliminated.
 215 0000 0021     		movs	r1, #0
 216 0002 0723     		movs	r3, #7
 217 0004 0180     		strh	r1, [r0, #0]	@ movhi
 218 0006 4180     		strh	r1, [r0, #2]	@ movhi
 219 0008 8180     		strh	r1, [r0, #4]	@ movhi
 220 000a C180     		strh	r1, [r0, #6]	@ movhi
 221 000c 0181     		strh	r1, [r0, #8]	@ movhi
 222 000e 4181     		strh	r1, [r0, #10]	@ movhi
 223 0010 8181     		strh	r1, [r0, #12]	@ movhi
 224 0012 C181     		strh	r1, [r0, #14]	@ movhi
 225 0014 0382     		strh	r3, [r0, #16]	@ movhi
 226 0016 7047     		bx	lr
 228              		.section	.text.I2S_StructInit,"ax",%progbits
 229              		.align	1
 230              		.global	I2S_StructInit
 231              		.thumb
 232              		.thumb_func
 234              	I2S_StructInit:
 235              		@ args = 0, pretend = 0, frame = 0
 236              		@ frame_needed = 0, uses_anonymous_args = 0
 237              		@ link register save eliminated.
 238 0000 0023     		movs	r3, #0
 239 0002 0222     		movs	r2, #2
 240 0004 0380     		strh	r3, [r0, #0]	@ movhi
 241 0006 4380     		strh	r3, [r0, #2]	@ movhi
 242 0008 8380     		strh	r3, [r0, #4]	@ movhi
 243 000a C380     		strh	r3, [r0, #6]	@ movhi
 244 000c 8260     		str	r2, [r0, #8]
 245 000e 8381     		strh	r3, [r0, #12]	@ movhi
 246 0010 7047     		bx	lr
 248              		.section	.text.SPI_Cmd,"ax",%progbits
 249              		.align	1
 250              		.global	SPI_Cmd
 251              		.thumb
 252              		.thumb_func
 254              	SPI_Cmd:
 255              		@ args = 0, pretend = 0, frame = 0
 256              		@ frame_needed = 0, uses_anonymous_args = 0
 257              		@ link register save eliminated.
 258 0000 0388     		ldrh	r3, [r0, #0]
 259 0002 19B1     		cbz	r1, .L25
 260 0004 9BB2     		uxth	r3, r3
 261 0006 43F04003 		orr	r3, r3, #64
 262 000a 03E0     		b	.L27
 263              	.L25:
 264 000c 23F04002 		bic	r2, r3, #64
 265 0010 1104     		lsls	r1, r2, #16
 266 0012 0B0C     		lsrs	r3, r1, #16
 267              	.L27:
 268 0014 0380     		strh	r3, [r0, #0]	@ movhi
 269 0016 7047     		bx	lr
 271              		.section	.text.I2S_Cmd,"ax",%progbits
 272              		.align	1
 273              		.global	I2S_Cmd
 274              		.thumb
 275              		.thumb_func
 277              	I2S_Cmd:
 278              		@ args = 0, pretend = 0, frame = 0
 279              		@ frame_needed = 0, uses_anonymous_args = 0
 280              		@ link register save eliminated.
 281 0000 838B     		ldrh	r3, [r0, #28]
 282 0002 19B1     		cbz	r1, .L29
 283 0004 9BB2     		uxth	r3, r3
 284 0006 43F48063 		orr	r3, r3, #1024
 285 000a 03E0     		b	.L31
 286              	.L29:
 287 000c 23F48062 		bic	r2, r3, #1024
 288 0010 1104     		lsls	r1, r2, #16
 289 0012 0B0C     		lsrs	r3, r1, #16
 290              	.L31:
 291 0014 8383     		strh	r3, [r0, #28]	@ movhi
 292 0016 7047     		bx	lr
 294              		.section	.text.SPI_DataSizeConfig,"ax",%progbits
 295              		.align	1
 296              		.global	SPI_DataSizeConfig
 297              		.thumb
 298              		.thumb_func
 300              	SPI_DataSizeConfig:
 301              		@ args = 0, pretend = 0, frame = 0
 302              		@ frame_needed = 0, uses_anonymous_args = 0
 303              		@ link register save eliminated.
 304 0000 0288     		ldrh	r2, [r0, #0]
 305 0002 22F40063 		bic	r3, r2, #2048
 306 0006 1A04     		lsls	r2, r3, #16
 307 0008 130C     		lsrs	r3, r2, #16
 308 000a 0380     		strh	r3, [r0, #0]	@ movhi
 309 000c B0F800C0 		ldrh	ip, [r0, #0]
 310 0010 1FFA8CF2 		uxth	r2, ip
 311 0014 41EA0203 		orr	r3, r1, r2
 312 0018 0380     		strh	r3, [r0, #0]	@ movhi
 313 001a 7047     		bx	lr
 315              		.section	.text.SPI_BiDirectionalLineConfig,"ax",%progbits
 316              		.align	1
 317              		.global	SPI_BiDirectionalLineConfig
 318              		.thumb
 319              		.thumb_func
 321              	SPI_BiDirectionalLineConfig:
 322              		@ args = 0, pretend = 0, frame = 0
 323              		@ frame_needed = 0, uses_anonymous_args = 0
 324              		@ link register save eliminated.
 325 0000 B1F5804F 		cmp	r1, #16384
 326 0004 0388     		ldrh	r3, [r0, #0]
 327 0006 03D1     		bne	.L34
 328 0008 9BB2     		uxth	r3, r3
 329 000a 43F48043 		orr	r3, r3, #16384
 330 000e 03E0     		b	.L36
 331              	.L34:
 332 0010 23F48042 		bic	r2, r3, #16384
 333 0014 1104     		lsls	r1, r2, #16
 334 0016 0B0C     		lsrs	r3, r1, #16
 335              	.L36:
 336 0018 0380     		strh	r3, [r0, #0]	@ movhi
 337 001a 7047     		bx	lr
 339              		.section	.text.SPI_NSSInternalSoftwareConfig,"ax",%progbits
 340              		.align	1
 341              		.global	SPI_NSSInternalSoftwareConfig
 342              		.thumb
 343              		.thumb_func
 345              	SPI_NSSInternalSoftwareConfig:
 346              		@ args = 0, pretend = 0, frame = 0
 347              		@ frame_needed = 0, uses_anonymous_args = 0
 348              		@ link register save eliminated.
 349 0000 4FF6FF63 		movw	r3, #65279
 350 0004 9942     		cmp	r1, r3
 351 0006 0388     		ldrh	r3, [r0, #0]
 352 0008 03D0     		beq	.L38
 353 000a 99B2     		uxth	r1, r3
 354 000c 41F48073 		orr	r3, r1, #256
 355 0010 03E0     		b	.L40
 356              	.L38:
 357 0012 23F48073 		bic	r3, r3, #256
 358 0016 1A04     		lsls	r2, r3, #16
 359 0018 130C     		lsrs	r3, r2, #16
 360              	.L40:
 361 001a 0380     		strh	r3, [r0, #0]	@ movhi
 362 001c 7047     		bx	lr
 364              		.section	.text.SPI_SSOutputCmd,"ax",%progbits
 365              		.align	1
 366              		.global	SPI_SSOutputCmd
 367              		.thumb
 368              		.thumb_func
 370              	SPI_SSOutputCmd:
 371              		@ args = 0, pretend = 0, frame = 0
 372              		@ frame_needed = 0, uses_anonymous_args = 0
 373              		@ link register save eliminated.
 374 0000 8388     		ldrh	r3, [r0, #4]
 375 0002 19B1     		cbz	r1, .L42
 376 0004 9BB2     		uxth	r3, r3
 377 0006 43F00403 		orr	r3, r3, #4
 378 000a 03E0     		b	.L44
 379              	.L42:
 380 000c 23F00402 		bic	r2, r3, #4
 381 0010 1104     		lsls	r1, r2, #16
 382 0012 0B0C     		lsrs	r3, r1, #16
 383              	.L44:
 384 0014 8380     		strh	r3, [r0, #4]	@ movhi
 385 0016 7047     		bx	lr
 387              		.section	.text.SPI_TIModeCmd,"ax",%progbits
 388              		.align	1
 389              		.global	SPI_TIModeCmd
 390              		.thumb
 391              		.thumb_func
 393              	SPI_TIModeCmd:
 394              		@ args = 0, pretend = 0, frame = 0
 395              		@ frame_needed = 0, uses_anonymous_args = 0
 396              		@ link register save eliminated.
 397 0000 8388     		ldrh	r3, [r0, #4]
 398 0002 19B1     		cbz	r1, .L46
 399 0004 9BB2     		uxth	r3, r3
 400 0006 43F01003 		orr	r3, r3, #16
 401 000a 03E0     		b	.L48
 402              	.L46:
 403 000c 23F01002 		bic	r2, r3, #16
 404 0010 1104     		lsls	r1, r2, #16
 405 0012 0B0C     		lsrs	r3, r1, #16
 406              	.L48:
 407 0014 8380     		strh	r3, [r0, #4]	@ movhi
 408 0016 7047     		bx	lr
 410              		.section	.text.I2S_FullDuplexConfig,"ax",%progbits
 411              		.align	1
 412              		.global	I2S_FullDuplexConfig
 413              		.thumb
 414              		.thumb_func
 416              	I2S_FullDuplexConfig:
 417              		@ args = 0, pretend = 0, frame = 0
 418              		@ frame_needed = 0, uses_anonymous_args = 0
 419 0000 10B5     		push	{r4, lr}
 420 0002 848B     		ldrh	r4, [r0, #28]
 421 0004 24F47A62 		bic	r2, r4, #4000
 422 0008 22F01F03 		bic	r3, r2, #31
 423 000c 1C04     		lsls	r4, r3, #16
 424 000e 220C     		lsrs	r2, r4, #16
 425 0010 0223     		movs	r3, #2
 426 0012 8283     		strh	r2, [r0, #28]	@ movhi
 427 0014 0384     		strh	r3, [r0, #32]	@ movhi
 428 0016 0B88     		ldrh	r3, [r1, #0]
 429 0018 828B     		ldrh	r2, [r0, #28]
 430 001a B3F5007F 		cmp	r3, #512
 431 001e 05D0     		beq	.L51
 432 0020 002B     		cmp	r3, #0
 433 0022 0CBF     		ite	eq
 434 0024 4FF48073 		moveq	r3, #256
 435 0028 0023     		movne	r3, #0
 436 002a 01E0     		b	.L50
 437              	.L51:
 438 002c 4FF48073 		mov	r3, #256
 439              	.L50:
 440 0030 B1F802C0 		ldrh	ip, [r1, #2]
 441 0034 42EA0C04 		orr	r4, r2, ip
 442 0038 44F40062 		orr	r2, r4, #2048
 443 003c 8C88     		ldrh	r4, [r1, #4]
 444 003e 8989     		ldrh	r1, [r1, #12]
 445 0040 42EA040C 		orr	ip, r2, r4
 446 0044 4CEA0102 		orr	r2, ip, r1
 447 0048 1FFA82FC 		uxth	ip, r2
 448 004c 4CEA0301 		orr	r1, ip, r3
 449 0050 8183     		strh	r1, [r0, #28]	@ movhi
 450 0052 10BD     		pop	{r4, pc}
 452              		.section	.text.SPI_I2S_ReceiveData,"ax",%progbits
 453              		.align	1
 454              		.global	SPI_I2S_ReceiveData
 455              		.thumb
 456              		.thumb_func
 458              	SPI_I2S_ReceiveData:
 459              		@ args = 0, pretend = 0, frame = 0
 460              		@ frame_needed = 0, uses_anonymous_args = 0
 461              		@ link register save eliminated.
 462 0000 8089     		ldrh	r0, [r0, #12]
 463 0002 80B2     		uxth	r0, r0
 464 0004 7047     		bx	lr
 466              		.section	.text.SPI_I2S_SendData,"ax",%progbits
 467              		.align	1
 468              		.global	SPI_I2S_SendData
 469              		.thumb
 470              		.thumb_func
 472              	SPI_I2S_SendData:
 473              		@ args = 0, pretend = 0, frame = 0
 474              		@ frame_needed = 0, uses_anonymous_args = 0
 475              		@ link register save eliminated.
 476 0000 8181     		strh	r1, [r0, #12]	@ movhi
 477 0002 7047     		bx	lr
 479              		.section	.text.SPI_CalculateCRC,"ax",%progbits
 480              		.align	1
 481              		.global	SPI_CalculateCRC
 482              		.thumb
 483              		.thumb_func
 485              	SPI_CalculateCRC:
 486              		@ args = 0, pretend = 0, frame = 0
 487              		@ frame_needed = 0, uses_anonymous_args = 0
 488              		@ link register save eliminated.
 489 0000 0388     		ldrh	r3, [r0, #0]
 490 0002 19B1     		cbz	r1, .L56
 491 0004 9BB2     		uxth	r3, r3
 492 0006 43F40053 		orr	r3, r3, #8192
 493 000a 03E0     		b	.L58
 494              	.L56:
 495 000c 23F40052 		bic	r2, r3, #8192
 496 0010 1104     		lsls	r1, r2, #16
 497 0012 0B0C     		lsrs	r3, r1, #16
 498              	.L58:
 499 0014 0380     		strh	r3, [r0, #0]	@ movhi
 500 0016 7047     		bx	lr
 502              		.section	.text.SPI_TransmitCRC,"ax",%progbits
 503              		.align	1
 504              		.global	SPI_TransmitCRC
 505              		.thumb
 506              		.thumb_func
 508              	SPI_TransmitCRC:
 509              		@ args = 0, pretend = 0, frame = 0
 510              		@ frame_needed = 0, uses_anonymous_args = 0
 511              		@ link register save eliminated.
 512 0000 0288     		ldrh	r2, [r0, #0]
 513 0002 91B2     		uxth	r1, r2
 514 0004 41F48053 		orr	r3, r1, #4096
 515 0008 0380     		strh	r3, [r0, #0]	@ movhi
 516 000a 7047     		bx	lr
 518              		.section	.text.SPI_GetCRC,"ax",%progbits
 519              		.align	1
 520              		.global	SPI_GetCRC
 521              		.thumb
 522              		.thumb_func
 524              	SPI_GetCRC:
 525              		@ args = 0, pretend = 0, frame = 0
 526              		@ frame_needed = 0, uses_anonymous_args = 0
 527              		@ link register save eliminated.
 528 0000 0129     		cmp	r1, #1
 529 0002 02D0     		beq	.L61
 530 0004 008B     		ldrh	r0, [r0, #24]
 531 0006 80B2     		uxth	r0, r0
 532 0008 7047     		bx	lr
 533              	.L61:
 534 000a 818A     		ldrh	r1, [r0, #20]
 535 000c 88B2     		uxth	r0, r1
 536 000e 7047     		bx	lr
 538              		.section	.text.SPI_GetCRCPolynomial,"ax",%progbits
 539              		.align	1
 540              		.global	SPI_GetCRCPolynomial
 541              		.thumb
 542              		.thumb_func
 544              	SPI_GetCRCPolynomial:
 545              		@ args = 0, pretend = 0, frame = 0
 546              		@ frame_needed = 0, uses_anonymous_args = 0
 547              		@ link register save eliminated.
 548 0000 008A     		ldrh	r0, [r0, #16]
 549 0002 80B2     		uxth	r0, r0
 550 0004 7047     		bx	lr
 552              		.section	.text.SPI_I2S_DMACmd,"ax",%progbits
 553              		.align	1
 554              		.global	SPI_I2S_DMACmd
 555              		.thumb
 556              		.thumb_func
 558              	SPI_I2S_DMACmd:
 559              		@ args = 0, pretend = 0, frame = 0
 560              		@ frame_needed = 0, uses_anonymous_args = 0
 561              		@ link register save eliminated.
 562 0000 8388     		ldrh	r3, [r0, #4]
 563 0002 9BB2     		uxth	r3, r3
 564 0004 0AB1     		cbz	r2, .L65
 565 0006 1943     		orrs	r1, r1, r3
 566 0008 01E0     		b	.L67
 567              	.L65:
 568 000a 23EA0101 		bic	r1, r3, r1
 569              	.L67:
 570 000e 8180     		strh	r1, [r0, #4]	@ movhi
 571 0010 7047     		bx	lr
 573              		.section	.text.SPI_I2S_ITConfig,"ax",%progbits
 574              		.align	1
 575              		.global	SPI_I2S_ITConfig
 576              		.thumb
 577              		.thumb_func
 579              	SPI_I2S_ITConfig:
 580              		@ args = 0, pretend = 0, frame = 0
 581              		@ frame_needed = 0, uses_anonymous_args = 0
 582              		@ link register save eliminated.
 583 0000 0909     		lsrs	r1, r1, #4
 584 0002 0123     		movs	r3, #1
 585 0004 03FA01F3 		lsl	r3, r3, r1
 586 0008 9BB2     		uxth	r3, r3
 587 000a 1AB1     		cbz	r2, .L69
 588 000c 8188     		ldrh	r1, [r0, #4]
 589 000e 8AB2     		uxth	r2, r1
 590 0010 1343     		orrs	r3, r3, r2
 591 0012 04E0     		b	.L71
 592              	.L69:
 593 0014 8288     		ldrh	r2, [r0, #4]
 594 0016 1FFA82FC 		uxth	ip, r2
 595 001a 2CEA0303 		bic	r3, ip, r3
 596              	.L71:
 597 001e 8380     		strh	r3, [r0, #4]	@ movhi
 598 0020 7047     		bx	lr
 600              		.section	.text.SPI_I2S_GetFlagStatus,"ax",%progbits
 601              		.align	1
 602              		.global	SPI_I2S_GetFlagStatus
 603              		.thumb
 604              		.thumb_func
 606              	SPI_I2S_GetFlagStatus:
 607              		@ args = 0, pretend = 0, frame = 0
 608              		@ frame_needed = 0, uses_anonymous_args = 0
 609              		@ link register save eliminated.
 610 0000 0389     		ldrh	r3, [r0, #8]
 611 0002 1942     		tst	r1, r3
 612 0004 0CBF     		ite	eq
 613 0006 0020     		moveq	r0, #0
 614 0008 0120     		movne	r0, #1
 615 000a 7047     		bx	lr
 617              		.section	.text.SPI_I2S_ClearFlag,"ax",%progbits
 618              		.align	1
 619              		.global	SPI_I2S_ClearFlag
 620              		.thumb
 621              		.thumb_func
 623              	SPI_I2S_ClearFlag:
 624              		@ args = 0, pretend = 0, frame = 0
 625              		@ frame_needed = 0, uses_anonymous_args = 0
 626              		@ link register save eliminated.
 627 0000 C943     		mvns	r1, r1
 628 0002 0181     		strh	r1, [r0, #8]	@ movhi
 629 0004 7047     		bx	lr
 631              		.section	.text.SPI_I2S_GetITStatus,"ax",%progbits
 632              		.align	1
 633              		.global	SPI_I2S_GetITStatus
 634              		.thumb
 635              		.thumb_func
 637              	SPI_I2S_GetITStatus:
 638              		@ args = 0, pretend = 0, frame = 0
 639              		@ frame_needed = 0, uses_anonymous_args = 0
 640 0000 10B5     		push	{r4, lr}
 641 0002 8488     		ldrh	r4, [r0, #4]
 642 0004 0389     		ldrh	r3, [r0, #8]
 643 0006 01F00F0C 		and	ip, r1, #15
 644 000a 98B2     		uxth	r0, r3
 645 000c 0123     		movs	r3, #1
 646 000e 03FA0CF2 		lsl	r2, r3, ip
 647 0012 1040     		ands	r0, r0, r2
 648 0014 A4B2     		uxth	r4, r4
 649 0016 06D0     		beq	.L75
 650 0018 0809     		lsrs	r0, r1, #4
 651 001a 03FA00F1 		lsl	r1, r3, r0
 652 001e 0C42     		tst	r4, r1
 653 0020 0CBF     		ite	eq
 654 0022 0020     		moveq	r0, #0
 655 0024 0120     		movne	r0, #1
 656              	.L75:
 657 0026 10BD     		pop	{r4, pc}
 659              		.section	.text.SPI_I2S_ClearITPendingBit,"ax",%progbits
 660              		.align	1
 661              		.global	SPI_I2S_ClearITPendingBit
 662              		.thumb
 663              		.thumb_func
 665              	SPI_I2S_ClearITPendingBit:
 666              		@ args = 0, pretend = 0, frame = 0
 667              		@ frame_needed = 0, uses_anonymous_args = 0
 668              		@ link register save eliminated.
 669 0000 01F00F03 		and	r3, r1, #15
 670 0004 0122     		movs	r2, #1
 671 0006 02FA03F1 		lsl	r1, r2, r3
 672 000a CB43     		mvns	r3, r1
 673 000c 0381     		strh	r3, [r0, #8]	@ movhi
 674 000e 7047     		bx	lr
 676              		.ident	"GCC: (Sourcery CodeBench Lite 2012.03-56) 4.6.3"