   1              		.syntax unified
   2              		.cpu cortex-m4
   3              		.eabi_attribute 27, 3
   4              		.fpu fpv4-sp-d16
   5              		.eabi_attribute 20, 1
   6              		.eabi_attribute 21, 1
   7              		.eabi_attribute 23, 3
   8              		.eabi_attribute 24, 1
   9              		.eabi_attribute 25, 1
  10              		.eabi_attribute 26, 1
  11              		.eabi_attribute 30, 4
  12              		.eabi_attribute 34, 1
  13              		.eabi_attribute 18, 4
  14              		.thumb
  15              		.file	"main.c"
  16              		.section	.text.mmc_is_inserted,"ax",%progbits
  17              		.align	1
  18              		.thumb
  19              		.thumb_func
  21              	mmc_is_inserted:
  22              		@ args = 0, pretend = 0, frame = 0
  23              		@ frame_needed = 0, uses_anonymous_args = 0
  24              		@ link register save eliminated.
  25 0000 0120     		movs	r0, #1
  26 0002 7047     		bx	lr
  28              		.section	.text.mmc_is_protected,"ax",%progbits
  29              		.align	1
  30              		.thumb
  31              		.thumb_func
  33              	mmc_is_protected:
  34              		@ args = 0, pretend = 0, frame = 0
  35              		@ frame_needed = 0, uses_anonymous_args = 0
  36              		@ link register save eliminated.
  37 0000 0120     		movs	r0, #1
  38 0002 7047     		bx	lr
  40              		.section	.text.RemoveHandler,"ax",%progbits
  41              		.align	1
  42              		.thumb
  43              		.thumb_func
  45              	RemoveHandler:
  46              		@ args = 0, pretend = 0, frame = 0
  47              		@ frame_needed = 0, uses_anonymous_args = 0
  48              		@ link register save eliminated.
  49 0000 014B     		ldr	r3, .L4
  50 0002 0022     		movs	r2, #0
  51 0004 1A60     		str	r2, [r3, #0]
  52 0006 7047     		bx	lr
  53              	.L5:
  54              		.align	2
  55              	.L4:
  56 0008 00000000 		.word	.LANCHOR0
  58              		.section	.text.BlinkThread,"ax",%progbits
  59              		.align	1
  60              		.thumb
  61              		.thumb_func
  63              	BlinkThread:
  64              		@ args = 0, pretend = 0, frame = 0
  65              		@ frame_needed = 0, uses_anonymous_args = 0
  66 0000 0F48     		ldr	r0, .L9
  67 0002 104A     		ldr	r2, .L9+4
  68 0004 C369     		ldr	r3, [r0, #28]
  69 0006 10B5     		push	{r4, lr}
  70 0008 9A61     		str	r2, [r3, #24]
  71              	.L8:
  72 000a 0F4C     		ldr	r4, .L9+8
  73 000c 2169     		ldr	r1, [r4, #16]
  74 000e CB07     		lsls	r3, r1, #31
  75 0010 05D5     		bpl	.L7
  76 0012 0E4A     		ldr	r2, .L9+12
  77 0014 1068     		ldr	r0, [r2, #0]
  78 0016 10B1     		cbz	r0, .L7
  79 0018 0821     		movs	r1, #8
  80 001a FFF7FEFF 		bl	chEvtSignalFlags
  81              	.L7:
  82 001e 0C4C     		ldr	r4, .L9+16
  83 0020 4FF4005E 		mov	lr, #8192	@ movhi
  84 0024 5020     		movs	r0, #80
  85 0026 A4F818E0 		strh	lr, [r4, #24]	@ movhi
  86 002a FFF7FEFF 		bl	chThdSleep
  87 002e 4FF4005C 		mov	ip, #8192	@ movhi
  88 0032 A4F81AC0 		strh	ip, [r4, #26]	@ movhi
  89 0036 5020     		movs	r0, #80
  90 0038 FFF7FEFF 		bl	chThdSleep
  91 003c E5E7     		b	.L8
  92              	.L10:
  93 003e 00BF     		.align	2
  94              	.L9:
  95 0040 00000000 		.word	rlist
  96 0044 00000000 		.word	.LC0
  97 0048 00000240 		.word	1073872896
  98 004c 00000000 		.word	.LANCHOR1
  99 0050 000C0240 		.word	1073875968
 101              		.section	.text.I2SDmaTxInterrupt,"ax",%progbits
 102              		.align	1
 103              		.thumb
 104              		.thumb_func
 106              	I2SDmaTxInterrupt:
 107              		@ args = 0, pretend = 0, frame = 0
 108              		@ frame_needed = 0, uses_anonymous_args = 0
 109 0000 0F4B     		ldr	r3, .L14
 110 0002 8342     		cmp	r3, r0
 111 0004 10B5     		push	{r4, lr}
 112 0006 0C46     		mov	r4, r1
 113 0008 19D1     		bne	.L11
 114 000a C906     		lsls	r1, r1, #27
 115 000c 0AD5     		bpl	.L13
 116 000e 2023     		movs	r3, #32
 117              	@ 497 "../src/main.c" 1
 118 0010 83F31188 		msr     BASEPRI, r3
 119              	@ 0 "" 2
 120              		.thumb
 121 0014 0B48     		ldr	r0, .L14+4
 122 0016 0221     		movs	r1, #2
 123 0018 0068     		ldr	r0, [r0, #0]
 124 001a FFF7FEFF 		bl	chEvtSignalFlagsI
 125 001e 0023     		movs	r3, #0
 126              	@ 499 "../src/main.c" 1
 127 0020 83F31188 		msr     BASEPRI, r3
 128              	@ 0 "" 2
 129              		.thumb
 130              	.L13:
 131 0024 A206     		lsls	r2, r4, #26
 132 0026 0AD5     		bpl	.L11
 133 0028 2023     		movs	r3, #32
 134              	@ 504 "../src/main.c" 1
 135 002a 83F31188 		msr     BASEPRI, r3
 136              	@ 0 "" 2
 137              		.thumb
 138 002e 0549     		ldr	r1, .L14+4
 139 0030 0868     		ldr	r0, [r1, #0]
 140 0032 0421     		movs	r1, #4
 141 0034 FFF7FEFF 		bl	chEvtSignalFlagsI
 142 0038 0023     		movs	r3, #0
 143              	@ 506 "../src/main.c" 1
 144 003a 83F31188 		msr     BASEPRI, r3
 145              	@ 0 "" 2
 146              		.thumb
 147              	.L11:
 148 003e 10BD     		pop	{r4, pc}
 149              	.L15:
 150              		.align	2
 151              	.L14:
 152 0040 00000000 		.word	SPID3
 153 0044 00000000 		.word	.LANCHOR1
 155              		.section	.text.Mp3ReadId3V2Text.constprop.1,"ax",%progbits
 156              		.align	1
 157              		.thumb
 158              		.thumb_func
 160              	Mp3ReadId3V2Text.constprop.1:
 161              		@ args = 0, pretend = 0, frame = 8
 162              		@ frame_needed = 0, uses_anonymous_args = 0
 163 0000 F7B5     		push	{r0, r1, r2, r4, r5, r6, r7, lr}
 164 0002 0C46     		mov	r4, r1
 165 0004 02A9     		add	r1, sp, #8
 166 0006 0023     		movs	r3, #0
 167 0008 1546     		mov	r5, r2
 168 000a 0093     		str	r3, [sp, #0]
 169 000c 01F8013D 		strb	r3, [r1, #-1]!
 170 0010 0122     		movs	r2, #1
 171 0012 6B46     		mov	r3, sp
 172 0014 0646     		mov	r6, r0
 173 0016 FFF7FEFF 		bl	f_read
 174 001a 0028     		cmp	r0, #0
 175 001c 36D1     		bne	.L25
 176 001e 009F     		ldr	r7, [sp, #0]
 177 0020 012F     		cmp	r7, #1
 178 0022 33D1     		bne	.L25
 179 0024 013C     		subs	r4, r4, #1
 180 0026 4F2C     		cmp	r4, #79
 181 0028 27D8     		bhi	.L18
 182 002a 3046     		mov	r0, r6
 183 002c 2946     		mov	r1, r5
 184 002e 2246     		mov	r2, r4
 185 0030 6B46     		mov	r3, sp
 186 0032 FFF7FEFF 		bl	f_read
 187 0036 10B1     		cbz	r0, .L19
 188 0038 0098     		ldr	r0, [sp, #0]
 189 003a A042     		cmp	r0, r4
 190 003c 28D1     		bne	.L26
 191              	.L19:
 192 003e 9DF80700 		ldrb	r0, [sp, #7]	@ zero_extendqisi2
 193 0042 08B9     		cbnz	r0, .L20
 194 0044 2855     		strb	r0, [r5, r4]
 195 0046 26E0     		b	.L17
 196              	.L20:
 197 0048 0128     		cmp	r0, #1
 198 004a 23D1     		bne	.L27
 199 004c 022C     		cmp	r4, #2
 200 004e 08D9     		bls	.L29
 201 0050 2978     		ldrb	r1, [r5, #0]	@ zero_extendqisi2
 202 0052 FF29     		cmp	r1, #255
 203 0054 05D1     		bne	.L29
 204 0056 6A78     		ldrb	r2, [r5, #1]	@ zero_extendqisi2
 205 0058 FE2A     		cmp	r2, #254
 206 005a 0CBF     		ite	eq
 207 005c 0223     		moveq	r3, #2
 208 005e 0023     		movne	r3, #0
 209 0060 00E0     		b	.L21
 210              	.L29:
 211 0062 0023     		movs	r3, #0
 212              	.L21:
 213 0064 0022     		movs	r2, #0
 214 0066 03E0     		b	.L22
 215              	.L23:
 216 0068 E85C     		ldrb	r0, [r5, r3]	@ zero_extendqisi2
 217 006a 0233     		adds	r3, r3, #2
 218 006c A854     		strb	r0, [r5, r2]
 219 006e 0132     		adds	r2, r2, #1
 220              	.L22:
 221 0070 A342     		cmp	r3, r4
 222 0072 F9D3     		bcc	.L23
 223 0074 0020     		movs	r0, #0
 224 0076 A854     		strb	r0, [r5, r2]
 225 0078 0DE0     		b	.L17
 226              	.L18:
 227 007a B368     		ldr	r3, [r6, #8]
 228 007c 3046     		mov	r0, r6
 229 007e E118     		adds	r1, r4, r3
 230 0080 FFF7FEFF 		bl	f_lseek
 231 0084 0030     		adds	r0, r0, #0
 232 0086 18BF     		it	ne
 233 0088 0120     		movne	r0, #1
 234 008a 04E0     		b	.L17
 235              	.L25:
 236 008c 0120     		movs	r0, #1
 237 008e 02E0     		b	.L17
 238              	.L26:
 239 0090 3846     		mov	r0, r7
 240 0092 00E0     		b	.L17
 241              	.L27:
 242 0094 0020     		movs	r0, #0
 243              	.L17:
 244 0096 FEBD     		pop	{r1, r2, r3, r4, r5, r6, r7, pc}
 246              		.section	.text.Mp3Decode,"ax",%progbits
 247              		.align	1
 248              		.global	Mp3Decode
 249              		.thumb
 250              		.thumb_func
 252              	Mp3Decode:
 253              		@ args = 0, pretend = 0, frame = 1544
 254              		@ frame_needed = 0, uses_anonymous_args = 0
 255 0000 2DE9F04F 		push	{r4, r5, r6, r7, r8, r9, sl, fp, lr}
 256 0004 0646     		mov	r6, r0
 257 0006 AD48     		ldr	r0, .L101
 258 0008 AD4B     		ldr	r3, .L101+4
 259 000a C269     		ldr	r2, [r0, #28]
 260 000c DFF8E482 		ldr	r8, .L101+56
 261 0010 AC4D     		ldr	r5, .L101+8
 262 0012 AD4F     		ldr	r7, .L101+12
 263 0014 1A60     		str	r2, [r3, #0]
 264 0016 ADF5C26D 		sub	sp, sp, #1552
 265 001a 81B0     		sub	sp, sp, #4
 266 001c 0021     		movs	r1, #0
 267 001e CDF80816 		str	r1, [sp, #1544]
 268 0022 06A8     		add	r0, sp, #24
 269 0024 3146     		mov	r1, r6
 270 0026 0122     		movs	r2, #1
 271 0028 CDF80486 		str	r8, [sp, #1540]
 272 002c 2F60     		str	r7, [r5, #0]
 273 002e FFF7FEFF 		bl	f_open
 274 0032 0446     		mov	r4, r0
 275 0034 40B1     		cbz	r0, .L32
 276 0036 A548     		ldr	r0, .L101+16
 277 0038 A549     		ldr	r1, .L101+20
 278 003a 3246     		mov	r2, r6
 279 003c 2346     		mov	r3, r4
 280 003e FFF7FEFF 		bl	chprintf
 281 0042 4FF0FF30 		mov	r0, #-1
 282 0046 6CE2     		b	.L33
 283              	.L32:
 284 0048 FFF7FEFF 		bl	MP3InitDecoder
 285 004c 0390     		str	r0, [sp, #12]
 286 004e 30B9     		cbnz	r0, .L34
 287 0050 9E48     		ldr	r0, .L101+16
 288 0052 A049     		ldr	r1, .L101+24
 289 0054 FFF7FEFF 		bl	chprintf
 290 0058 6FF00100 		mvn	r0, #1
 291 005c 61E2     		b	.L33
 292              	.L34:
 293 005e 3246     		mov	r2, r6
 294 0060 9A48     		ldr	r0, .L101+16
 295 0062 9D49     		ldr	r1, .L101+28
 296 0064 FFF7FEFF 		bl	chprintf
 297 0068 9C4A     		ldr	r2, .L101+32
 298 006a 4FF48056 		mov	r6, #4096	@ movhi
 299 006e 1683     		strh	r6, [r2, #24]	@ movhi
 300 0070 0DF5C063 		add	r3, sp, #1536
 301 0074 8DF82845 		strb	r4, [sp, #1320]
 302 0078 8DF87845 		strb	r4, [sp, #1400]
 303 007c CDF80C46 		str	r4, [sp, #1548]
 304 0080 0DF5BC64 		add	r4, sp, #1504
 305 0084 06A8     		add	r0, sp, #24
 306 0086 211D     		adds	r1, r4, #4
 307 0088 0A22     		movs	r2, #10
 308 008a 0C33     		adds	r3, r3, #12
 309 008c FFF7FEFF 		bl	f_read
 310 0090 8246     		mov	sl, r0
 311 0092 0028     		cmp	r0, #0
 312 0094 40F0C680 		bne	.L35
 313 0098 DDF80C36 		ldr	r3, [sp, #1548]
 314 009c 0A2B     		cmp	r3, #10
 315 009e 40F0C180 		bne	.L35
 316 00a2 9DF8E405 		ldrb	r0, [sp, #1508]	@ zero_extendqisi2
 317 00a6 4928     		cmp	r0, #73
 318 00a8 40F0B880 		bne	.L36
 319 00ac 9DF8E515 		ldrb	r1, [sp, #1509]	@ zero_extendqisi2
 320 00b0 4429     		cmp	r1, #68
 321 00b2 40F0B380 		bne	.L36
 322 00b6 9DF8E645 		ldrb	r4, [sp, #1510]	@ zero_extendqisi2
 323 00ba 332C     		cmp	r4, #51
 324 00bc 40F0AE80 		bne	.L36
 325 00c0 9DF8E925 		ldrb	r2, [sp, #1513]	@ zero_extendqisi2
 326 00c4 9DF8EC65 		ldrb	r6, [sp, #1516]	@ zero_extendqisi2
 327 00c8 9DF8EA75 		ldrb	r7, [sp, #1514]	@ zero_extendqisi2
 328 00cc 0496     		str	r6, [sp, #16]
 329 00ce 5106     		lsls	r1, r2, #25
 330 00d0 9DF8EB95 		ldrb	r9, [sp, #1515]	@ zero_extendqisi2
 331 00d4 9DF8EDA5 		ldrb	sl, [sp, #1517]	@ zero_extendqisi2
 332 00d8 9DF8E765 		ldrb	r6, [sp, #1511]	@ zero_extendqisi2
 333 00dc 02D4     		bmi	.L37
 334              	.L39:
 335 00de 0224     		movs	r4, #2
 336 00e0 B846     		mov	r8, r7
 337 00e2 29E0     		b	.L38
 338              	.L37:
 339 00e4 0DF5BE61 		add	r1, sp, #1520
 340 00e8 0DF5C063 		add	r3, sp, #1536
 341 00ec 0C31     		adds	r1, r1, #12
 342 00ee 0422     		movs	r2, #4
 343 00f0 0C33     		adds	r3, r3, #12
 344 00f2 06A8     		add	r0, sp, #24
 345 00f4 FFF7FEFF 		bl	f_read
 346 00f8 9DF8FD25 		ldrb	r2, [sp, #1533]	@ zero_extendqisi2
 347 00fc 9DF8FC05 		ldrb	r0, [sp, #1532]	@ zero_extendqisi2
 348 0100 9DF8FF85 		ldrb	r8, [sp, #1535]	@ zero_extendqisi2
 349 0104 0899     		ldr	r1, [sp, #32]
 350 0106 02F07F04 		and	r4, r2, #127
 351 010a 00F07F00 		and	r0, r0, #127
 352 010e A303     		lsls	r3, r4, #14
 353 0110 43EA4054 		orr	r4, r3, r0, lsl #21
 354 0114 9DF8FE35 		ldrb	r3, [sp, #1534]	@ zero_extendqisi2
 355 0118 08F07F02 		and	r2, r8, #127
 356 011c 44EA0200 		orr	r0, r4, r2
 357 0120 03F07F0C 		and	ip, r3, #127
 358 0124 40EACC18 		orr	r8, r0, ip, lsl #7
 359 0128 0439     		subs	r1, r1, #4
 360 012a 06A8     		add	r0, sp, #24
 361 012c 4144     		add	r1, r1, r8
 362 012e FFF7FEFF 		bl	f_lseek
 363 0132 0028     		cmp	r0, #0
 364 0134 D3D0     		beq	.L39
 365 0136 75E0     		b	.L35
 366              	.L38:
 367 0138 0DF5C063 		add	r3, sp, #1536
 368 013c 06A8     		add	r0, sp, #24
 369 013e 0DF5BE61 		add	r1, sp, #1520
 370 0142 0A22     		movs	r2, #10
 371 0144 0C33     		adds	r3, r3, #12
 372 0146 FFF7FEFF 		bl	f_read
 373 014a 0746     		mov	r7, r0
 374 014c 0028     		cmp	r0, #0
 375 014e 69D1     		bne	.L35
 376 0150 DDF80C36 		ldr	r3, [sp, #1548]
 377 0154 0A2B     		cmp	r3, #10
 378 0156 65D1     		bne	.L35
 379 0158 9DF8F025 		ldrb	r2, [sp, #1520]	@ zero_extendqisi2
 380 015c 002A     		cmp	r2, #0
 381 015e 47D0     		beq	.L40
 382 0160 0DF5BE60 		add	r0, sp, #1520
 383 0164 5E49     		ldr	r1, .L101+36
 384 0166 0322     		movs	r2, #3
 385 0168 FFF7FEFF 		bl	strncmp
 386 016c 0028     		cmp	r0, #0
 387 016e 3FD0     		beq	.L40
 388 0170 DDF8F005 		ldr	r0, [sp, #1520]
 389 0174 8DF80076 		strb	r7, [sp, #1536]
 390 0178 CDF8FC05 		str	r0, [sp, #1532]
 391 017c 0DF5BE63 		add	r3, sp, #1520
 392 0180 BB46     		mov	fp, r7
 393              	.L43:
 394 0182 032E     		cmp	r6, #3
 395 0184 03D1     		bne	.L41
 396 0186 4FEA0B2B 		lsl	fp, fp, #8
 397 018a 1A79     		ldrb	r2, [r3, #4]	@ zero_extendqisi2
 398 018c 06E0     		b	.L96
 399              	.L41:
 400 018e 042E     		cmp	r6, #4
 401 0190 05D1     		bne	.L42
 402 0192 1979     		ldrb	r1, [r3, #4]	@ zero_extendqisi2
 403 0194 4FEACB1B 		lsl	fp, fp, #7
 404 0198 01F07F02 		and	r2, r1, #127
 405              	.L96:
 406 019c 9344     		add	fp, r2, fp
 407              	.L42:
 408 019e 0137     		adds	r7, r7, #1
 409 01a0 0133     		adds	r3, r3, #1
 410 01a2 042F     		cmp	r7, #4
 411 01a4 EDD1     		bne	.L43
 412 01a6 0DF5BE60 		add	r0, sp, #1520
 413 01aa 0C30     		adds	r0, r0, #12
 414 01ac 4D49     		ldr	r1, .L101+40
 415 01ae FFF7FEFF 		bl	strcmp
 416 01b2 20B9     		cbnz	r0, .L44
 417 01b4 06A8     		add	r0, sp, #24
 418 01b6 5946     		mov	r1, fp
 419 01b8 0DF5A562 		add	r2, sp, #1320
 420 01bc 0AE0     		b	.L98
 421              	.L44:
 422 01be 0DF5BE60 		add	r0, sp, #1520
 423 01c2 0C30     		adds	r0, r0, #12
 424 01c4 4849     		ldr	r1, .L101+44
 425 01c6 FFF7FEFF 		bl	strcmp
 426 01ca 40B9     		cbnz	r0, .L46
 427 01cc 06A8     		add	r0, sp, #24
 428 01ce 5946     		mov	r1, fp
 429 01d0 0DF5AF62 		add	r2, sp, #1400
 430              	.L98:
 431 01d4 FFF7FEFF 		bl	Mp3ReadId3V2Text.constprop.1
 432 01d8 50B9     		cbnz	r0, .L40
 433 01da 013C     		subs	r4, r4, #1
 434 01dc 06E0     		b	.L45
 435              	.L46:
 436 01de 089B     		ldr	r3, [sp, #32]
 437 01e0 06A8     		add	r0, sp, #24
 438 01e2 0BEB0301 		add	r1, fp, r3
 439 01e6 FFF7FEFF 		bl	f_lseek
 440 01ea D8B9     		cbnz	r0, .L35
 441              	.L45:
 442 01ec 002C     		cmp	r4, #0
 443 01ee A3D1     		bne	.L38
 444              	.L40:
 445 01f0 09F07F03 		and	r3, r9, #127
 446 01f4 9903     		lsls	r1, r3, #14
 447 01f6 049A     		ldr	r2, [sp, #16]
 448 01f8 08F07F07 		and	r7, r8, #127
 449 01fc 0AF07F00 		and	r0, sl, #127
 450 0200 41EA4757 		orr	r7, r1, r7, lsl #21
 451 0204 47EA0006 		orr	r6, r7, r0
 452 0208 02F07F04 		and	r4, r2, #127
 453 020c 46EAC41A 		orr	sl, r6, r4, lsl #7
 454 0210 2E48     		ldr	r0, .L101+16
 455 0212 3649     		ldr	r1, .L101+48
 456 0214 0AF10102 		add	r2, sl, #1
 457 0218 FFF7FEFF 		bl	chprintf
 458              	.L36:
 459 021c 06A8     		add	r0, sp, #24
 460 021e 5146     		mov	r1, sl
 461 0220 FFF7FEFF 		bl	f_lseek
 462              	.L35:
 463 0224 2D4A     		ldr	r2, .L101+32
 464 0226 4FF48054 		mov	r4, #4096	@ movhi
 465 022a 5483     		strh	r4, [r2, #26]	@ movhi
 466 022c 9DF82865 		ldrb	r6, [sp, #1320]	@ zero_extendqisi2
 467 0230 16B9     		cbnz	r6, .L47
 468 0232 9DF87805 		ldrb	r0, [sp, #1400]	@ zero_extendqisi2
 469 0236 38B1     		cbz	r0, .L48
 470              	.L47:
 471 0238 2448     		ldr	r0, .L101+16
 472 023a 2D49     		ldr	r1, .L101+52
 473 023c 0DF5A562 		add	r2, sp, #1320
 474 0240 0DF5AF63 		add	r3, sp, #1400
 475 0244 FFF7FEFF 		bl	chprintf
 476              	.L48:
 477 0248 0024     		movs	r4, #0
 478 024a 2646     		mov	r6, r4
 479 024c A046     		mov	r8, r4
 480              	.L94:
 481 024e DDF80896 		ldr	r9, [sp, #1544]
 482 0252 40F62771 		movw	r1, #3879
 483 0256 8945     		cmp	r9, r1
 484 0258 50D8     		bhi	.L51
 485 025a B8F1000F 		cmp	r8, #0
 486 025e 4BD1     		bne	.L85
 487 0260 DDF80416 		ldr	r1, [sp, #1540]
 488 0264 2348     		ldr	r0, .L101+56
 489 0266 1D4F     		ldr	r7, .L101+32
 490 0268 4A46     		mov	r2, r9
 491 026a FFF7FEFF 		bl	memmove
 492 026e 214B     		ldr	r3, .L101+56
 493 0270 CDF80C86 		str	r8, [sp, #1548]
 494 0274 4FF48052 		mov	r2, #4096	@ movhi
 495 0278 03EB0901 		add	r1, r3, r9
 496 027c 0DF5C063 		add	r3, sp, #1536
 497 0280 3A83     		strh	r2, [r7, #24]	@ movhi
 498 0282 06A8     		add	r0, sp, #24
 499 0284 C9F58052 		rsb	r2, r9, #4096
 500 0288 0C33     		adds	r3, r3, #12
 501 028a FFF7FEFF 		bl	f_read
 502 028e 4FF4805C 		mov	ip, #4096	@ movhi
 503 0292 A7F81AC0 		strh	ip, [r7, #26]	@ movhi
 504 0296 08B1     		cbz	r0, .L52
 505 0298 CDF80C86 		str	r8, [sp, #1548]
 506              	.L52:
 507 029c DDF80C06 		ldr	r0, [sp, #1548]
 508 02a0 DDF80826 		ldr	r2, [sp, #1544]
 509 02a4 1349     		ldr	r1, .L101+56
 510 02a6 1318     		adds	r3, r2, r0
 511 02a8 D0F10108 		rsbs	r8, r0, #1
 512 02ac CDF80836 		str	r3, [sp, #1544]
 513 02b0 CDF80416 		str	r1, [sp, #1540]
 514 02b4 38BF     		it	cc
 515 02b6 4FF00008 		movcc	r8, #0
 516 02ba 1FE0     		b	.L51
 517              	.L102:
 518              		.align	2
 519              	.L101:
 520 02bc 00000000 		.word	rlist
 521 02c0 00000000 		.word	.LANCHOR1
 522 02c4 00000000 		.word	.LANCHOR3
 523 02c8 00000000 		.word	.LANCHOR4
 524 02cc 00000000 		.word	SD2
 525 02d0 0C000000 		.word	.LC1
 526 02d4 46000000 		.word	.LC2
 527 02d8 7B000000 		.word	.LC3
 528 02dc 000C0240 		.word	1073875968
 529 02e0 9C000000 		.word	.LC4
 530 02e4 A0000000 		.word	.LC5
 531 02e8 A5000000 		.word	.LC6
 532 02ec AA000000 		.word	.LC7
 533 02f0 D6000000 		.word	.LC8
 534 02f4 00000000 		.word	.LANCHOR2
 535              	.L85:
 536 02f8 4FF00108 		mov	r8, #1
 537              	.L51:
 538 02fc DDF80406 		ldr	r0, [sp, #1540]
 539 0300 DDF80816 		ldr	r1, [sp, #1544]
 540 0304 FFF7FEFF 		bl	MP3FindSyncWord
 541 0308 0028     		cmp	r0, #0
 542 030a C0F2D180 		blt	.L53
 543 030e DDF80426 		ldr	r2, [sp, #1540]
 544 0312 DDF80816 		ldr	r1, [sp, #1544]
 545 0316 1318     		adds	r3, r2, r0
 546 0318 CDF80436 		str	r3, [sp, #1540]
 547 031c 0A1A     		subs	r2, r1, r0
 548 031e 0023     		movs	r3, #0
 549 0320 0DF5C061 		add	r1, sp, #1536
 550 0324 CDF80826 		str	r2, [sp, #1544]
 551 0328 0093     		str	r3, [sp, #0]
 552 032a 0DF5C162 		add	r2, sp, #1544
 553 032e 0398     		ldr	r0, [sp, #12]
 554 0330 7F4B     		ldr	r3, .L103
 555 0332 0431     		adds	r1, r1, #4
 556 0334 FFF7FEFF 		bl	MP3Decode
 557 0338 0246     		mov	r2, r0
 558 033a 0330     		adds	r0, r0, #3
 559 033c 0328     		cmp	r0, #3
 560 033e 00F2B380 		bhi	.L54
 561 0342 01A1     		adr	r1, .L57
 562 0344 51F820F0 		ldr	pc, [r1, r0, lsl #2]
 563              		.align	2
 564              	.L57:
 565 0348 4F020000 		.word	.L94+1
 566 034c 4F020000 		.word	.L94+1
 567 0350 A3040000 		.word	.L55+1
 568 0354 59030000 		.word	.L56+1
 569              	.L56:
 570 0358 0398     		ldr	r0, [sp, #12]
 571 035a 0DF5B961 		add	r1, sp, #1480
 572 035e FFF7FEFF 		bl	MP3GetLastFrameInfo
 573 0362 DCB9     		cbnz	r4, .L58
 574 0364 DDF8CC35 		ldr	r3, [sp, #1484]
 575 0368 7248     		ldr	r0, .L103+4
 576 036a 0093     		str	r3, [sp, #0]
 577 036c 7249     		ldr	r1, .L103+8
 578 036e DDF8D025 		ldr	r2, [sp, #1488]
 579 0372 DDF8D435 		ldr	r3, [sp, #1492]
 580 0376 FFF7FEFF 		bl	chprintf
 581 037a DDF8D005 		ldr	r0, [sp, #1488]
 582 037e 4BF68031 		movw	r1, #48000
 583 0382 8842     		cmp	r0, r1
 584 0384 07DC     		bgt	.L59
 585 0386 DDF8D425 		ldr	r2, [sp, #1492]
 586 038a 102A     		cmp	r2, #16
 587 038c 03D1     		bne	.L59
 588 038e DDF8CC05 		ldr	r0, [sp, #1484]
 589 0392 0228     		cmp	r0, #2
 590 0394 02D0     		beq	.L58
 591              	.L59:
 592 0396 6748     		ldr	r0, .L103+4
 593 0398 6849     		ldr	r1, .L103+12
 594 039a 67E0     		b	.L100
 595              	.L58:
 596 039c 6423     		movs	r3, #100
 597 039e B4FBF3FA 		udiv	sl, r4, r3
 598 03a2 03FB1A41 		mls	r1, r3, sl, r4
 599 03a6 31B9     		cbnz	r1, .L61
 600 03a8 6248     		ldr	r0, .L103+4
 601 03aa 6549     		ldr	r1, .L103+16
 602 03ac DDF8C835 		ldr	r3, [sp, #1480]
 603 03b0 2246     		mov	r2, r4
 604 03b2 FFF7FEFF 		bl	chprintf
 605              	.L61:
 606 03b6 6349     		ldr	r1, .L103+20
 607 03b8 5D48     		ldr	r0, .L103
 608 03ba DDF8D8B5 		ldr	fp, [sp, #1496]
 609 03be 0860     		str	r0, [r1, #0]
 610 03c0 0134     		adds	r4, r4, #1
 611 03c2 0022     		movs	r2, #0
 612 03c4 0492     		str	r2, [sp, #16]
 613 03c6 CDF81480 		str	r8, [sp, #20]
 614 03ca A246     		mov	sl, r4
 615 03cc 5EE0     		b	.L95
 616              	.L76:
 617 03ce 2B68     		ldr	r3, [r5, #0]
 618 03d0 1EB1     		cbz	r6, .L65
 619              	.L63:
 620 03d2 012E     		cmp	r6, #1
 621 03d4 01D1     		bne	.L65
 622 03d6 5C4C     		ldr	r4, .L103+24
 623 03d8 00E0     		b	.L99
 624              	.L65:
 625 03da 5C4C     		ldr	r4, .L103+28
 626              	.L99:
 627 03dc E71A     		subs	r7, r4, r3
 628 03de 7C10     		asrs	r4, r7, #1
 629 03e0 5C45     		cmp	r4, fp
 630 03e2 34BF     		ite	cc
 631 03e4 2746     		movcc	r7, r4
 632 03e6 5F46     		movcs	r7, fp
 633 03e8 A7B1     		cbz	r7, .L66
 634 03ea 564B     		ldr	r3, .L103+20
 635 03ec 2868     		ldr	r0, [r5, #0]
 636 03ee D3F80080 		ldr	r8, [r3, #0]
 637 03f2 4FEA4709 		lsl	r9, r7, #1
 638 03f6 4146     		mov	r1, r8
 639 03f8 4A46     		mov	r2, r9
 640 03fa FFF7FEFF 		bl	memcpy
 641 03fe 2A68     		ldr	r2, [r5, #0]
 642 0400 5048     		ldr	r0, .L103+20
 643 0402 08EB0901 		add	r1, r8, r9
 644 0406 02EB0903 		add	r3, r2, r9
 645 040a C7EB0B0B 		rsb	fp, r7, fp
 646 040e 0160     		str	r1, [r0, #0]
 647 0410 E41B     		subs	r4, r4, r7
 648 0412 2B60     		str	r3, [r5, #0]
 649              	.L66:
 650 0414 002C     		cmp	r4, #0
 651 0416 39D1     		bne	.L95
 652 0418 76B9     		cbnz	r6, .L68
 653 041a 0220     		movs	r0, #2
 654 041c 5021     		movs	r1, #80
 655 041e DDF8D025 		ldr	r2, [sp, #1488]
 656 0422 FFF7FEFF 		bl	EVAL_AUDIO_Init
 657 0426 10B1     		cbz	r0, .L69
 658 0428 4248     		ldr	r0, .L103+4
 659 042a 4949     		ldr	r1, .L103+32
 660 042c 1EE0     		b	.L100
 661              	.L69:
 662 042e 4948     		ldr	r0, .L103+36
 663 0430 4FF49041 		mov	r1, #18432
 664 0434 FFF7FEFF 		bl	EVAL_AUDIO_Play
 665              	.L68:
 666 0438 0E20     		movs	r0, #14
 667 043a FFF7FEFF 		bl	chEvtWaitAny
 668 043e 0207     		lsls	r2, r0, #28
 669 0440 02D5     		bpl	.L70
 670 0442 3C48     		ldr	r0, .L103+4
 671 0444 4449     		ldr	r1, .L103+40
 672 0446 11E0     		b	.L100
 673              	.L70:
 674 0448 00F00602 		and	r2, r0, #6
 675 044c 062A     		cmp	r2, #6
 676 044e 02D1     		bne	.L71
 677 0450 3848     		ldr	r0, .L103+4
 678 0452 4249     		ldr	r1, .L103+44
 679 0454 0AE0     		b	.L100
 680              	.L71:
 681 0456 0EB1     		cbz	r6, .L72
 682 0458 022E     		cmp	r6, #2
 683 045a 0AD1     		bne	.L73
 684              	.L72:
 685 045c 8307     		lsls	r3, r0, #30
 686 045e 03D5     		bpl	.L74
 687 0460 3C4E     		ldr	r6, .L103+36
 688 0462 2E60     		str	r6, [r5, #0]
 689 0464 0126     		movs	r6, #1
 690 0466 11E0     		b	.L95
 691              	.L74:
 692 0468 3248     		ldr	r0, .L103+4
 693 046a 3D49     		ldr	r1, .L103+48
 694              	.L100:
 695 046c FFF7FEFF 		bl	chprintf
 696 0470 1EE0     		b	.L53
 697              	.L73:
 698 0472 4007     		lsls	r0, r0, #29
 699 0474 03D5     		bpl	.L75
 700 0476 344C     		ldr	r4, .L103+24
 701 0478 0226     		movs	r6, #2
 702 047a 2C60     		str	r4, [r5, #0]
 703 047c 06E0     		b	.L95
 704              	.L75:
 705 047e 2D48     		ldr	r0, .L103+4
 706 0480 3849     		ldr	r1, .L103+52
 707 0482 FFF7FEFF 		bl	chprintf
 708 0486 6FF00200 		mvn	r0, #2
 709 048a 0490     		str	r0, [sp, #16]
 710              	.L95:
 711 048c BBF1000F 		cmp	fp, #0
 712 0490 9DD1     		bne	.L76
 713 0492 0499     		ldr	r1, [sp, #16]
 714 0494 DDF81480 		ldr	r8, [sp, #20]
 715 0498 5446     		mov	r4, sl
 716 049a 0029     		cmp	r1, #0
 717 049c 3FF4D7AE 		beq	.L94
 718 04a0 06E0     		b	.L53
 719              	.L55:
 720 04a2 2448     		ldr	r0, .L103+4
 721 04a4 3049     		ldr	r1, .L103+56
 722 04a6 E1E7     		b	.L100
 723              	.L54:
 724 04a8 2248     		ldr	r0, .L103+4
 725 04aa 3049     		ldr	r1, .L103+60
 726 04ac FFF7FEFF 		bl	chprintf
 727              	.L53:
 728 04b0 2048     		ldr	r0, .L103+4
 729 04b2 2F49     		ldr	r1, .L103+64
 730 04b4 FFF7FEFF 		bl	chprintf
 731 04b8 0398     		ldr	r0, [sp, #12]
 732 04ba FFF7FEFF 		bl	MP3FreeDecoder
 733 04be 0120     		movs	r0, #1
 734 04c0 FFF7FEFF 		bl	EVAL_AUDIO_Stop
 735 04c4 18B1     		cbz	r0, .L78
 736 04c6 1B48     		ldr	r0, .L103+4
 737 04c8 2A49     		ldr	r1, .L103+68
 738 04ca FFF7FEFF 		bl	chprintf
 739              	.L78:
 740 04ce FFF7FEFF 		bl	EVAL_AUDIO_DeInit
 741 04d2 06A8     		add	r0, sp, #24
 742 04d4 FFF7FEFF 		bl	f_close
 743 04d8 3221     		movs	r1, #50
 744 04da 0220     		movs	r0, #2
 745 04dc FFF7FEFF 		bl	chEvtWaitOneTimeout
 746 04e0 3221     		movs	r1, #50
 747 04e2 0420     		movs	r0, #4
 748 04e4 FFF7FEFF 		bl	chEvtWaitOneTimeout
 749 04e8 2349     		ldr	r1, .L103+72
 750 04ea 0020     		movs	r0, #0
 751 04ec FFF7FEFF 		bl	f_mount
 752 04f0 8FA8     		add	r0, sp, #572
 753 04f2 2249     		ldr	r1, .L103+76
 754 04f4 0122     		movs	r2, #1
 755 04f6 FFF7FEFF 		bl	f_open
 756 04fa 30B1     		cbz	r0, .L93
 757 04fc 11E0     		b	.L33
 758              	.L80:
 759 04fe 0D48     		ldr	r0, .L103+4
 760 0500 1F49     		ldr	r1, .L103+80
 761 0502 0DF58C62 		add	r2, sp, #1120
 762 0506 FFF7FEFF 		bl	chprintf
 763              	.L93:
 764 050a 0DF58C60 		add	r0, sp, #1120
 765 050e C821     		movs	r1, #200
 766 0510 8FAA     		add	r2, sp, #572
 767 0512 FFF7FEFF 		bl	f_gets
 768 0516 0028     		cmp	r0, #0
 769 0518 F1D1     		bne	.L80
 770 051a 8FA8     		add	r0, sp, #572
 771 051c FFF7FEFF 		bl	f_close
 772              	.L81:
 773 0520 FEE7     		b	.L81
 774              	.L33:
 775 0522 0DF5057D 		add	sp, sp, #532
 776 0526 0DF5806D 		add	sp, sp, #1024
 777 052a BDE8F08F 		pop	{r4, r5, r6, r7, r8, r9, sl, fp, pc}
 778              	.L104:
 779 052e 00BF     		.align	2
 780              	.L103:
 781 0530 00000000 		.word	.LANCHOR5
 782 0534 00000000 		.word	SD2
 783 0538 00010000 		.word	.LC9
 784 053c 26010000 		.word	.LC10
 785 0540 4A010000 		.word	.LC11
 786 0544 00000000 		.word	.LANCHOR6
 787 0548 00240000 		.word	.LANCHOR4+9216
 788 054c 00480000 		.word	.LANCHOR4+18432
 789 0550 6C010000 		.word	.LC12
 790 0554 00000000 		.word	.LANCHOR4
 791 0558 8B010000 		.word	.LC13
 792 055c A7010000 		.word	.LC14
 793 0560 D9010000 		.word	.LC15
 794 0564 0C020000 		.word	.LC16
 795 0568 3F020000 		.word	.LC17
 796 056c 74020000 		.word	.LC18
 797 0570 93020000 		.word	.LC19
 798 0574 B2020000 		.word	.LC20
 799 0578 00000000 		.word	MMC_FS
 800 057c D4020000 		.word	.LC21
 801 0580 DD020000 		.word	.LC22
 803              		.section	.text.Mp3PlayAllFiles,"ax",%progbits
 804              		.align	1
 805              		.global	Mp3PlayAllFiles
 806              		.thumb
 807              		.thumb_func
 809              	Mp3PlayAllFiles:
 810              		@ args = 0, pretend = 0, frame = 104
 811              		@ frame_needed = 0, uses_anonymous_args = 0
 812 0000 30B5     		push	{r4, r5, lr}
 813 0002 0546     		mov	r5, r0
 814 0004 9BB0     		sub	sp, sp, #108
 815 0006 2548     		ldr	r0, .L112
 816 0008 2549     		ldr	r1, .L112+4
 817 000a 2A46     		mov	r2, r5
 818 000c FFF7FEFF 		bl	chprintf
 819 0010 0DA8     		add	r0, sp, #52
 820 0012 2946     		mov	r1, r5
 821 0014 FFF7FEFF 		bl	f_opendir
 822 0018 0446     		mov	r4, r0
 823 001a 0028     		cmp	r0, #0
 824 001c 31D1     		bne	.L106
 825 001e 25E0     		b	.L109
 826              	.L111:
 827 0020 2946     		mov	r1, r5
 828 0022 6846     		mov	r0, sp
 829 0024 FFF7FEFF 		bl	strcpy
 830 0028 6846     		mov	r0, sp
 831 002a 0DF15901 		add	r1, sp, #89
 832 002e FFF7FEFF 		bl	strcat
 833 0032 9DF85830 		ldrb	r3, [sp, #88]	@ zero_extendqisi2
 834 0036 1948     		ldr	r0, .L112
 835 0038 DC06     		lsls	r4, r3, #27
 836 003a 04D5     		bpl	.L108
 837 003c 1949     		ldr	r1, .L112+8
 838 003e 6A46     		mov	r2, sp
 839 0040 FFF7FEFF 		bl	chprintf
 840 0044 12E0     		b	.L109
 841              	.L108:
 842 0046 1849     		ldr	r1, .L112+12
 843 0048 6A46     		mov	r2, sp
 844 004a FFF7FEFF 		bl	chprintf
 845 004e 6846     		mov	r0, sp
 846 0050 FFF7FEFF 		bl	strlen
 847 0054 0328     		cmp	r0, #3
 848 0056 09D9     		bls	.L109
 849 0058 00A9     		add	r1, sp, #0
 850 005a 0438     		subs	r0, r0, #4
 851 005c 0818     		adds	r0, r1, r0
 852 005e 1349     		ldr	r1, .L112+16
 853 0060 FFF7FEFF 		bl	strcasecmp
 854 0064 10B9     		cbnz	r0, .L109
 855 0066 6846     		mov	r0, sp
 856 0068 FFF7FEFF 		bl	Mp3Decode
 857              	.L109:
 858 006c 0DA8     		add	r0, sp, #52
 859 006e 14A9     		add	r1, sp, #80
 860 0070 FFF7FEFF 		bl	f_readdir
 861 0074 0446     		mov	r4, r0
 862 0076 48B9     		cbnz	r0, .L110
 863 0078 9DF85920 		ldrb	r2, [sp, #89]	@ zero_extendqisi2
 864 007c 002A     		cmp	r2, #0
 865 007e CFD1     		bne	.L111
 866 0080 04E0     		b	.L110
 867              	.L106:
 868 0082 0648     		ldr	r0, .L112
 869 0084 0A49     		ldr	r1, .L112+20
 870 0086 2246     		mov	r2, r4
 871 0088 FFF7FEFF 		bl	chprintf
 872              	.L110:
 873 008c 0348     		ldr	r0, .L112
 874 008e 0949     		ldr	r1, .L112+24
 875 0090 2A46     		mov	r2, r5
 876 0092 FFF7FEFF 		bl	chprintf
 877 0096 2046     		mov	r0, r4
 878 0098 1BB0     		add	sp, sp, #108
 879 009a 30BD     		pop	{r4, r5, pc}
 880              	.L113:
 881              		.align	2
 882              	.L112:
 883 009c 00000000 		.word	SD2
 884 00a0 E2020000 		.word	.LC23
 885 00a4 0F030000 		.word	.LC24
 886 00a8 2B030000 		.word	.LC25
 887 00ac 48030000 		.word	.LC26
 888 00b0 4D030000 		.word	.LC27
 889 00b4 74030000 		.word	.LC28
 891              		.section	.text.InsertHandler,"ax",%progbits
 892              		.align	1
 893              		.thumb
 894              		.thumb_func
 896              	InsertHandler:
 897              		@ args = 0, pretend = 0, frame = 0
 898              		@ frame_needed = 0, uses_anonymous_args = 0
 899 0000 10B5     		push	{r4, lr}
 900 0002 1448     		ldr	r0, .L118
 901 0004 FFF7FEFF 		bl	mmcConnect
 902 0008 0446     		mov	r4, r0
 903 000a 28B1     		cbz	r0, .L115
 904 000c 1248     		ldr	r0, .L118+4
 905 000e 1349     		ldr	r1, .L118+8
 906 0010 BDE81040 		pop	{r4, lr}
 907 0014 FFF7FEBF 		b	chprintf
 908              	.L115:
 909 0018 0F48     		ldr	r0, .L118+4
 910 001a 1149     		ldr	r1, .L118+12
 911 001c FFF7FEFF 		bl	chprintf
 912 0020 2046     		mov	r0, r4
 913 0022 1049     		ldr	r1, .L118+16
 914 0024 FFF7FEFF 		bl	f_mount
 915 0028 0246     		mov	r2, r0
 916 002a 40B1     		cbz	r0, .L116
 917 002c 0A48     		ldr	r0, .L118+4
 918 002e 0E49     		ldr	r1, .L118+20
 919 0030 FFF7FEFF 		bl	chprintf
 920 0034 0748     		ldr	r0, .L118
 921 0036 BDE81040 		pop	{r4, lr}
 922 003a FFF7FEBF 		b	mmcDisconnect
 923              	.L116:
 924 003e 0648     		ldr	r0, .L118+4
 925 0040 0A49     		ldr	r1, .L118+24
 926 0042 FFF7FEFF 		bl	chprintf
 927 0046 0A4B     		ldr	r3, .L118+28
 928 0048 0122     		movs	r2, #1
 929 004a 1A60     		str	r2, [r3, #0]
 930              	.L117:
 931 004c 0948     		ldr	r0, .L118+32
 932 004e FFF7FEFF 		bl	Mp3PlayAllFiles
 933 0052 FBE7     		b	.L117
 934              	.L119:
 935              		.align	2
 936              	.L118:
 937 0054 00000000 		.word	MMCD1
 938 0058 00000000 		.word	SD2
 939 005c A2030000 		.word	.LC29
 940 0060 C2030000 		.word	.LC30
 941 0064 00000000 		.word	MMC_FS
 942 0068 DA030000 		.word	.LC31
 943 006c F4030000 		.word	.LC32
 944 0070 00000000 		.word	.LANCHOR0
 945 0074 0E040000 		.word	.LC33
 947              		.section	.text.port_halt,"ax",%progbits
 948              		.align	1
 949              		.global	port_halt
 950              		.thumb
 951              		.thumb_func
 953              	port_halt:
 954              		@ args = 0, pretend = 0, frame = 0
 955              		@ frame_needed = 0, uses_anonymous_args = 0
 956              		@ link register save eliminated.
 957              	@ 640 "../src/main.c" 1
 958 0000 72B6     		cpsid   i
 959              	@ 0 "" 2
 960              		.thumb
 961 0002 024B     		ldr	r3, .L122
 962 0004 48F20002 		movw	r2, 32768	@ movhi
 963 0008 1A83     		strh	r2, [r3, #24]	@ movhi
 964              	.L121:
 965 000a FEE7     		b	.L121
 966              	.L123:
 967              		.align	2
 968              	.L122:
 969 000c 000C0240 		.word	1073875968
 971              		.section	.text.Codec_TIMEOUT_UserCallback,"ax",%progbits
 972              		.align	1
 973              		.global	Codec_TIMEOUT_UserCallback
 974              		.thumb
 975              		.thumb_func
 977              	Codec_TIMEOUT_UserCallback:
 978              		@ args = 0, pretend = 0, frame = 0
 979              		@ frame_needed = 0, uses_anonymous_args = 0
 980 0000 08B5     		push	{r3, lr}
 981 0002 FFF7FEFF 		bl	port_halt
 983              		.section	.text.startup.main,"ax",%progbits
 984              		.align	1
 985              		.global	main
 986              		.thumb
 987              		.thumb_func
 989              	main:
 990              		@ args = 0, pretend = 0, frame = 24
 991              		@ frame_needed = 0, uses_anonymous_args = 0
 992 0000 10B5     		push	{r4, lr}
 993 0002 88B0     		sub	sp, sp, #32
 994 0004 FFF7FEFF 		bl	halInit
 995 0008 374C     		ldr	r4, .L127
 996 000a FFF7FEFF 		bl	chSysInit
 997 000e 3648     		ldr	r0, .L127
 998 0010 4FF48051 		mov	r1, #4096
 999 0014 1922     		movs	r2, #25
 1000 0016 FFF7FEFF 		bl	_pal_lld_setgroupmode
 1001 001a 4FF48053 		mov	r3, #4096	@ movhi
 1002 001e 6383     		strh	r3, [r4, #26]	@ movhi
 1003 0020 2046     		mov	r0, r4
 1004 0022 1922     		movs	r2, #25
 1005 0024 4FF40041 		mov	r1, #32768
 1006 0028 FFF7FEFF 		bl	_pal_lld_setgroupmode
 1007 002c 48F2000C 		movw	ip, 32768	@ movhi
 1008 0030 A4F81AC0 		strh	ip, [r4, #26]	@ movhi
 1009 0034 2D48     		ldr	r0, .L127+4
 1010 0036 2E4C     		ldr	r4, .L127+8
 1011 0038 0021     		movs	r1, #0
 1012 003a FFF7FEFF 		bl	sdStart
 1013 003e 2D48     		ldr	r0, .L127+12
 1014 0040 0421     		movs	r1, #4
 1015 0042 40F29A32 		movw	r2, #922
 1016 0046 FFF7FEFF 		bl	_pal_lld_setgroupmode
 1017 004a 2A48     		ldr	r0, .L127+12
 1018 004c 0821     		movs	r1, #8
 1019 004e 40F28232 		movw	r2, #898
 1020 0052 FFF7FEFF 		bl	_pal_lld_setgroupmode
 1021 0056 2648     		ldr	r0, .L127+8
 1022 0058 1021     		movs	r1, #16
 1023 005a 1922     		movs	r2, #25
 1024 005c FFF7FEFF 		bl	_pal_lld_setgroupmode
 1025 0060 2448     		ldr	r0, .L127+12
 1026 0062 2021     		movs	r1, #32
 1027 0064 40F29A22 		movw	r2, #666
 1028 0068 FFF7FEFF 		bl	_pal_lld_setgroupmode
 1029 006c 2148     		ldr	r0, .L127+12
 1030 006e 4021     		movs	r1, #64
 1031 0070 40F28222 		movw	r2, #642
 1032 0074 FFF7FEFF 		bl	_pal_lld_setgroupmode
 1033 0078 1E48     		ldr	r0, .L127+12
 1034 007a 8021     		movs	r1, #128
 1035 007c 40F29A22 		movw	r2, #666
 1036 0080 FFF7FEFF 		bl	_pal_lld_setgroupmode
 1037 0084 1C49     		ldr	r1, .L127+16
 1038 0086 1D48     		ldr	r0, .L127+20
 1039 0088 1D4B     		ldr	r3, .L127+24
 1040 008a 1022     		movs	r2, #16
 1041 008c 2283     		strh	r2, [r4, #24]	@ movhi
 1042 008e 1D4A     		ldr	r2, .L127+28
 1043 0090 0091     		str	r1, [sp, #0]
 1044 0092 0190     		str	r0, [sp, #4]
 1045 0094 1C49     		ldr	r1, .L127+32
 1046 0096 1D48     		ldr	r0, .L127+36
 1047 0098 FFF7FEFF 		bl	mmcObjectInit
 1048 009c 1B48     		ldr	r0, .L127+36
 1049 009e 0021     		movs	r1, #0
 1050 00a0 FFF7FEFF 		bl	mmcStart
 1051 00a4 1A4B     		ldr	r3, .L127+40
 1052 00a6 1B4A     		ldr	r2, .L127+44
 1053 00a8 586A     		ldr	r0, [r3, #36]
 1054 00aa 0A21     		movs	r1, #10
 1055 00ac FFF7FEFF 		bl	dmaStreamAllocate
 1056 00b0 0023     		movs	r3, #0
 1057 00b2 0093     		str	r3, [sp, #0]
 1058 00b4 4FF4D871 		mov	r1, #432
 1059 00b8 4022     		movs	r2, #64
 1060 00ba 174B     		ldr	r3, .L127+48
 1061 00bc 1748     		ldr	r0, .L127+52
 1062 00be FFF7FEFF 		bl	chThdCreateStatic
 1063 00c2 1748     		ldr	r0, .L127+56
 1064 00c4 02A9     		add	r1, sp, #8
 1065 00c6 0122     		movs	r2, #1
 1066 00c8 FFF7FEFF 		bl	chEvtRegisterMask
 1067 00cc 1548     		ldr	r0, .L127+60
 1068 00ce 05A9     		add	r1, sp, #20
 1069 00d0 0222     		movs	r2, #2
 1070 00d2 FFF7FEFF 		bl	chEvtRegisterMask
 1071              	.L126:
 1072 00d6 4FF0FF30 		mov	r0, #-1
 1073 00da FFF7FEFF 		bl	chEvtWaitOne
 1074 00de 0146     		mov	r1, r0
 1075 00e0 1148     		ldr	r0, .L127+64
 1076 00e2 FFF7FEFF 		bl	chEvtDispatch
 1077 00e6 F6E7     		b	.L126
 1078              	.L128:
 1079              		.align	2
 1080              	.L127:
 1081 00e8 000C0240 		.word	1073875968
 1082 00ec 00000000 		.word	SD2
 1083 00f0 00080240 		.word	1073874944
 1084 00f4 00000240 		.word	1073872896
 1085 00f8 00000000 		.word	mmc_is_protected
 1086 00fc 00000000 		.word	mmc_is_inserted
 1087 0100 00000000 		.word	.LANCHOR8
 1088 0104 00000000 		.word	.LANCHOR7
 1089 0108 00000000 		.word	SPID1
 1090 010c 00000000 		.word	MMCD1
 1091 0110 00000000 		.word	SPID3
 1092 0114 00000000 		.word	I2SDmaTxInterrupt
 1093 0118 00000000 		.word	BlinkThread
 1094 011c 00000000 		.word	.LANCHOR9
 1095 0120 1C000000 		.word	MMCD1+28
 1096 0124 20000000 		.word	MMCD1+32
 1097 0128 00000000 		.word	.LANCHOR10
 1099              		.comm	MMCD1,64,4
 1100              		.comm	MMC_FS,560,4
 1101              		.section	.bss.g_pMp3DmaBuffer,"aw",%nobits
 1102              		.align	1
 1103              		.set	.LANCHOR4,. + 0
 1106              	g_pMp3DmaBuffer:
 1107 0000 00000000 		.space	18432
 1107      00000000 
 1107      00000000 
 1107      00000000 
 1107      00000000 
 1108              		.section	.rodata.evhndl.6984,"a",%progbits
 1109              		.align	2
 1110              		.set	.LANCHOR10,. + 0
 1113              	evhndl.6984:
 1114 0000 00000000 		.word	InsertHandler
 1115 0004 00000000 		.word	RemoveHandler
 1116              		.section	.bss.waBlinkThread,"aw",%nobits
 1117              		.align	3
 1118              		.set	.LANCHOR9,. + 0
 1121              	waBlinkThread:
 1122 0000 00000000 		.space	432
 1122      00000000 
 1122      00000000 
 1122      00000000 
 1122      00000000 
 1123              		.section	.bss.g_pMp3DmaBufferPtr,"aw",%nobits
 1124              		.align	2
 1125              		.set	.LANCHOR3,. + 0
 1128              	g_pMp3DmaBufferPtr:
 1129 0000 00000000 		.space	4
 1130              		.section	.bss.g_Mp3InBuffer,"aw",%nobits
 1131              		.set	.LANCHOR2,. + 0
 1134              	g_Mp3InBuffer:
 1135 0000 00000000 		.space	4096
 1135      00000000 
 1135      00000000 
 1135      00000000 
 1135      00000000 
 1136              		.section	.bss.g_pMp3DecoderThread,"aw",%nobits
 1137              		.align	2
 1138              		.set	.LANCHOR1,. + 0
 1141              	g_pMp3DecoderThread:
 1142 0000 00000000 		.space	4
 1143              		.section	.rodata.str1.1,"aMS",%progbits,1
 1144              	.LC0:
 1145 0000 426C696E 		.ascii	"BlinkThread\000"
 1145      6B546872 
 1145      65616400 
 1146              	.LC1:
 1147 000c 4D703344 		.ascii	"Mp3Decode: Failed to open file \"%s\" for reading, "
 1147      65636F64 
 1147      653A2046 
 1147      61696C65 
 1147      6420746F 
 1148 003d 6572723D 		.ascii	"err=%d\015\012\000"
 1148      25640D0A 
 1148      00
 1149              	.LC2:
 1150 0046 4D703344 		.ascii	"Mp3Decode: Failed to initialize mp3 decoder engine\015"
 1150      65636F64 
 1150      653A2046 
 1150      61696C65 
 1150      6420746F 
 1151 0079 0A00     		.ascii	"\012\000"
 1152              	.LC3:
 1153 007b 4D703344 		.ascii	"Mp3Decode: Start decoding \"%s\"\015\012\000"
 1153      65636F64 
 1153      653A2053 
 1153      74617274 
 1153      20646563 
 1154              	.LC4:
 1155 009c 33444900 		.ascii	"3DI\000"
 1156              	.LC5:
 1157 00a0 54504531 		.ascii	"TPE1\000"
 1157      00
 1158              	.LC6:
 1159 00a5 54495432 		.ascii	"TIT2\000"
 1159      00
 1160              	.LC7:
 1161 00aa 4D703344 		.ascii	"Mp3Decode: Skipping %u bytes of ID3v2 tag\015\012\000"
 1161      65636F64 
 1161      653A2053 
 1161      6B697070 
 1161      696E6720 
 1162              	.LC8:
 1163 00d6 4D703344 		.ascii	"Mp3Decode: Now playing (ID3v2): %s - %s\015\012\000"
 1163      65636F64 
 1163      653A204E 
 1163      6F772070 
 1163      6C617969 
 1164              	.LC9:
 1165 0100 4D703344 		.ascii	"Mp3Decode: %d Hz %d Bit %d Channels\015\012\000"
 1165      65636F64 
 1165      653A2025 
 1165      6420487A 
 1165      20256420 
 1166              	.LC10:
 1167 0126 4D703344 		.ascii	"Mp3Decode: incompatible MP3 file.\015\012\000"
 1167      65636F64 
 1167      653A2069 
 1167      6E636F6D 
 1167      70617469 
 1168              	.LC11:
 1169 014a 4D703344 		.ascii	"Mp3Decode: frame %u, bitrate=%d\015\012\000"
 1169      65636F64 
 1169      653A2066 
 1169      72616D65 
 1169      2025752C 
 1170              	.LC12:
 1171 016c 4D703344 		.ascii	"Mp3Decode: audio init failed\015\012\000"
 1171      65636F64 
 1171      653A2061 
 1171      7564696F 
 1171      20696E69 
 1172              	.LC13:
 1173 018b 4D703344 		.ascii	"Mp3Decode: Stop requested\015\012\000"
 1173      65636F64 
 1173      653A2053 
 1173      746F7020 
 1173      72657175 
 1174              	.LC14:
 1175 01a7 4D703344 		.ascii	"Mp3Decode: DMA out of sync (HT and TC both set)\015"
 1175      65636F64 
 1175      653A2044 
 1175      4D41206F 
 1175      7574206F 
 1176 01d7 0A00     		.ascii	"\012\000"
 1177              	.LC15:
 1178 01d9 4D703344 		.ascii	"Mp3Decode: DMA out of sync (expected HT, got TC)\015"
 1178      65636F64 
 1178      653A2044 
 1178      4D41206F 
 1178      7574206F 
 1179 020a 0A00     		.ascii	"\012\000"
 1180              	.LC16:
 1181 020c 4D703344 		.ascii	"Mp3Decode: DMA out of sync (expected TC, got HT)\015"
 1181      65636F64 
 1181      653A2044 
 1181      4D41206F 
 1181      7574206F 
 1182 023d 0A00     		.ascii	"\012\000"
 1183              	.LC17:
 1184 023f 4D703344 		.ascii	"Mp3Decode: Decoding error ERR_MP3_INDATA_UNDERFLOW\015"
 1184      65636F64 
 1184      653A2044 
 1184      65636F64 
 1184      696E6720 
 1185 0272 0A00     		.ascii	"\012\000"
 1186              	.LC18:
 1187 0274 4D703344 		.ascii	"Mp3Decode: Decoding error %d\015\012\000"
 1187      65636F64 
 1187      653A2044 
 1187      65636F64 
 1187      696E6720 
 1188              	.LC19:
 1189 0293 4D703344 		.ascii	"Mp3Decode: Finished decoding\015\012\000"
 1189      65636F64 
 1189      653A2046 
 1189      696E6973 
 1189      68656420 
 1190              	.LC20:
 1191 02b2 4D703344 		.ascii	"Mp3Decode: Failed to stop audio\015\012\000"
 1191      65636F64 
 1191      653A2046 
 1191      61696C65 
 1191      6420746F 
 1192              	.LC21:
 1193 02d4 64617461 		.ascii	"data.txt\000"
 1193      2E747874 
 1193      00
 1194              	.LC22:
 1195 02dd 25730D0A 		.ascii	"%s\015\012\000"
 1195      00
 1196              	.LC23:
 1197 02e2 4D703350 		.ascii	"Mp3PlayAllFiles: Playing all files in \"%s\"\015\012"
 1197      6C617941 
 1197      6C6C4669 
 1197      6C65733A 
 1197      20506C61 
 1198 030e 00       		.ascii	"\000"
 1199              	.LC24:
 1200 030f 4D703350 		.ascii	"Mp3PlayAllFiles: DIR \"%s\"\015\012\000"
 1200      6C617941 
 1200      6C6C4669 
 1200      6C65733A 
 1200      20444952 
 1201              	.LC25:
 1202 032b 4D703350 		.ascii	"Mp3PlayAllFiles: FILE \"%s\"\015\012\000"
 1202      6C617941 
 1202      6C6C4669 
 1202      6C65733A 
 1202      2046494C 
 1203              	.LC26:
 1204 0348 2E6D7033 		.ascii	".mp3\000"
 1204      00
 1205              	.LC27:
 1206 034d 4D703350 		.ascii	"Mp3PlayAllFiles: f_opendir failed %d\015\012\000"
 1206      6C617941 
 1206      6C6C4669 
 1206      6C65733A 
 1206      20665F6F 
 1207              	.LC28:
 1208 0374 4D703350 		.ascii	"Mp3PlayAllFiles: Finished playing all files\015\012"
 1208      6C617941 
 1208      6C6C4669 
 1208      6C65733A 
 1208      2046696E 
 1209 03a1 00       		.ascii	"\000"
 1210              	.LC29:
 1211 03a2 53443A20 		.ascii	"SD: Failed to connect to card\015\012\000"
 1211      4661696C 
 1211      65642074 
 1211      6F20636F 
 1211      6E6E6563 
 1212              	.LC30:
 1213 03c2 53443A20 		.ascii	"SD: Connected to card\015\012\000"
 1213      436F6E6E 
 1213      65637465 
 1213      6420746F 
 1213      20636172 
 1214              	.LC31:
 1215 03da 53443A20 		.ascii	"SD: f_mount() failed %d\015\012\000"
 1215      665F6D6F 
 1215      756E7428 
 1215      29206661 
 1215      696C6564 
 1216              	.LC32:
 1217 03f4 53443A20 		.ascii	"SD: File system mounted\015\012\000"
 1217      46696C65 
 1217      20737973 
 1217      74656D20 
 1217      6D6F756E 
 1218              	.LC33:
 1219 040e 2F00     		.ascii	"/\000"
 1220              		.section	.bss.fs_ready,"aw",%nobits
 1221              		.align	2
 1222              		.set	.LANCHOR0,. + 0
 1225              	fs_ready:
 1226 0000 00000000 		.space	4
 1227              		.section	.data.ls_spicfg,"aw",%progbits
 1228              		.align	2
 1229              		.set	.LANCHOR7,. + 0
 1232              	ls_spicfg:
 1233 0000 00000000 		.word	0
 1234 0004 00080240 		.word	1073874944
 1235 0008 0400     		.short	4
 1236 000a 3000     		.short	48
 1237              		.section	.bss.g_pMp3OutBuffer,"aw",%nobits
 1238              		.align	1
 1239              		.set	.LANCHOR5,. + 0
 1242              	g_pMp3OutBuffer:
 1243 0000 00000000 		.space	4608
 1243      00000000 
 1243      00000000 
 1243      00000000 
 1243      00000000 
 1244              		.section	.bss.g_pMp3OutBufferPtr,"aw",%nobits
 1245              		.align	2
 1246              		.set	.LANCHOR6,. + 0
 1249              	g_pMp3OutBufferPtr:
 1250 0000 00000000 		.space	4
 1251              		.section	.data.hs_spicfg,"aw",%progbits
 1252              		.align	2
 1253              		.set	.LANCHOR8,. + 0
 1256              	hs_spicfg:
 1257 0000 00000000 		.word	0
 1258 0004 00080240 		.word	1073874944
 1259 0008 0400     		.short	4
 1260 000a 0000     		.short	0
 1261              		.ident	"GCC: (Sourcery CodeBench Lite 2012.03-56) 4.6.3"
DEFINED SYMBOLS
                            *ABS*:00000000 main.c
     /tmp/cc0u50Cp.s:17     .text.mmc_is_inserted:00000000 $t
     /tmp/cc0u50Cp.s:21     .text.mmc_is_inserted:00000000 mmc_is_inserted
     /tmp/cc0u50Cp.s:29     .text.mmc_is_protected:00000000 $t
     /tmp/cc0u50Cp.s:33     .text.mmc_is_protected:00000000 mmc_is_protected
     /tmp/cc0u50Cp.s:41     .text.RemoveHandler:00000000 $t
     /tmp/cc0u50Cp.s:45     .text.RemoveHandler:00000000 RemoveHandler
     /tmp/cc0u50Cp.s:56     .text.RemoveHandler:00000008 $d
     /tmp/cc0u50Cp.s:59     .text.BlinkThread:00000000 $t
     /tmp/cc0u50Cp.s:63     .text.BlinkThread:00000000 BlinkThread
     /tmp/cc0u50Cp.s:95     .text.BlinkThread:00000040 $d
     /tmp/cc0u50Cp.s:102    .text.I2SDmaTxInterrupt:00000000 $t
     /tmp/cc0u50Cp.s:106    .text.I2SDmaTxInterrupt:00000000 I2SDmaTxInterrupt
     /tmp/cc0u50Cp.s:152    .text.I2SDmaTxInterrupt:00000040 $d
     /tmp/cc0u50Cp.s:156    .text.Mp3ReadId3V2Text.constprop.1:00000000 $t
     /tmp/cc0u50Cp.s:160    .text.Mp3ReadId3V2Text.constprop.1:00000000 Mp3ReadId3V2Text.constprop.1
     /tmp/cc0u50Cp.s:247    .text.Mp3Decode:00000000 $t
     /tmp/cc0u50Cp.s:252    .text.Mp3Decode:00000000 Mp3Decode
     /tmp/cc0u50Cp.s:520    .text.Mp3Decode:000002bc $d
     /tmp/cc0u50Cp.s:536    .text.Mp3Decode:000002f8 $t
     /tmp/cc0u50Cp.s:565    .text.Mp3Decode:00000348 $d
     /tmp/cc0u50Cp.s:570    .text.Mp3Decode:00000358 $t
     /tmp/cc0u50Cp.s:781    .text.Mp3Decode:00000530 $d
                            *COM*:00000230 MMC_FS
     /tmp/cc0u50Cp.s:804    .text.Mp3PlayAllFiles:00000000 $t
     /tmp/cc0u50Cp.s:809    .text.Mp3PlayAllFiles:00000000 Mp3PlayAllFiles
     /tmp/cc0u50Cp.s:883    .text.Mp3PlayAllFiles:0000009c $d
     /tmp/cc0u50Cp.s:892    .text.InsertHandler:00000000 $t
     /tmp/cc0u50Cp.s:896    .text.InsertHandler:00000000 InsertHandler
     /tmp/cc0u50Cp.s:937    .text.InsertHandler:00000054 $d
                            *COM*:00000040 MMCD1
     /tmp/cc0u50Cp.s:948    .text.port_halt:00000000 $t
     /tmp/cc0u50Cp.s:953    .text.port_halt:00000000 port_halt
     /tmp/cc0u50Cp.s:969    .text.port_halt:0000000c $d
     /tmp/cc0u50Cp.s:972    .text.Codec_TIMEOUT_UserCallback:00000000 $t
     /tmp/cc0u50Cp.s:977    .text.Codec_TIMEOUT_UserCallback:00000000 Codec_TIMEOUT_UserCallback
     /tmp/cc0u50Cp.s:984    .text.startup.main:00000000 $t
     /tmp/cc0u50Cp.s:989    .text.startup.main:00000000 main
     /tmp/cc0u50Cp.s:1081   .text.startup.main:000000e8 $d
     /tmp/cc0u50Cp.s:1102   .bss.g_pMp3DmaBuffer:00000000 $d
     /tmp/cc0u50Cp.s:1106   .bss.g_pMp3DmaBuffer:00000000 g_pMp3DmaBuffer
     /tmp/cc0u50Cp.s:1109   .rodata.evhndl.6984:00000000 $d
     /tmp/cc0u50Cp.s:1113   .rodata.evhndl.6984:00000000 evhndl.6984
     /tmp/cc0u50Cp.s:1117   .bss.waBlinkThread:00000000 $d
     /tmp/cc0u50Cp.s:1121   .bss.waBlinkThread:00000000 waBlinkThread
     /tmp/cc0u50Cp.s:1124   .bss.g_pMp3DmaBufferPtr:00000000 $d
     /tmp/cc0u50Cp.s:1128   .bss.g_pMp3DmaBufferPtr:00000000 g_pMp3DmaBufferPtr
     /tmp/cc0u50Cp.s:1134   .bss.g_Mp3InBuffer:00000000 g_Mp3InBuffer
     /tmp/cc0u50Cp.s:1135   .bss.g_Mp3InBuffer:00000000 $d
     /tmp/cc0u50Cp.s:1137   .bss.g_pMp3DecoderThread:00000000 $d
     /tmp/cc0u50Cp.s:1141   .bss.g_pMp3DecoderThread:00000000 g_pMp3DecoderThread
     /tmp/cc0u50Cp.s:1221   .bss.fs_ready:00000000 $d
     /tmp/cc0u50Cp.s:1225   .bss.fs_ready:00000000 fs_ready
     /tmp/cc0u50Cp.s:1228   .data.ls_spicfg:00000000 $d
     /tmp/cc0u50Cp.s:1232   .data.ls_spicfg:00000000 ls_spicfg
     /tmp/cc0u50Cp.s:1238   .bss.g_pMp3OutBuffer:00000000 $d
     /tmp/cc0u50Cp.s:1242   .bss.g_pMp3OutBuffer:00000000 g_pMp3OutBuffer
     /tmp/cc0u50Cp.s:1245   .bss.g_pMp3OutBufferPtr:00000000 $d
     /tmp/cc0u50Cp.s:1249   .bss.g_pMp3OutBufferPtr:00000000 g_pMp3OutBufferPtr
     /tmp/cc0u50Cp.s:1252   .data.hs_spicfg:00000000 $d
     /tmp/cc0u50Cp.s:1256   .data.hs_spicfg:00000000 hs_spicfg

UNDEFINED SYMBOLS
chEvtSignalFlags
chThdSleep
rlist
chEvtSignalFlagsI
SPID3
f_read
f_lseek
f_open
chprintf
MP3InitDecoder
strncmp
strcmp
memmove
SD2
MP3FindSyncWord
MP3Decode
MP3GetLastFrameInfo
memcpy
EVAL_AUDIO_Init
EVAL_AUDIO_Play
chEvtWaitAny
MP3FreeDecoder
EVAL_AUDIO_Stop
EVAL_AUDIO_DeInit
f_close
chEvtWaitOneTimeout
f_mount
f_gets
f_opendir
strcpy
strcat
strlen
strcasecmp
f_readdir
mmcConnect
mmcDisconnect
halInit
chSysInit
_pal_lld_setgroupmode
sdStart
mmcObjectInit
mmcStart
dmaStreamAllocate
chThdCreateStatic
chEvtRegisterMask
chEvtWaitOne
chEvtDispatch
SPID1
