   1              		.syntax unified
   2              		.cpu cortex-m4
   3              		.eabi_attribute 27, 3
   4              		.fpu fpv4-sp-d16
   5              		.eabi_attribute 20, 1
   6              		.eabi_attribute 21, 1
   7              		.eabi_attribute 23, 3
   8              		.eabi_attribute 24, 1
   9              		.eabi_attribute 25, 1
  10              		.eabi_attribute 26, 1
  11              		.eabi_attribute 30, 4
  12              		.eabi_attribute 34, 1
  13              		.eabi_attribute 18, 4
  14              		.thumb
  15              		.file	"ff.c"
  16              		.section	.text.mem_cpy,"ax",%progbits
  17              		.align	1
  18              		.thumb
  19              		.thumb_func
  21              	mem_cpy:
  22              		@ args = 0, pretend = 0, frame = 0
  23              		@ frame_needed = 0, uses_anonymous_args = 0
  24 0000 10B5     		push	{r4, lr}
  25 0002 0023     		movs	r3, #0
  26 0004 02E0     		b	.L2
  27              	.L3:
  28 0006 CC5C     		ldrb	r4, [r1, r3]	@ zero_extendqisi2
  29 0008 C454     		strb	r4, [r0, r3]
  30 000a 0133     		adds	r3, r3, #1
  31              	.L2:
  32 000c 9342     		cmp	r3, r2
  33 000e FAD1     		bne	.L3
  34 0010 10BD     		pop	{r4, pc}
  36              		.section	.text.mem_set,"ax",%progbits
  37              		.align	1
  38              		.thumb
  39              		.thumb_func
  41              	mem_set:
  42              		@ args = 0, pretend = 0, frame = 0
  43              		@ frame_needed = 0, uses_anonymous_args = 0
  44              		@ link register save eliminated.
  45 0000 01E0     		b	.L5
  46              	.L6:
  47 0002 00F8011B 		strb	r1, [r0], #1
  48              	.L5:
  49 0006 12F1FF32 		adds	r2, r2, #-1
  50 000a FAD2     		bcs	.L6
  51 000c 7047     		bx	lr
  53              		.section	.text.get_fileinfo,"ax",%progbits
  54              		.align	1
  55              		.thumb
  56              		.thumb_func
  58              	get_fileinfo:
  59              		@ args = 0, pretend = 0, frame = 0
  60              		@ frame_needed = 0, uses_anonymous_args = 0
  61 0000 0369     		ldr	r3, [r0, #16]
  62 0002 30B5     		push	{r4, r5, lr}
  63 0004 01F10902 		add	r2, r1, #9
  64 0008 002B     		cmp	r3, #0
  65 000a 3BD0     		beq	.L8
  66 000c 4369     		ldr	r3, [r0, #20]
  67 000e 0024     		movs	r4, #0
  68 0010 1046     		mov	r0, r2
  69              	.L11:
  70 0012 1D5D     		ldrb	r5, [r3, r4]	@ zero_extendqisi2
  71 0014 202D     		cmp	r5, #32
  72 0016 0246     		mov	r2, r0
  73 0018 08D0     		beq	.L9
  74 001a 052D     		cmp	r5, #5
  75 001c 08BF     		it	eq
  76 001e E525     		moveq	r5, #229
  77 0020 00F8015B 		strb	r5, [r0], #1
  78 0024 0134     		adds	r4, r4, #1
  79 0026 082C     		cmp	r4, #8
  80 0028 0246     		mov	r2, r0
  81 002a F2D1     		bne	.L11
  82              	.L9:
  83 002c 1C7A     		ldrb	r4, [r3, #8]	@ zero_extendqisi2
  84 002e 202C     		cmp	r4, #32
  85 0030 0DD0     		beq	.L12
  86 0032 2E22     		movs	r2, #46
  87 0034 00F8012B 		strb	r2, [r0], #1
  88 0038 0824     		movs	r4, #8
  89              	.L13:
  90 003a 1D5D     		ldrb	r5, [r3, r4]	@ zero_extendqisi2
  91 003c 202D     		cmp	r5, #32
  92 003e 0246     		mov	r2, r0
  93 0040 05D0     		beq	.L12
  94 0042 00F8015B 		strb	r5, [r0], #1
  95 0046 0134     		adds	r4, r4, #1
  96 0048 0B2C     		cmp	r4, #11
  97 004a 0246     		mov	r2, r0
  98 004c F5D1     		bne	.L13
  99              	.L12:
 100 004e D87A     		ldrb	r0, [r3, #11]	@ zero_extendqisi2
 101 0050 0872     		strb	r0, [r1, #8]
 102 0052 9C7F     		ldrb	r4, [r3, #30]	@ zero_extendqisi2
 103 0054 93F81FC0 		ldrb	ip, [r3, #31]	@ zero_extendqisi2
 104 0058 2004     		lsls	r0, r4, #16
 105 005a 1C7F     		ldrb	r4, [r3, #28]	@ zero_extendqisi2
 106 005c 40EA0C6C 		orr	ip, r0, ip, lsl #24
 107 0060 587F     		ldrb	r0, [r3, #29]	@ zero_extendqisi2
 108 0062 4CEA040C 		orr	ip, ip, r4
 109 0066 4CEA0024 		orr	r4, ip, r0, lsl #8
 110 006a 0C60     		str	r4, [r1, #0]
 111 006c 187E     		ldrb	r0, [r3, #24]	@ zero_extendqisi2
 112 006e 5C7E     		ldrb	r4, [r3, #25]	@ zero_extendqisi2
 113 0070 40EA042C 		orr	ip, r0, r4, lsl #8
 114 0074 A1F804C0 		strh	ip, [r1, #4]	@ movhi
 115 0078 D87D     		ldrb	r0, [r3, #23]	@ zero_extendqisi2
 116 007a 93F816C0 		ldrb	ip, [r3, #22]	@ zero_extendqisi2
 117 007e 4CEA0020 		orr	r0, ip, r0, lsl #8
 118 0082 C880     		strh	r0, [r1, #6]	@ movhi
 119              	.L8:
 120 0084 0021     		movs	r1, #0
 121 0086 1170     		strb	r1, [r2, #0]
 122 0088 30BD     		pop	{r4, r5, pc}
 124              		.section	.text.validate,"ax",%progbits
 125              		.align	1
 126              		.thumb
 127              		.thumb_func
 129              	validate:
 130              		@ args = 0, pretend = 0, frame = 0
 131              		@ frame_needed = 0, uses_anonymous_args = 0
 132 0000 08B5     		push	{r3, lr}
 133 0002 60B1     		cbz	r0, .L20
 134 0004 0378     		ldrb	r3, [r0, #0]	@ zero_extendqisi2
 135 0006 53B1     		cbz	r3, .L20
 136 0008 C288     		ldrh	r2, [r0, #6]
 137 000a 8A42     		cmp	r2, r1
 138 000c 09D1     		bne	.L21
 139 000e 4078     		ldrb	r0, [r0, #1]	@ zero_extendqisi2
 140 0010 FFF7FEFF 		bl	disk_status
 141 0014 10F00100 		ands	r0, r0, #1
 142 0018 18BF     		it	ne
 143 001a 0320     		movne	r0, #3
 144 001c 08BD     		pop	{r3, pc}
 145              	.L20:
 146 001e 0920     		movs	r0, #9
 147 0020 08BD     		pop	{r3, pc}
 148              	.L21:
 149 0022 0920     		movs	r0, #9
 150 0024 08BD     		pop	{r3, pc}
 152              		.section	.text.check_fs,"ax",%progbits
 153              		.align	1
 154              		.thumb
 155              		.thumb_func
 157              	check_fs:
 158              		@ args = 0, pretend = 0, frame = 0
 159              		@ frame_needed = 0, uses_anonymous_args = 0
 160 0000 10B5     		push	{r4, lr}
 161 0002 0446     		mov	r4, r0
 162 0004 0A46     		mov	r2, r1
 163 0006 4078     		ldrb	r0, [r0, #1]	@ zero_extendqisi2
 164 0008 04F13001 		add	r1, r4, #48
 165 000c 0123     		movs	r3, #1
 166 000e FFF7FEFF 		bl	disk_read
 167 0012 0028     		cmp	r0, #0
 168 0014 32D1     		bne	.L25
 169 0016 94F82E22 		ldrb	r2, [r4, #558]	@ zero_extendqisi2
 170 001a 94F82FC2 		ldrb	ip, [r4, #559]	@ zero_extendqisi2
 171 001e 194B     		ldr	r3, .L28
 172 0020 42EA0C21 		orr	r1, r2, ip, lsl #8
 173 0024 0AB2     		sxth	r2, r1
 174 0026 9A42     		cmp	r2, r3
 175 0028 2AD1     		bne	.L26
 176 002a 94F86810 		ldrb	r1, [r4, #104]	@ zero_extendqisi2
 177 002e 94F86930 		ldrb	r3, [r4, #105]	@ zero_extendqisi2
 178 0032 94F866C0 		ldrb	ip, [r4, #102]	@ zero_extendqisi2
 179 0036 0A04     		lsls	r2, r1, #16
 180 0038 42EA0361 		orr	r1, r2, r3, lsl #24
 181 003c 94F86720 		ldrb	r2, [r4, #103]	@ zero_extendqisi2
 182 0040 41EA0C0E 		orr	lr, r1, ip
 183 0044 4EEA0223 		orr	r3, lr, r2, lsl #8
 184 0048 23F07F41 		bic	r1, r3, #-16777216
 185 004c 0E4B     		ldr	r3, .L28+4
 186 004e 9942     		cmp	r1, r3
 187 0050 17D0     		beq	.L24
 188 0052 94F88420 		ldrb	r2, [r4, #132]	@ zero_extendqisi2
 189 0056 94F885C0 		ldrb	ip, [r4, #133]	@ zero_extendqisi2
 190 005a 94F882E0 		ldrb	lr, [r4, #130]	@ zero_extendqisi2
 191 005e 1004     		lsls	r0, r2, #16
 192 0060 40EA0C61 		orr	r1, r0, ip, lsl #24
 193 0064 94F88300 		ldrb	r0, [r4, #131]	@ zero_extendqisi2
 194 0068 41EA0E01 		orr	r1, r1, lr
 195 006c 41EA0022 		orr	r2, r1, r0, lsl #8
 196 0070 22F07F40 		bic	r0, r2, #-16777216
 197 0074 C01A     		subs	r0, r0, r3
 198 0076 18BF     		it	ne
 199 0078 0120     		movne	r0, #1
 200 007a 10BD     		pop	{r4, pc}
 201              	.L25:
 202 007c 0320     		movs	r0, #3
 203 007e 10BD     		pop	{r4, pc}
 204              	.L26:
 205 0080 0220     		movs	r0, #2
 206              	.L24:
 207 0082 10BD     		pop	{r4, pc}
 208              	.L29:
 209              		.align	2
 210              	.L28:
 211 0084 55AAFFFF 		.word	-21931
 212 0088 46415400 		.word	5521734
 214              		.section	.text.chk_mounted,"ax",%progbits
 215              		.align	1
 216              		.thumb
 217              		.thumb_func
 219              	chk_mounted:
 220              		@ args = 0, pretend = 0, frame = 0
 221              		@ frame_needed = 0, uses_anonymous_args = 0
 222 0000 2DE9F041 		push	{r4, r5, r6, r7, r8, lr}
 223 0004 0368     		ldr	r3, [r0, #0]
 224 0006 1546     		mov	r5, r2
 225 0008 1A78     		ldrb	r2, [r3, #0]	@ zero_extendqisi2
 226 000a 303A     		subs	r2, r2, #48
 227 000c 092A     		cmp	r2, #9
 228 000e 07D8     		bhi	.L31
 229 0010 5C78     		ldrb	r4, [r3, #1]	@ zero_extendqisi2
 230 0012 3A2C     		cmp	r4, #58
 231 0014 04D1     		bne	.L31
 232 0016 0233     		adds	r3, r3, #2
 233 0018 0360     		str	r3, [r0, #0]
 234 001a 002A     		cmp	r2, #0
 235 001c 40F06681 		bne	.L44
 236              	.L31:
 237 0020 BB48     		ldr	r0, .L67
 238 0022 0468     		ldr	r4, [r0, #0]
 239 0024 0C60     		str	r4, [r1, #0]
 240 0026 002C     		cmp	r4, #0
 241 0028 00F06381 		beq	.L45
 242 002c 2178     		ldrb	r1, [r4, #0]	@ zero_extendqisi2
 243 002e 69B1     		cbz	r1, .L33
 244 0030 6078     		ldrb	r0, [r4, #1]	@ zero_extendqisi2
 245 0032 FFF7FEFF 		bl	disk_status
 246 0036 C307     		lsls	r3, r0, #31
 247 0038 08D4     		bmi	.L33
 248 003a 002D     		cmp	r5, #0
 249 003c 00F05C81 		beq	.L46
 250 0040 10F00400 		ands	r0, r0, #4
 251 0044 18BF     		it	ne
 252 0046 0A20     		movne	r0, #10
 253 0048 BDE8F081 		pop	{r4, r5, r6, r7, r8, pc}
 254              	.L33:
 255 004c 0020     		movs	r0, #0
 256 004e 2070     		strb	r0, [r4, #0]
 257 0050 6070     		strb	r0, [r4, #1]
 258 0052 FFF7FEFF 		bl	disk_initialize
 259 0056 C107     		lsls	r1, r0, #31
 260 0058 00F15181 		bmi	.L48
 261 005c 15B1     		cbz	r5, .L34
 262 005e 4207     		lsls	r2, r0, #29
 263 0060 00F15081 		bmi	.L49
 264              	.L34:
 265 0064 0021     		movs	r1, #0
 266 0066 2046     		mov	r0, r4
 267 0068 FFF7FEFF 		bl	check_fs
 268 006c 0128     		cmp	r0, #1
 269 006e 18D1     		bne	.L50
 270 0070 94F8F221 		ldrb	r2, [r4, #498]	@ zero_extendqisi2
 271 0074 002A     		cmp	r2, #0
 272 0076 00F05581 		beq	.L65
 273 007a 94F8F821 		ldrb	r2, [r4, #504]	@ zero_extendqisi2
 274 007e 94F8F931 		ldrb	r3, [r4, #505]	@ zero_extendqisi2
 275 0082 94F8F6E1 		ldrb	lr, [r4, #502]	@ zero_extendqisi2
 276 0086 94F8F7C1 		ldrb	ip, [r4, #503]	@ zero_extendqisi2
 277 008a 1104     		lsls	r1, r2, #16
 278 008c 41EA0360 		orr	r0, r1, r3, lsl #24
 279 0090 40EA0E06 		orr	r6, r0, lr
 280 0094 46EA0C26 		orr	r6, r6, ip, lsl #8
 281 0098 2046     		mov	r0, r4
 282 009a 3146     		mov	r1, r6
 283 009c FFF7FEFF 		bl	check_fs
 284 00a0 00E0     		b	.L35
 285              	.L50:
 286 00a2 0026     		movs	r6, #0
 287              	.L35:
 288 00a4 0328     		cmp	r0, #3
 289 00a6 00F03081 		beq	.L52
 290 00aa 0028     		cmp	r0, #0
 291 00ac 40F03A81 		bne	.L65
 292 00b0 94F83C30 		ldrb	r3, [r4, #60]	@ zero_extendqisi2
 293 00b4 94F83B10 		ldrb	r1, [r4, #59]	@ zero_extendqisi2
 294 00b8 41EA0320 		orr	r0, r1, r3, lsl #8
 295 00bc B0F5007F 		cmp	r0, #512
 296 00c0 40F03081 		bne	.L65
 297 00c4 94F84750 		ldrb	r5, [r4, #71]	@ zero_extendqisi2
 298 00c8 94F84620 		ldrb	r2, [r4, #70]	@ zero_extendqisi2
 299 00cc 52EA0520 		orrs	r0, r2, r5, lsl #8
 300 00d0 0ED1     		bne	.L36
 301 00d2 94F85620 		ldrb	r2, [r4, #86]	@ zero_extendqisi2
 302 00d6 94F85730 		ldrb	r3, [r4, #87]	@ zero_extendqisi2
 303 00da 94F854E0 		ldrb	lr, [r4, #84]	@ zero_extendqisi2
 304 00de 94F85500 		ldrb	r0, [r4, #85]	@ zero_extendqisi2
 305 00e2 1504     		lsls	r5, r2, #16
 306 00e4 45EA0361 		orr	r1, r5, r3, lsl #24
 307 00e8 41EA0E0C 		orr	ip, r1, lr
 308 00ec 4CEA0020 		orr	r0, ip, r0, lsl #8
 309              	.L36:
 310 00f0 94F84050 		ldrb	r5, [r4, #64]	@ zero_extendqisi2
 311 00f4 E061     		str	r0, [r4, #28]
 312 00f6 6B1E     		subs	r3, r5, #1
 313 00f8 D9B2     		uxtb	r1, r3
 314 00fa 0129     		cmp	r1, #1
 315 00fc E570     		strb	r5, [r4, #3]
 316 00fe 00F21181 		bhi	.L65
 317 0102 94F83D10 		ldrb	r1, [r4, #61]	@ zero_extendqisi2
 318 0106 A170     		strb	r1, [r4, #2]
 319 0108 0029     		cmp	r1, #0
 320 010a 00F00B81 		beq	.L65
 321 010e 4A1E     		subs	r2, r1, #1
 322 0110 0A42     		tst	r2, r1
 323 0112 40F00781 		bne	.L65
 324 0116 94F842C0 		ldrb	ip, [r4, #66]	@ zero_extendqisi2
 325 011a 94F841E0 		ldrb	lr, [r4, #65]	@ zero_extendqisi2
 326 011e 4EEA0C22 		orr	r2, lr, ip, lsl #8
 327 0122 1307     		lsls	r3, r2, #28
 328 0124 2281     		strh	r2, [r4, #8]	@ movhi
 329 0126 40F0FD80 		bne	.L65
 330 012a 94F84470 		ldrb	r7, [r4, #68]	@ zero_extendqisi2
 331 012e 94F84330 		ldrb	r3, [r4, #67]	@ zero_extendqisi2
 332 0132 53EA0723 		orrs	r3, r3, r7, lsl #8
 333 0136 0ED1     		bne	.L37
 334 0138 94F85270 		ldrb	r7, [r4, #82]	@ zero_extendqisi2
 335 013c 94F853C0 		ldrb	ip, [r4, #83]	@ zero_extendqisi2
 336 0140 3B04     		lsls	r3, r7, #16
 337 0142 94F85070 		ldrb	r7, [r4, #80]	@ zero_extendqisi2
 338 0146 43EA0C6E 		orr	lr, r3, ip, lsl #24
 339 014a 94F85130 		ldrb	r3, [r4, #81]	@ zero_extendqisi2
 340 014e 4EEA070C 		orr	ip, lr, r7
 341 0152 4CEA0323 		orr	r3, ip, r3, lsl #8
 342              	.L37:
 343 0156 94F83FE0 		ldrb	lr, [r4, #63]	@ zero_extendqisi2
 344 015a 94F83E70 		ldrb	r7, [r4, #62]	@ zero_extendqisi2
 345 015e 57EA0E2C 		orrs	ip, r7, lr, lsl #8
 346 0162 00F0DF80 		beq	.L65
 347 0166 05FB00F8 		mul	r8, r5, r0
 348 016a 0CEB1217 		add	r7, ip, r2, lsr #4
 349 016e 4744     		add	r7, r7, r8
 350 0170 BB42     		cmp	r3, r7
 351 0172 C0F0D780 		bcc	.L65
 352 0176 DB1B     		subs	r3, r3, r7
 353 0178 B3FBF1F3 		udiv	r3, r3, r1
 354 017c 002B     		cmp	r3, #0
 355 017e 00F0D180 		beq	.L65
 356 0182 40F6F575 		movw	r5, #4085
 357 0186 AB42     		cmp	r3, r5
 358 0188 06D9     		bls	.L62
 359 018a 4FF6F571 		movw	r1, #65525
 360 018e 8B42     		cmp	r3, r1
 361 0190 8CBF     		ite	hi
 362 0192 0325     		movhi	r5, #3
 363 0194 0225     		movls	r5, #2
 364 0196 00E0     		b	.L39
 365              	.L62:
 366 0198 0125     		movs	r5, #1
 367              	.L39:
 368 019a 0233     		adds	r3, r3, #2
 369 019c BF19     		adds	r7, r7, r6
 370 019e 06EB0C01 		add	r1, r6, ip
 371 01a2 032D     		cmp	r5, #3
 372 01a4 A361     		str	r3, [r4, #24]
 373 01a6 A762     		str	r7, [r4, #40]
 374 01a8 2162     		str	r1, [r4, #32]
 375 01aa 14D1     		bne	.L40
 376 01ac 002A     		cmp	r2, #0
 377 01ae 40F0B980 		bne	.L65
 378 01b2 94F85E10 		ldrb	r1, [r4, #94]	@ zero_extendqisi2
 379 01b6 94F85FC0 		ldrb	ip, [r4, #95]	@ zero_extendqisi2
 380 01ba 94F85DE0 		ldrb	lr, [r4, #93]	@ zero_extendqisi2
 381 01be 0A04     		lsls	r2, r1, #16
 382 01c0 94F85C10 		ldrb	r1, [r4, #92]	@ zero_extendqisi2
 383 01c4 42EA0C62 		orr	r2, r2, ip, lsl #24
 384 01c8 42EA010C 		orr	ip, r2, r1
 385 01cc 4CEA0E22 		orr	r2, ip, lr, lsl #8
 386 01d0 6262     		str	r2, [r4, #36]
 387 01d2 9B00     		lsls	r3, r3, #2
 388 01d4 11E0     		b	.L41
 389              	.L40:
 390 01d6 002A     		cmp	r2, #0
 391 01d8 00F0A480 		beq	.L65
 392 01dc 022D     		cmp	r5, #2
 393 01de 4FEA430E 		lsl	lr, r3, #1
 394 01e2 18BF     		it	ne
 395 01e4 9E44     		addne	lr, lr, r3
 396 01e6 08EB0102 		add	r2, r8, r1
 397 01ea 18BF     		it	ne
 398 01ec 03F00103 		andne	r3, r3, #1
 399 01f0 6262     		str	r2, [r4, #36]
 400 01f2 0CBF     		ite	eq
 401 01f4 7346     		moveq	r3, lr
 402 01f6 03EB5E03 		addne	r3, r3, lr, lsr #1
 403              	.L41:
 404 01fa 03F5FE71 		add	r1, r3, #508
 405 01fe CB1C     		adds	r3, r1, #3
 406 0200 B0EB532F 		cmp	r0, r3, lsr #9
 407 0204 C0F09180 		bcc	.L66
 408 0208 0023     		movs	r3, #0
 409 020a 4FF0FF30 		mov	r0, #-1
 410 020e 032D     		cmp	r5, #3
 411 0210 2061     		str	r0, [r4, #16]
 412 0212 E360     		str	r3, [r4, #12]
 413 0214 5FD1     		bne	.L43
 414 0216 94F86020 		ldrb	r2, [r4, #96]	@ zero_extendqisi2
 415 021a 94F861E0 		ldrb	lr, [r4, #97]	@ zero_extendqisi2
 416 021e 6371     		strb	r3, [r4, #5]
 417 0220 42EA0E2C 		orr	ip, r2, lr, lsl #8
 418 0224 06EB0C02 		add	r2, r6, ip
 419 0228 6261     		str	r2, [r4, #20]
 420 022a 6078     		ldrb	r0, [r4, #1]	@ zero_extendqisi2
 421 022c 04F13001 		add	r1, r4, #48
 422 0230 0123     		movs	r3, #1
 423 0232 FFF7FEFF 		bl	disk_read
 424 0236 0028     		cmp	r0, #0
 425 0238 4DD1     		bne	.L43
 426 023a 94F82FC2 		ldrb	ip, [r4, #559]	@ zero_extendqisi2
 427 023e 94F82E22 		ldrb	r2, [r4, #558]	@ zero_extendqisi2
 428 0242 344B     		ldr	r3, .L67+4
 429 0244 42EA0C20 		orr	r0, r2, ip, lsl #8
 430 0248 01B2     		sxth	r1, r0
 431 024a 9942     		cmp	r1, r3
 432 024c 43D1     		bne	.L43
 433 024e 94F83230 		ldrb	r3, [r4, #50]	@ zero_extendqisi2
 434 0252 94F833C0 		ldrb	ip, [r4, #51]	@ zero_extendqisi2
 435 0256 94F830E0 		ldrb	lr, [r4, #48]	@ zero_extendqisi2
 436 025a 94F83120 		ldrb	r2, [r4, #49]	@ zero_extendqisi2
 437 025e 1804     		lsls	r0, r3, #16
 438 0260 40EA0C61 		orr	r1, r0, ip, lsl #24
 439 0264 41EA0E00 		orr	r0, r1, lr
 440 0268 2B4B     		ldr	r3, .L67+8
 441 026a 40EA0221 		orr	r1, r0, r2, lsl #8
 442 026e 9942     		cmp	r1, r3
 443 0270 31D1     		bne	.L43
 444 0272 94F81602 		ldrb	r0, [r4, #534]	@ zero_extendqisi2
 445 0276 94F81712 		ldrb	r1, [r4, #535]	@ zero_extendqisi2
 446 027a 94F81432 		ldrb	r3, [r4, #532]	@ zero_extendqisi2
 447 027e 94F815E2 		ldrb	lr, [r4, #533]	@ zero_extendqisi2
 448 0282 0204     		lsls	r2, r0, #16
 449 0284 42EA016C 		orr	ip, r2, r1, lsl #24
 450 0288 4CEA0300 		orr	r0, ip, r3
 451 028c 2349     		ldr	r1, .L67+12
 452 028e 40EA0E22 		orr	r2, r0, lr, lsl #8
 453 0292 8A42     		cmp	r2, r1
 454 0294 1FD1     		bne	.L43
 455 0296 94F81E32 		ldrb	r3, [r4, #542]	@ zero_extendqisi2
 456 029a 94F81F22 		ldrb	r2, [r4, #543]	@ zero_extendqisi2
 457 029e 94F81CC2 		ldrb	ip, [r4, #540]	@ zero_extendqisi2
 458 02a2 1804     		lsls	r0, r3, #16
 459 02a4 40EA0261 		orr	r1, r0, r2, lsl #24
 460 02a8 41EA0C0E 		orr	lr, r1, ip
 461 02ac 94F81D32 		ldrb	r3, [r4, #541]	@ zero_extendqisi2
 462 02b0 94F81A12 		ldrb	r1, [r4, #538]	@ zero_extendqisi2
 463 02b4 94F81B22 		ldrb	r2, [r4, #539]	@ zero_extendqisi2
 464 02b8 94F818C2 		ldrb	ip, [r4, #536]	@ zero_extendqisi2
 465 02bc 4EEA0320 		orr	r0, lr, r3, lsl #8
 466 02c0 0B04     		lsls	r3, r1, #16
 467 02c2 E060     		str	r0, [r4, #12]
 468 02c4 94F819E2 		ldrb	lr, [r4, #537]	@ zero_extendqisi2
 469 02c8 43EA0260 		orr	r0, r3, r2, lsl #24
 470 02cc 40EA0C01 		orr	r1, r0, ip
 471 02d0 41EA0E23 		orr	r3, r1, lr, lsl #8
 472 02d4 2361     		str	r3, [r4, #16]
 473              	.L43:
 474 02d6 1248     		ldr	r0, .L67+16
 475 02d8 2570     		strb	r5, [r4, #0]
 476 02da 0288     		ldrh	r2, [r0, #0]
 477 02dc 511C     		adds	r1, r2, #1
 478 02de 0180     		strh	r1, [r0, #0]	@ movhi
 479 02e0 0020     		movs	r0, #0
 480 02e2 E180     		strh	r1, [r4, #6]	@ movhi
 481 02e4 E062     		str	r0, [r4, #44]
 482 02e6 2071     		strb	r0, [r4, #4]
 483 02e8 BDE8F081 		pop	{r4, r5, r6, r7, r8, pc}
 484              	.L44:
 485 02ec 0B20     		movs	r0, #11
 486 02ee BDE8F081 		pop	{r4, r5, r6, r7, r8, pc}
 487              	.L45:
 488 02f2 0C20     		movs	r0, #12
 489 02f4 BDE8F081 		pop	{r4, r5, r6, r7, r8, pc}
 490              	.L46:
 491 02f8 2846     		mov	r0, r5
 492 02fa BDE8F081 		pop	{r4, r5, r6, r7, r8, pc}
 493              	.L48:
 494 02fe 0320     		movs	r0, #3
 495 0300 BDE8F081 		pop	{r4, r5, r6, r7, r8, pc}
 496              	.L49:
 497 0304 0A20     		movs	r0, #10
 498 0306 BDE8F081 		pop	{r4, r5, r6, r7, r8, pc}
 499              	.L52:
 500 030a 0120     		movs	r0, #1
 501 030c BDE8F081 		pop	{r4, r5, r6, r7, r8, pc}
 502              	.L68:
 503              		.align	2
 504              	.L67:
 505 0310 00000000 		.word	.LANCHOR0
 506 0314 55AAFFFF 		.word	-21931
 507 0318 52526141 		.word	1096897106
 508 031c 72724161 		.word	1631679090
 509 0320 00000000 		.word	.LANCHOR1
 510              	.L65:
 511 0324 0D20     		movs	r0, #13
 512 0326 BDE8F081 		pop	{r4, r5, r6, r7, r8, pc}
 513              	.L66:
 514 032a 0D20     		movs	r0, #13
 515 032c BDE8F081 		pop	{r4, r5, r6, r7, r8, pc}
 517              		.section	.text.move_window,"ax",%progbits
 518              		.align	1
 519              		.thumb
 520              		.thumb_func
 522              	move_window:
 523              		@ args = 0, pretend = 0, frame = 0
 524              		@ frame_needed = 0, uses_anonymous_args = 0
 525 0000 2DE9F041 		push	{r4, r5, r6, r7, r8, lr}
 526 0004 C56A     		ldr	r5, [r0, #44]
 527 0006 8D42     		cmp	r5, r1
 528 0008 0446     		mov	r4, r0
 529 000a 0E46     		mov	r6, r1
 530 000c 2AD0     		beq	.L74
 531 000e 0379     		ldrb	r3, [r0, #4]	@ zero_extendqisi2
 532 0010 E3B1     		cbz	r3, .L71
 533 0012 00F13008 		add	r8, r0, #48
 534 0016 4146     		mov	r1, r8
 535 0018 4078     		ldrb	r0, [r0, #1]	@ zero_extendqisi2
 536 001a 2A46     		mov	r2, r5
 537 001c 0123     		movs	r3, #1
 538 001e FFF7FEFF 		bl	disk_write
 539 0022 10BB     		cbnz	r0, .L75
 540 0024 E269     		ldr	r2, [r4, #28]
 541 0026 216A     		ldr	r1, [r4, #32]
 542 0028 2071     		strb	r0, [r4, #4]
 543 002a 5018     		adds	r0, r2, r1
 544 002c 8542     		cmp	r5, r0
 545 002e 0DD2     		bcs	.L71
 546 0030 E778     		ldrb	r7, [r4, #3]	@ zero_extendqisi2
 547 0032 09E0     		b	.L72
 548              	.L73:
 549 0034 E369     		ldr	r3, [r4, #28]
 550 0036 6078     		ldrb	r0, [r4, #1]	@ zero_extendqisi2
 551 0038 ED18     		adds	r5, r5, r3
 552 003a 4146     		mov	r1, r8
 553 003c 2A46     		mov	r2, r5
 554 003e 0123     		movs	r3, #1
 555 0040 FFF7FEFF 		bl	disk_write
 556 0044 013F     		subs	r7, r7, #1
 557 0046 FFB2     		uxtb	r7, r7
 558              	.L72:
 559 0048 012F     		cmp	r7, #1
 560 004a F3D8     		bhi	.L73
 561              	.L71:
 562 004c 86B1     		cbz	r6, .L76
 563 004e 6078     		ldrb	r0, [r4, #1]	@ zero_extendqisi2
 564 0050 04F13001 		add	r1, r4, #48
 565 0054 3246     		mov	r2, r6
 566 0056 0123     		movs	r3, #1
 567 0058 FFF7FEFF 		bl	disk_read
 568 005c 58B9     		cbnz	r0, .L77
 569 005e E662     		str	r6, [r4, #44]
 570 0060 BDE8F081 		pop	{r4, r5, r6, r7, r8, pc}
 571              	.L74:
 572 0064 0020     		movs	r0, #0
 573 0066 BDE8F081 		pop	{r4, r5, r6, r7, r8, pc}
 574              	.L75:
 575 006a 0120     		movs	r0, #1
 576 006c BDE8F081 		pop	{r4, r5, r6, r7, r8, pc}
 577              	.L76:
 578 0070 3046     		mov	r0, r6
 579 0072 BDE8F081 		pop	{r4, r5, r6, r7, r8, pc}
 580              	.L77:
 581 0076 0120     		movs	r0, #1
 582 0078 BDE8F081 		pop	{r4, r5, r6, r7, r8, pc}
 584              		.section	.text.sync,"ax",%progbits
 585              		.align	1
 586              		.thumb
 587              		.thumb_func
 589              	sync:
 590              		@ args = 0, pretend = 0, frame = 0
 591              		@ frame_needed = 0, uses_anonymous_args = 0
 592 0000 70B5     		push	{r4, r5, r6, lr}
 593 0002 0021     		movs	r1, #0
 594 0004 0446     		mov	r4, r0
 595 0006 FFF7FEFF 		bl	move_window
 596 000a 0546     		mov	r5, r0
 597 000c 0028     		cmp	r0, #0
 598 000e 4FD1     		bne	.L79
 599 0010 2378     		ldrb	r3, [r4, #0]	@ zero_extendqisi2
 600 0012 032B     		cmp	r3, #3
 601 0014 44D1     		bne	.L80
 602 0016 6079     		ldrb	r0, [r4, #5]	@ zero_extendqisi2
 603 0018 0028     		cmp	r0, #0
 604 001a 41D0     		beq	.L80
 605 001c 04F13006 		add	r6, r4, #48
 606 0020 3046     		mov	r0, r6
 607 0022 2946     		mov	r1, r5
 608 0024 4FF40072 		mov	r2, #512
 609 0028 E562     		str	r5, [r4, #44]
 610 002a FFF7FEFF 		bl	mem_set
 611 002e AA23     		movs	r3, #170
 612 0030 84F82F32 		strb	r3, [r4, #559]
 613 0034 6123     		movs	r3, #97
 614 0036 5522     		movs	r2, #85
 615 0038 84F83230 		strb	r3, [r4, #50]
 616 003c 84F81732 		strb	r3, [r4, #535]
 617 0040 2369     		ldr	r3, [r4, #16]
 618 0042 84F82E22 		strb	r2, [r4, #558]
 619 0046 5220     		movs	r0, #82
 620 0048 4122     		movs	r2, #65
 621 004a 7221     		movs	r1, #114
 622 004c 84F83000 		strb	r0, [r4, #48]
 623 0050 84F83100 		strb	r0, [r4, #49]
 624 0054 84F83320 		strb	r2, [r4, #51]
 625 0058 180A     		lsrs	r0, r3, #8
 626 005a 84F81412 		strb	r1, [r4, #532]
 627 005e 84F81512 		strb	r1, [r4, #533]
 628 0062 84F81622 		strb	r2, [r4, #534]
 629 0066 190E     		lsrs	r1, r3, #24
 630 0068 1A0C     		lsrs	r2, r3, #16
 631 006a 84F81832 		strb	r3, [r4, #536]
 632 006e E368     		ldr	r3, [r4, #12]
 633 0070 84F81902 		strb	r0, [r4, #537]
 634 0074 84F81A22 		strb	r2, [r4, #538]
 635 0078 180A     		lsrs	r0, r3, #8
 636 007a 1A0C     		lsrs	r2, r3, #16
 637 007c 84F81B12 		strb	r1, [r4, #539]
 638 0080 190E     		lsrs	r1, r3, #24
 639 0082 84F81C32 		strb	r3, [r4, #540]
 640 0086 84F81D02 		strb	r0, [r4, #541]
 641 008a 84F81E22 		strb	r2, [r4, #542]
 642 008e 84F81F12 		strb	r1, [r4, #543]
 643 0092 6078     		ldrb	r0, [r4, #1]	@ zero_extendqisi2
 644 0094 6269     		ldr	r2, [r4, #20]
 645 0096 3146     		mov	r1, r6
 646 0098 0123     		movs	r3, #1
 647 009a FFF7FEFF 		bl	disk_write
 648 009e 6571     		strb	r5, [r4, #5]
 649              	.L80:
 650 00a0 0021     		movs	r1, #0
 651 00a2 6078     		ldrb	r0, [r4, #1]	@ zero_extendqisi2
 652 00a4 0A46     		mov	r2, r1
 653 00a6 FFF7FEFF 		bl	disk_ioctl
 654 00aa 0030     		adds	r0, r0, #0
 655 00ac 18BF     		it	ne
 656 00ae 0120     		movne	r0, #1
 657              	.L79:
 658 00b0 70BD     		pop	{r4, r5, r6, pc}
 660              		.section	.text.clust2sect,"ax",%progbits
 661              		.align	1
 662              		.global	clust2sect
 663              		.thumb
 664              		.thumb_func
 666              	clust2sect:
 667              		@ args = 0, pretend = 0, frame = 0
 668              		@ frame_needed = 0, uses_anonymous_args = 0
 669              		@ link register save eliminated.
 670 0000 8269     		ldr	r2, [r0, #24]
 671 0002 0239     		subs	r1, r1, #2
 672 0004 931E     		subs	r3, r2, #2
 673 0006 9942     		cmp	r1, r3
 674 0008 05D2     		bcs	.L83
 675 000a 90F802C0 		ldrb	ip, [r0, #2]	@ zero_extendqisi2
 676 000e 806A     		ldr	r0, [r0, #40]
 677 0010 0CFB0100 		mla	r0, ip, r1, r0
 678 0014 7047     		bx	lr
 679              	.L83:
 680 0016 0020     		movs	r0, #0
 681 0018 7047     		bx	lr
 683              		.section	.text.get_fat,"ax",%progbits
 684              		.align	1
 685              		.global	get_fat
 686              		.thumb
 687              		.thumb_func
 689              	get_fat:
 690              		@ args = 0, pretend = 0, frame = 0
 691              		@ frame_needed = 0, uses_anonymous_args = 0
 692 0000 0129     		cmp	r1, #1
 693 0002 F8B5     		push	{r3, r4, r5, r6, r7, lr}
 694 0004 0446     		mov	r4, r0
 695 0006 0D46     		mov	r5, r1
 696 0008 59D9     		bls	.L91
 697 000a 8369     		ldr	r3, [r0, #24]
 698 000c 9942     		cmp	r1, r3
 699 000e 56D2     		bcs	.L91
 700 0010 0378     		ldrb	r3, [r0, #0]	@ zero_extendqisi2
 701 0012 022B     		cmp	r3, #2
 702 0014 28D0     		beq	.L87
 703 0016 032B     		cmp	r3, #3
 704 0018 36D0     		beq	.L88
 705 001a 012B     		cmp	r3, #1
 706 001c 51D1     		bne	.L95
 707 001e 01EB5106 		add	r6, r1, r1, lsr #1
 708 0022 016A     		ldr	r1, [r0, #32]
 709 0024 01EB5621 		add	r1, r1, r6, lsr #9
 710 0028 FFF7FEFF 		bl	move_window
 711 002c 0028     		cmp	r0, #0
 712 002e 48D1     		bne	.L95
 713 0030 F305     		lsls	r3, r6, #23
 714 0032 DF0D     		lsrs	r7, r3, #23
 715 0034 E019     		adds	r0, r4, r7
 716 0036 226A     		ldr	r2, [r4, #32]
 717 0038 90F83070 		ldrb	r7, [r0, #48]	@ zero_extendqisi2
 718 003c 0136     		adds	r6, r6, #1
 719 003e 2046     		mov	r0, r4
 720 0040 02EB5621 		add	r1, r2, r6, lsr #9
 721 0044 FFF7FEFF 		bl	move_window
 722 0048 0028     		cmp	r0, #0
 723 004a 3AD1     		bne	.L95
 724 004c F205     		lsls	r2, r6, #23
 725 004e D60D     		lsrs	r6, r2, #23
 726 0050 A619     		adds	r6, r4, r6
 727 0052 EA07     		lsls	r2, r5, #31
 728 0054 96F83010 		ldrb	r1, [r6, #48]	@ zero_extendqisi2
 729 0058 47EA0120 		orr	r0, r7, r1, lsl #8
 730 005c 01D5     		bpl	.L89
 731 005e 0009     		lsrs	r0, r0, #4
 732 0060 F8BD     		pop	{r3, r4, r5, r6, r7, pc}
 733              	.L89:
 734 0062 0005     		lsls	r0, r0, #20
 735 0064 000D     		lsrs	r0, r0, #20
 736 0066 F8BD     		pop	{r3, r4, r5, r6, r7, pc}
 737              	.L87:
 738 0068 036A     		ldr	r3, [r0, #32]
 739 006a 03EB1121 		add	r1, r3, r1, lsr #8
 740 006e FFF7FEFF 		bl	move_window
 741 0072 30BB     		cbnz	r0, .L95
 742 0074 2D06     		lsls	r5, r5, #24
 743 0076 04EBD554 		add	r4, r4, r5, lsr #23
 744 007a 94F83110 		ldrb	r1, [r4, #49]	@ zero_extendqisi2
 745 007e 94F83020 		ldrb	r2, [r4, #48]	@ zero_extendqisi2
 746 0082 42EA0120 		orr	r0, r2, r1, lsl #8
 747 0086 F8BD     		pop	{r3, r4, r5, r6, r7, pc}
 748              	.L88:
 749 0088 036A     		ldr	r3, [r0, #32]
 750 008a 03EBD111 		add	r1, r3, r1, lsr #7
 751 008e FFF7FEFF 		bl	move_window
 752 0092 C8B9     		cbnz	r0, .L96
 753 0094 6D06     		lsls	r5, r5, #25
 754 0096 04EBD554 		add	r4, r4, r5, lsr #23
 755 009a 94F83230 		ldrb	r3, [r4, #50]	@ zero_extendqisi2
 756 009e 94F83320 		ldrb	r2, [r4, #51]	@ zero_extendqisi2
 757 00a2 94F83000 		ldrb	r0, [r4, #48]	@ zero_extendqisi2
 758 00a6 1904     		lsls	r1, r3, #16
 759 00a8 41EA0267 		orr	r7, r1, r2, lsl #24
 760 00ac 47EA000E 		orr	lr, r7, r0
 761 00b0 94F83170 		ldrb	r7, [r4, #49]	@ zero_extendqisi2
 762 00b4 4EEA072C 		orr	ip, lr, r7, lsl #8
 763 00b8 2CF07040 		bic	r0, ip, #-268435456
 764 00bc F8BD     		pop	{r3, r4, r5, r6, r7, pc}
 765              	.L91:
 766 00be 0120     		movs	r0, #1
 767 00c0 F8BD     		pop	{r3, r4, r5, r6, r7, pc}
 768              	.L95:
 769 00c2 4FF0FF30 		mov	r0, #-1
 770 00c6 F8BD     		pop	{r3, r4, r5, r6, r7, pc}
 771              	.L96:
 772 00c8 4FF0FF30 		mov	r0, #-1
 773 00cc F8BD     		pop	{r3, r4, r5, r6, r7, pc}
 775              		.section	.text.dir_sdi,"ax",%progbits
 776              		.align	1
 777              		.thumb
 778              		.thumb_func
 780              	dir_sdi:
 781              		@ args = 0, pretend = 0, frame = 0
 782              		@ frame_needed = 0, uses_anonymous_args = 0
 783 0000 70B5     		push	{r4, r5, r6, lr}
 784 0002 0D46     		mov	r5, r1
 785 0004 C180     		strh	r1, [r0, #6]	@ movhi
 786 0006 8168     		ldr	r1, [r0, #8]
 787 0008 0129     		cmp	r1, #1
 788 000a 0446     		mov	r4, r0
 789 000c 38D0     		beq	.L109
 790 000e 0368     		ldr	r3, [r0, #0]
 791 0010 9A69     		ldr	r2, [r3, #24]
 792 0012 9142     		cmp	r1, r2
 793 0014 34D2     		bcs	.L109
 794 0016 71B9     		cbnz	r1, .L100
 795 0018 1878     		ldrb	r0, [r3, #0]	@ zero_extendqisi2
 796 001a 0328     		cmp	r0, #3
 797 001c 01D1     		bne	.L101
 798 001e 596A     		ldr	r1, [r3, #36]
 799 0020 49B9     		cbnz	r1, .L100
 800              	.L101:
 801 0022 1989     		ldrh	r1, [r3, #8]
 802 0024 0022     		movs	r2, #0
 803 0026 A942     		cmp	r1, r5
 804 0028 E260     		str	r2, [r4, #12]
 805 002a 29D9     		bls	.L109
 806 002c 586A     		ldr	r0, [r3, #36]
 807 002e 00EB1513 		add	r3, r0, r5, lsr #4
 808 0032 2361     		str	r3, [r4, #16]
 809 0034 19E0     		b	.L102
 810              	.L100:
 811 0036 9E78     		ldrb	r6, [r3, #2]	@ zero_extendqisi2
 812 0038 3601     		lsls	r6, r6, #4
 813 003a 0DE0     		b	.L103
 814              	.L104:
 815 003c 2068     		ldr	r0, [r4, #0]
 816 003e FFF7FEFF 		bl	get_fat
 817 0042 431C     		adds	r3, r0, #1
 818 0044 0146     		mov	r1, r0
 819 0046 19D0     		beq	.L108
 820 0048 0128     		cmp	r0, #1
 821 004a 19D9     		bls	.L109
 822 004c 2368     		ldr	r3, [r4, #0]
 823 004e 9A69     		ldr	r2, [r3, #24]
 824 0050 9042     		cmp	r0, r2
 825 0052 17D2     		bcs	.L110
 826 0054 AD1B     		subs	r5, r5, r6
 827 0056 ADB2     		uxth	r5, r5
 828              	.L103:
 829 0058 B542     		cmp	r5, r6
 830 005a EFD2     		bcs	.L104
 831 005c E160     		str	r1, [r4, #12]
 832 005e 2068     		ldr	r0, [r4, #0]
 833 0060 FFF7FEFF 		bl	clust2sect
 834 0064 00EB1511 		add	r1, r0, r5, lsr #4
 835 0068 2161     		str	r1, [r4, #16]
 836              	.L102:
 837 006a 2268     		ldr	r2, [r4, #0]
 838 006c 05F00F03 		and	r3, r5, #15
 839 0070 5801     		lsls	r0, r3, #5
 840 0072 3032     		adds	r2, r2, #48
 841 0074 1518     		adds	r5, r2, r0
 842 0076 6561     		str	r5, [r4, #20]
 843 0078 0020     		movs	r0, #0
 844 007a 70BD     		pop	{r4, r5, r6, pc}
 845              	.L108:
 846 007c 0120     		movs	r0, #1
 847 007e 70BD     		pop	{r4, r5, r6, pc}
 848              	.L109:
 849 0080 0220     		movs	r0, #2
 850 0082 70BD     		pop	{r4, r5, r6, pc}
 851              	.L110:
 852 0084 0220     		movs	r0, #2
 853 0086 70BD     		pop	{r4, r5, r6, pc}
 855              		.section	.text.dir_remove,"ax",%progbits
 856              		.align	1
 857              		.thumb
 858              		.thumb_func
 860              	dir_remove:
 861              		@ args = 0, pretend = 0, frame = 0
 862              		@ frame_needed = 0, uses_anonymous_args = 0
 863 0000 10B5     		push	{r4, lr}
 864 0002 C188     		ldrh	r1, [r0, #6]
 865 0004 0446     		mov	r4, r0
 866 0006 FFF7FEFF 		bl	dir_sdi
 867 000a 50B9     		cbnz	r0, .L112
 868 000c 2068     		ldr	r0, [r4, #0]
 869 000e 2169     		ldr	r1, [r4, #16]
 870 0010 FFF7FEFF 		bl	move_window
 871 0014 28B9     		cbnz	r0, .L112
 872 0016 6269     		ldr	r2, [r4, #20]
 873 0018 E521     		movs	r1, #229
 874 001a 1170     		strb	r1, [r2, #0]
 875 001c 2368     		ldr	r3, [r4, #0]
 876 001e 0122     		movs	r2, #1
 877 0020 1A71     		strb	r2, [r3, #4]
 878              	.L112:
 879 0022 10BD     		pop	{r4, pc}
 881              		.section	.text.put_fat,"ax",%progbits
 882              		.align	1
 883              		.global	put_fat
 884              		.thumb
 885              		.thumb_func
 887              	put_fat:
 888              		@ args = 0, pretend = 0, frame = 0
 889              		@ frame_needed = 0, uses_anonymous_args = 0
 890 0000 0129     		cmp	r1, #1
 891 0002 F8B5     		push	{r3, r4, r5, r6, r7, lr}
 892 0004 0446     		mov	r4, r0
 893 0006 0D46     		mov	r5, r1
 894 0008 1646     		mov	r6, r2
 895 000a 6DD9     		bls	.L123
 896 000c 8369     		ldr	r3, [r0, #24]
 897 000e 9942     		cmp	r1, r3
 898 0010 6CD2     		bcs	.L124
 899 0012 0378     		ldrb	r3, [r0, #0]	@ zero_extendqisi2
 900 0014 022B     		cmp	r3, #2
 901 0016 39D0     		beq	.L117
 902 0018 032B     		cmp	r3, #3
 903 001a 46D0     		beq	.L118
 904 001c 012B     		cmp	r3, #1
 905 001e 5FD1     		bne	.L126
 906 0020 01EB5107 		add	r7, r1, r1, lsr #1
 907 0024 016A     		ldr	r1, [r0, #32]
 908 0026 01EB5721 		add	r1, r1, r7, lsr #9
 909 002a FFF7FEFF 		bl	move_window
 910 002e 0028     		cmp	r0, #0
 911 0030 57D1     		bne	.L115
 912 0032 F805     		lsls	r0, r7, #23
 913 0034 C30D     		lsrs	r3, r0, #23
 914 0036 15F00105 		ands	r5, r5, #1
 915 003a F2B2     		uxtb	r2, r6
 916 003c 06D0     		beq	.L120
 917 003e E118     		adds	r1, r4, r3
 918 0040 91F830E0 		ldrb	lr, [r1, #48]	@ zero_extendqisi2
 919 0044 0EF00F0C 		and	ip, lr, #15
 920 0048 4CEA0212 		orr	r2, ip, r2, lsl #4
 921              	.L120:
 922 004c E018     		adds	r0, r4, r3
 923 004e 0137     		adds	r7, r7, #1
 924 0050 80F83020 		strb	r2, [r0, #48]
 925 0054 226A     		ldr	r2, [r4, #32]
 926 0056 0123     		movs	r3, #1
 927 0058 2371     		strb	r3, [r4, #4]
 928 005a 2046     		mov	r0, r4
 929 005c 02EB5721 		add	r1, r2, r7, lsr #9
 930 0060 FFF7FEFF 		bl	move_window
 931 0064 0028     		cmp	r0, #0
 932 0066 3CD1     		bne	.L115
 933 0068 FF05     		lsls	r7, r7, #23
 934 006a FF0D     		lsrs	r7, r7, #23
 935 006c 0DB1     		cbz	r5, .L121
 936 006e 3609     		lsrs	r6, r6, #4
 937 0070 08E0     		b	.L122
 938              	.L121:
 939 0072 E319     		adds	r3, r4, r7
 940 0074 320A     		lsrs	r2, r6, #8
 941 0076 93F830C0 		ldrb	ip, [r3, #48]	@ zero_extendqisi2
 942 007a 02F00F06 		and	r6, r2, #15
 943 007e 2CF00F01 		bic	r1, ip, #15
 944 0082 0E43     		orrs	r6, r6, r1
 945              	.L122:
 946 0084 E719     		adds	r7, r4, r7
 947 0086 87F83060 		strb	r6, [r7, #48]
 948 008a 2AE0     		b	.L115
 949              	.L117:
 950 008c 016A     		ldr	r1, [r0, #32]
 951 008e 01EB1521 		add	r1, r1, r5, lsr #8
 952 0092 FFF7FEFF 		bl	move_window
 953 0096 20BB     		cbnz	r0, .L115
 954 0098 2D06     		lsls	r5, r5, #24
 955 009a 04EBD555 		add	r5, r4, r5, lsr #23
 956 009e 85F83060 		strb	r6, [r5, #48]
 957 00a2 360A     		lsrs	r6, r6, #8
 958 00a4 85F83160 		strb	r6, [r5, #49]
 959 00a8 1BE0     		b	.L115
 960              	.L118:
 961 00aa 026A     		ldr	r2, [r0, #32]
 962 00ac 02EBD111 		add	r1, r2, r1, lsr #7
 963 00b0 FFF7FEFF 		bl	move_window
 964 00b4 A8B9     		cbnz	r0, .L115
 965 00b6 6D06     		lsls	r5, r5, #25
 966 00b8 04EBD555 		add	r5, r4, r5, lsr #23
 967 00bc 95F83310 		ldrb	r1, [r5, #51]	@ zero_extendqisi2
 968 00c0 0B06     		lsls	r3, r1, #24
 969 00c2 03F07042 		and	r2, r3, #-268435456
 970 00c6 1643     		orrs	r6, r6, r2
 971 00c8 310A     		lsrs	r1, r6, #8
 972 00ca 330C     		lsrs	r3, r6, #16
 973 00cc 85F83060 		strb	r6, [r5, #48]
 974 00d0 360E     		lsrs	r6, r6, #24
 975 00d2 85F83110 		strb	r1, [r5, #49]
 976 00d6 85F83230 		strb	r3, [r5, #50]
 977 00da 85F83360 		strb	r6, [r5, #51]
 978 00de 00E0     		b	.L115
 979              	.L126:
 980 00e0 0220     		movs	r0, #2
 981              	.L115:
 982 00e2 0122     		movs	r2, #1
 983 00e4 2271     		strb	r2, [r4, #4]
 984 00e6 F8BD     		pop	{r3, r4, r5, r6, r7, pc}
 985              	.L123:
 986 00e8 0220     		movs	r0, #2
 987 00ea F8BD     		pop	{r3, r4, r5, r6, r7, pc}
 988              	.L124:
 989 00ec 0220     		movs	r0, #2
 990 00ee F8BD     		pop	{r3, r4, r5, r6, r7, pc}
 992              		.section	.text.create_chain,"ax",%progbits
 993              		.align	1
 994              		.thumb
 995              		.thumb_func
 997              	create_chain:
 998              		@ args = 0, pretend = 0, frame = 0
 999              		@ frame_needed = 0, uses_anonymous_args = 0
 1000 0000 F8B5     		push	{r3, r4, r5, r6, r7, lr}
 1001 0002 0546     		mov	r5, r0
 1002 0004 0E46     		mov	r6, r1
 1003 0006 31B9     		cbnz	r1, .L128
 1004 0008 C768     		ldr	r7, [r0, #12]
 1005 000a 6FB1     		cbz	r7, .L136
 1006 000c 8369     		ldr	r3, [r0, #24]
 1007 000e 9F42     		cmp	r7, r3
 1008 0010 28BF     		it	cs
 1009 0012 0127     		movcs	r7, #1
 1010 0014 09E0     		b	.L129
 1011              	.L128:
 1012 0016 FFF7FEFF 		bl	get_fat
 1013 001a 0128     		cmp	r0, #1
 1014 001c 37D9     		bls	.L138
 1015 001e A969     		ldr	r1, [r5, #24]
 1016 0020 8842     		cmp	r0, r1
 1017 0022 39D3     		bcc	.L130
 1018 0024 3746     		mov	r7, r6
 1019 0026 00E0     		b	.L129
 1020              	.L136:
 1021 0028 0127     		movs	r7, #1
 1022              	.L129:
 1023 002a 3C46     		mov	r4, r7
 1024              	.L133:
 1025 002c A869     		ldr	r0, [r5, #24]
 1026 002e 0134     		adds	r4, r4, #1
 1027 0030 8442     		cmp	r4, r0
 1028 0032 02D3     		bcc	.L131
 1029 0034 012F     		cmp	r7, #1
 1030 0036 2CD9     		bls	.L140
 1031 0038 0224     		movs	r4, #2
 1032              	.L131:
 1033 003a 2846     		mov	r0, r5
 1034 003c 2146     		mov	r1, r4
 1035 003e FFF7FEFF 		bl	get_fat
 1036 0042 30B1     		cbz	r0, .L132
 1037 0044 411C     		adds	r1, r0, #1
 1038 0046 27D0     		beq	.L130
 1039 0048 0128     		cmp	r0, #1
 1040 004a 25D0     		beq	.L130
 1041 004c BC42     		cmp	r4, r7
 1042 004e EDD1     		bne	.L133
 1043 0050 1FE0     		b	.L140
 1044              	.L132:
 1045 0052 2846     		mov	r0, r5
 1046 0054 2146     		mov	r1, r4
 1047 0056 6FF07042 		mvn	r2, #-268435456
 1048 005a FFF7FEFF 		bl	put_fat
 1049 005e 80B9     		cbnz	r0, .L134
 1050 0060 2EB1     		cbz	r6, .L135
 1051 0062 2846     		mov	r0, r5
 1052 0064 3146     		mov	r1, r6
 1053 0066 2246     		mov	r2, r4
 1054 0068 FFF7FEFF 		bl	put_fat
 1055 006c 48B9     		cbnz	r0, .L134
 1056              	.L135:
 1057 006e 2B69     		ldr	r3, [r5, #16]
 1058 0070 EC60     		str	r4, [r5, #12]
 1059 0072 5A1C     		adds	r2, r3, #1
 1060 0074 0FD0     		beq	.L141
 1061 0076 013B     		subs	r3, r3, #1
 1062 0078 0122     		movs	r2, #1
 1063 007a 2B61     		str	r3, [r5, #16]
 1064 007c 6A71     		strb	r2, [r5, #5]
 1065 007e 2046     		mov	r0, r4
 1066 0080 F8BD     		pop	{r3, r4, r5, r6, r7, pc}
 1067              	.L134:
 1068 0082 0128     		cmp	r0, #1
 1069 0084 14BF     		ite	ne
 1070 0086 0120     		movne	r0, #1
 1071 0088 4FF0FF30 		moveq	r0, #-1
 1072 008c F8BD     		pop	{r3, r4, r5, r6, r7, pc}
 1073              	.L138:
 1074 008e 0120     		movs	r0, #1
 1075 0090 F8BD     		pop	{r3, r4, r5, r6, r7, pc}
 1076              	.L140:
 1077 0092 0020     		movs	r0, #0
 1078 0094 F8BD     		pop	{r3, r4, r5, r6, r7, pc}
 1079              	.L141:
 1080 0096 2046     		mov	r0, r4
 1081              	.L130:
 1082 0098 F8BD     		pop	{r3, r4, r5, r6, r7, pc}
 1084              		.section	.text.dir_next,"ax",%progbits
 1085              		.align	1
 1086              		.thumb
 1087              		.thumb_func
 1089              	dir_next:
 1090              		@ args = 0, pretend = 0, frame = 0
 1091              		@ frame_needed = 0, uses_anonymous_args = 0
 1092 0000 2DE9F041 		push	{r4, r5, r6, r7, r8, lr}
 1093 0004 0F46     		mov	r7, r1
 1094 0006 C188     		ldrh	r1, [r0, #6]
 1095 0008 4E1C     		adds	r6, r1, #1
 1096 000a B6B2     		uxth	r6, r6
 1097 000c 0446     		mov	r4, r0
 1098 000e 002E     		cmp	r6, #0
 1099 0010 69D0     		beq	.L155
 1100 0012 0369     		ldr	r3, [r0, #16]
 1101 0014 002B     		cmp	r3, #0
 1102 0016 66D0     		beq	.L155
 1103 0018 3207     		lsls	r2, r6, #28
 1104 001a 59D1     		bne	.L145
 1105 001c C168     		ldr	r1, [r0, #12]
 1106 001e 0133     		adds	r3, r3, #1
 1107 0020 0361     		str	r3, [r0, #16]
 1108 0022 0068     		ldr	r0, [r0, #0]
 1109 0024 19B9     		cbnz	r1, .L146
 1110 0026 0089     		ldrh	r0, [r0, #8]
 1111 0028 B042     		cmp	r0, r6
 1112 002a 5CD9     		bls	.L155
 1113 002c 50E0     		b	.L145
 1114              	.L146:
 1115 002e 8378     		ldrb	r3, [r0, #2]	@ zero_extendqisi2
 1116 0030 5A1E     		subs	r2, r3, #1
 1117 0032 12EA1613 		ands	r3, r2, r6, lsr #4
 1118 0036 4BD1     		bne	.L145
 1119 0038 FFF7FEFF 		bl	get_fat
 1120 003c 0128     		cmp	r0, #1
 1121 003e 0546     		mov	r5, r0
 1122 0040 57D9     		bls	.L157
 1123 0042 0130     		adds	r0, r0, #1
 1124 0044 58D0     		beq	.L159
 1125 0046 2068     		ldr	r0, [r4, #0]
 1126 0048 8169     		ldr	r1, [r0, #24]
 1127 004a 8D42     		cmp	r5, r1
 1128 004c 3AD3     		bcc	.L147
 1129 004e 002F     		cmp	r7, #0
 1130 0050 49D0     		beq	.L155
 1131 0052 E168     		ldr	r1, [r4, #12]
 1132 0054 FFF7FEFF 		bl	create_chain
 1133 0058 0546     		mov	r5, r0
 1134 005a 0028     		cmp	r0, #0
 1135 005c 46D0     		beq	.L156
 1136 005e 0128     		cmp	r0, #1
 1137 0060 47D0     		beq	.L157
 1138 0062 0130     		adds	r0, r0, #1
 1139 0064 48D0     		beq	.L159
 1140 0066 2068     		ldr	r0, [r4, #0]
 1141 0068 0021     		movs	r1, #0
 1142 006a FFF7FEFF 		bl	move_window
 1143 006e 0746     		mov	r7, r0
 1144 0070 0028     		cmp	r0, #0
 1145 0072 41D1     		bne	.L159
 1146 0074 2068     		ldr	r0, [r4, #0]
 1147 0076 3946     		mov	r1, r7
 1148 0078 3030     		adds	r0, r0, #48
 1149 007a 4FF40072 		mov	r2, #512
 1150 007e FFF7FEFF 		bl	mem_set
 1151 0082 D4F80080 		ldr	r8, [r4, #0]
 1152 0086 2946     		mov	r1, r5
 1153 0088 4046     		mov	r0, r8
 1154 008a FFF7FEFF 		bl	clust2sect
 1155 008e C8F82C00 		str	r0, [r8, #44]
 1156 0092 10E0     		b	.L148
 1157              	.L149:
 1158 0094 4FF00108 		mov	r8, #1
 1159 0098 83F80480 		strb	r8, [r3, #4]
 1160 009c 2068     		ldr	r0, [r4, #0]
 1161 009e 0021     		movs	r1, #0
 1162 00a0 FFF7FEFF 		bl	move_window
 1163 00a4 0028     		cmp	r0, #0
 1164 00a6 2AD1     		bne	.L160
 1165 00a8 2368     		ldr	r3, [r4, #0]
 1166 00aa DA6A     		ldr	r2, [r3, #44]
 1167 00ac 4744     		add	r7, r7, r8
 1168 00ae 02EB0800 		add	r0, r2, r8
 1169 00b2 D862     		str	r0, [r3, #44]
 1170 00b4 FFB2     		uxtb	r7, r7
 1171              	.L148:
 1172 00b6 2368     		ldr	r3, [r4, #0]
 1173 00b8 9978     		ldrb	r1, [r3, #2]	@ zero_extendqisi2
 1174 00ba B942     		cmp	r1, r7
 1175 00bc EAD8     		bhi	.L149
 1176 00be D86A     		ldr	r0, [r3, #44]
 1177 00c0 C71B     		subs	r7, r0, r7
 1178 00c2 DF62     		str	r7, [r3, #44]
 1179              	.L147:
 1180 00c4 E560     		str	r5, [r4, #12]
 1181 00c6 2068     		ldr	r0, [r4, #0]
 1182 00c8 2946     		mov	r1, r5
 1183 00ca FFF7FEFF 		bl	clust2sect
 1184 00ce 2061     		str	r0, [r4, #16]
 1185              	.L145:
 1186 00d0 2368     		ldr	r3, [r4, #0]
 1187 00d2 E680     		strh	r6, [r4, #6]	@ movhi
 1188 00d4 06F00F02 		and	r2, r6, #15
 1189 00d8 3033     		adds	r3, r3, #48
 1190 00da 5601     		lsls	r6, r2, #5
 1191 00dc 9E19     		adds	r6, r3, r6
 1192 00de 6661     		str	r6, [r4, #20]
 1193 00e0 0020     		movs	r0, #0
 1194 00e2 BDE8F081 		pop	{r4, r5, r6, r7, r8, pc}
 1195              	.L155:
 1196 00e6 0420     		movs	r0, #4
 1197 00e8 BDE8F081 		pop	{r4, r5, r6, r7, r8, pc}
 1198              	.L156:
 1199 00ec 0720     		movs	r0, #7
 1200 00ee BDE8F081 		pop	{r4, r5, r6, r7, r8, pc}
 1201              	.L157:
 1202 00f2 0220     		movs	r0, #2
 1203 00f4 BDE8F081 		pop	{r4, r5, r6, r7, r8, pc}
 1204              	.L159:
 1205 00f8 0120     		movs	r0, #1
 1206 00fa BDE8F081 		pop	{r4, r5, r6, r7, r8, pc}
 1207              	.L160:
 1208 00fe 4046     		mov	r0, r8
 1209 0100 BDE8F081 		pop	{r4, r5, r6, r7, r8, pc}
 1211              		.section	.text.follow_path,"ax",%progbits
 1212              		.align	1
 1213              		.thumb
 1214              		.thumb_func
 1216              	follow_path:
 1217              		@ args = 0, pretend = 0, frame = 0
 1218              		@ frame_needed = 0, uses_anonymous_args = 0
 1219 0000 2DE9F041 		push	{r4, r5, r6, r7, r8, lr}
 1220 0004 0B78     		ldrb	r3, [r1, #0]	@ zero_extendqisi2
 1221 0006 2F2B     		cmp	r3, #47
 1222 0008 0446     		mov	r4, r0
 1223 000a 01D0     		beq	.L162
 1224 000c 5C2B     		cmp	r3, #92
 1225 000e 00D1     		bne	.L163
 1226              	.L162:
 1227 0010 0131     		adds	r1, r1, #1
 1228              	.L163:
 1229 0012 0025     		movs	r5, #0
 1230 0014 A560     		str	r5, [r4, #8]
 1231 0016 0B78     		ldrb	r3, [r1, #0]	@ zero_extendqisi2
 1232 0018 1F2B     		cmp	r3, #31
 1233 001a 06D8     		bhi	.L203
 1234 001c 2046     		mov	r0, r4
 1235 001e 2946     		mov	r1, r5
 1236 0020 FFF7FEFF 		bl	dir_sdi
 1237 0024 6561     		str	r5, [r4, #20]
 1238 0026 BDE8F081 		pop	{r4, r5, r6, r7, r8, pc}
 1239              	.L203:
 1240 002a 0B78     		ldrb	r3, [r1, #0]	@ zero_extendqisi2
 1241 002c 0E46     		mov	r6, r1
 1242 002e 0131     		adds	r1, r1, #1
 1243 0030 2F2B     		cmp	r3, #47
 1244 0032 FAD0     		beq	.L203
 1245 0034 5C2B     		cmp	r3, #92
 1246 0036 F8D0     		beq	.L203
 1247 0038 A569     		ldr	r5, [r4, #24]
 1248 003a 2021     		movs	r1, #32
 1249 003c 2846     		mov	r0, r5
 1250 003e 0B22     		movs	r2, #11
 1251 0040 FFF7FEFF 		bl	mem_set
 1252 0044 0021     		movs	r1, #0
 1253 0046 0F46     		mov	r7, r1
 1254 0048 0820     		movs	r0, #8
 1255 004a 0A46     		mov	r2, r1
 1256              	.L205:
 1257 004c F35D     		ldrb	r3, [r6, r7]	@ zero_extendqisi2
 1258 004e 0137     		adds	r7, r7, #1
 1259 0050 202B     		cmp	r3, #32
 1260 0052 3ED9     		bls	.L189
 1261 0054 2F2B     		cmp	r3, #47
 1262 0056 3ED0     		beq	.L191
 1263 0058 5C2B     		cmp	r3, #92
 1264 005a 3CD0     		beq	.L191
 1265 005c 2E2B     		cmp	r3, #46
 1266 005e 01D0     		beq	.L171
 1267 0060 8142     		cmp	r1, r0
 1268 0062 0AD3     		bcc	.L172
 1269              	.L171:
 1270 0064 0828     		cmp	r0, #8
 1271 0066 40F09280 		bne	.L194
 1272 006a 2E2B     		cmp	r3, #46
 1273 006c 40F08F80 		bne	.L194
 1274 0070 9200     		lsls	r2, r2, #2
 1275 0072 0146     		mov	r1, r0
 1276 0074 D2B2     		uxtb	r2, r2
 1277 0076 0B20     		movs	r0, #11
 1278 0078 E8E7     		b	.L205
 1279              	.L172:
 1280 007a 13F0800F 		tst	r3, #128
 1281 007e 06D0     		beq	.L174
 1282 0080 803B     		subs	r3, r3, #128
 1283 0082 DFF818C1 		ldr	ip, .L207
 1284 0086 1CF80330 		ldrb	r3, [ip, r3]	@ zero_extendqisi2
 1285 008a 42F00302 		orr	r2, r2, #3
 1286              	.L174:
 1287 008e DFF810C1 		ldr	ip, .L207+4
 1288              	.L176:
 1289 0092 1CF8018B 		ldrb	r8, [ip], #1	@ zero_extendqisi2
 1290 0096 B8F1000F 		cmp	r8, #0
 1291 009a 02D0     		beq	.L175
 1292 009c 9845     		cmp	r8, r3
 1293 009e F8D1     		bne	.L176
 1294 00a0 75E0     		b	.L194
 1295              	.L175:
 1296 00a2 A3F1410C 		sub	ip, r3, #65
 1297 00a6 5FFA8CFE 		uxtb	lr, ip
 1298 00aa BEF1190F 		cmp	lr, #25
 1299 00ae 02D8     		bhi	.L177
 1300 00b0 42F00202 		orr	r2, r2, #2
 1301 00b4 0AE0     		b	.L178
 1302              	.L177:
 1303 00b6 A3F1610C 		sub	ip, r3, #97
 1304 00ba 5FFA8CFE 		uxtb	lr, ip
 1305 00be BEF1190F 		cmp	lr, #25
 1306 00c2 03D8     		bhi	.L178
 1307 00c4 203B     		subs	r3, r3, #32
 1308 00c6 42F00102 		orr	r2, r2, #1
 1309 00ca DBB2     		uxtb	r3, r3
 1310              	.L178:
 1311 00cc 6B54     		strb	r3, [r5, r1]
 1312 00ce 0131     		adds	r1, r1, #1
 1313 00d0 BCE7     		b	.L205
 1314              	.L189:
 1315 00d2 0423     		movs	r3, #4
 1316 00d4 00E0     		b	.L170
 1317              	.L191:
 1318 00d6 0023     		movs	r3, #0
 1319              	.L170:
 1320 00d8 0029     		cmp	r1, #0
 1321 00da 58D0     		beq	.L194
 1322 00dc 2978     		ldrb	r1, [r5, #0]	@ zero_extendqisi2
 1323 00de E529     		cmp	r1, #229
 1324 00e0 01D1     		bne	.L179
 1325 00e2 0521     		movs	r1, #5
 1326 00e4 2970     		strb	r1, [r5, #0]
 1327              	.L179:
 1328 00e6 0828     		cmp	r0, #8
 1329 00e8 01D1     		bne	.L180
 1330 00ea 9000     		lsls	r0, r2, #2
 1331 00ec C2B2     		uxtb	r2, r0
 1332              	.L180:
 1333 00ee 02F0030E 		and	lr, r2, #3
 1334 00f2 BEF1010F 		cmp	lr, #1
 1335 00f6 02F00C02 		and	r2, r2, #12
 1336 00fa 08BF     		it	eq
 1337 00fc 43F01003 		orreq	r3, r3, #16
 1338 0100 042A     		cmp	r2, #4
 1339 0102 08BF     		it	eq
 1340 0104 43F00803 		orreq	r3, r3, #8
 1341 0108 EB72     		strb	r3, [r5, #11]
 1342 010a 2046     		mov	r0, r4
 1343 010c 0021     		movs	r1, #0
 1344 010e FFF7FEFF 		bl	dir_sdi
 1345              	.L206:
 1346 0112 D8B9     		cbnz	r0, .L183
 1347 0114 2068     		ldr	r0, [r4, #0]
 1348 0116 2169     		ldr	r1, [r4, #16]
 1349 0118 FFF7FEFF 		bl	move_window
 1350 011c B0B9     		cbnz	r0, .L183
 1351 011e 6269     		ldr	r2, [r4, #20]
 1352 0120 1378     		ldrb	r3, [r2, #0]	@ zero_extendqisi2
 1353 0122 93B1     		cbz	r3, .L195
 1354 0124 D17A     		ldrb	r1, [r2, #11]	@ zero_extendqisi2
 1355 0126 0907     		lsls	r1, r1, #28
 1356 0128 0AD4     		bmi	.L184
 1357 012a A169     		ldr	r1, [r4, #24]
 1358 012c 0346     		mov	r3, r0
 1359 012e 01E0     		b	.L185
 1360              	.L186:
 1361 0130 0B2B     		cmp	r3, #11
 1362 0132 0BD0     		beq	.L183
 1363              	.L185:
 1364 0134 12F803C0 		ldrb	ip, [r2, r3]	@ zero_extendqisi2
 1365 0138 CD5C     		ldrb	r5, [r1, r3]	@ zero_extendqisi2
 1366 013a 0133     		adds	r3, r3, #1
 1367 013c AC45     		cmp	ip, r5
 1368 013e F7D0     		beq	.L186
 1369              	.L184:
 1370 0140 2046     		mov	r0, r4
 1371 0142 0021     		movs	r1, #0
 1372 0144 FFF7FEFF 		bl	dir_next
 1373 0148 E3E7     		b	.L206
 1374              	.L195:
 1375 014a 0420     		movs	r0, #4
 1376              	.L183:
 1377 014c A269     		ldr	r2, [r4, #24]
 1378 014e D37A     		ldrb	r3, [r2, #11]	@ zero_extendqisi2
 1379 0150 48B1     		cbz	r0, .L188
 1380 0152 0428     		cmp	r0, #4
 1381 0154 1FD1     		bne	.L166
 1382 0156 03F0040E 		and	lr, r3, #4
 1383 015a BEF1000F 		cmp	lr, #0
 1384 015e 08BF     		it	eq
 1385 0160 0520     		moveq	r0, #5
 1386 0162 BDE8F081 		pop	{r4, r5, r6, r7, r8, pc}
 1387              	.L188:
 1388 0166 5B07     		lsls	r3, r3, #29
 1389 0168 15D4     		bmi	.L166
 1390 016a 6369     		ldr	r3, [r4, #20]
 1391 016c D87A     		ldrb	r0, [r3, #11]	@ zero_extendqisi2
 1392 016e C106     		lsls	r1, r0, #27
 1393 0170 10D5     		bpl	.L197
 1394 0172 1D7D     		ldrb	r5, [r3, #20]	@ zero_extendqisi2
 1395 0174 93F815C0 		ldrb	ip, [r3, #21]	@ zero_extendqisi2
 1396 0178 DA7E     		ldrb	r2, [r3, #27]	@ zero_extendqisi2
 1397 017a 9B7E     		ldrb	r3, [r3, #26]	@ zero_extendqisi2
 1398 017c F119     		adds	r1, r6, r7
 1399 017e 45EA0C27 		orr	r7, r5, ip, lsl #8
 1400 0182 43EA0226 		orr	r6, r3, r2, lsl #8
 1401 0186 46EA0745 		orr	r5, r6, r7, lsl #16
 1402 018a A560     		str	r5, [r4, #8]
 1403 018c 4DE7     		b	.L203
 1404              	.L194:
 1405 018e 0620     		movs	r0, #6
 1406 0190 BDE8F081 		pop	{r4, r5, r6, r7, r8, pc}
 1407              	.L197:
 1408 0194 0520     		movs	r0, #5
 1409              	.L166:
 1410 0196 BDE8F081 		pop	{r4, r5, r6, r7, r8, pc}
 1411              	.L208:
 1412 019a 00BF     		.align	2
 1413              	.L207:
 1414 019c 00000000 		.word	.LANCHOR2
 1415 01a0 00000000 		.word	.LC0
 1417              		.section	.text.dir_register,"ax",%progbits
 1418              		.align	1
 1419              		.thumb
 1420              		.thumb_func
 1422              	dir_register:
 1423              		@ args = 0, pretend = 0, frame = 0
 1424              		@ frame_needed = 0, uses_anonymous_args = 0
 1425 0000 70B5     		push	{r4, r5, r6, lr}
 1426 0002 0021     		movs	r1, #0
 1427 0004 0546     		mov	r5, r0
 1428 0006 FFF7FEFF 		bl	dir_sdi
 1429              	.L217:
 1430 000a 0446     		mov	r4, r0
 1431 000c E8B9     		cbnz	r0, .L213
 1432 000e 2868     		ldr	r0, [r5, #0]
 1433 0010 2969     		ldr	r1, [r5, #16]
 1434 0012 FFF7FEFF 		bl	move_window
 1435 0016 0446     		mov	r4, r0
 1436 0018 B8B9     		cbnz	r0, .L213
 1437 001a 6B69     		ldr	r3, [r5, #20]
 1438 001c 1B78     		ldrb	r3, [r3, #0]	@ zero_extendqisi2
 1439 001e E52B     		cmp	r3, #229
 1440 0020 15D0     		beq	.L211
 1441 0022 A3B1     		cbz	r3, .L211
 1442 0024 2846     		mov	r0, r5
 1443 0026 0121     		movs	r1, #1
 1444 0028 FFF7FEFF 		bl	dir_next
 1445 002c EDE7     		b	.L217
 1446              	.L218:
 1447 002e 6E69     		ldr	r6, [r5, #20]
 1448 0030 2146     		mov	r1, r4
 1449 0032 3046     		mov	r0, r6
 1450 0034 2022     		movs	r2, #32
 1451 0036 FFF7FEFF 		bl	mem_set
 1452 003a 3046     		mov	r0, r6
 1453 003c 0B22     		movs	r2, #11
 1454 003e A969     		ldr	r1, [r5, #24]
 1455 0040 FFF7FEFF 		bl	mem_cpy
 1456 0044 2868     		ldr	r0, [r5, #0]
 1457 0046 0122     		movs	r2, #1
 1458 0048 0271     		strb	r2, [r0, #4]
 1459              	.L213:
 1460 004a 2046     		mov	r0, r4
 1461 004c 70BD     		pop	{r4, r5, r6, pc}
 1462              	.L211:
 1463 004e 2868     		ldr	r0, [r5, #0]
 1464 0050 2969     		ldr	r1, [r5, #16]
 1465 0052 FFF7FEFF 		bl	move_window
 1466 0056 0446     		mov	r4, r0
 1467 0058 0028     		cmp	r0, #0
 1468 005a F6D1     		bne	.L213
 1469 005c E7E7     		b	.L218
 1471              		.section	.text.dir_read,"ax",%progbits
 1472              		.align	1
 1473              		.thumb
 1474              		.thumb_func
 1476              	dir_read:
 1477              		@ args = 0, pretend = 0, frame = 0
 1478              		@ frame_needed = 0, uses_anonymous_args = 0
 1479 0000 10B5     		push	{r4, lr}
 1480 0002 0423     		movs	r3, #4
 1481 0004 0446     		mov	r4, r0
 1482 0006 13E0     		b	.L220
 1483              	.L224:
 1484 0008 2068     		ldr	r0, [r4, #0]
 1485 000a FFF7FEFF 		bl	move_window
 1486 000e C8B9     		cbnz	r0, .L221
 1487 0010 6269     		ldr	r2, [r4, #20]
 1488 0012 1378     		ldrb	r3, [r2, #0]	@ zero_extendqisi2
 1489 0014 ABB1     		cbz	r3, .L226
 1490 0016 E52B     		cmp	r3, #229
 1491 0018 04D0     		beq	.L222
 1492 001a 2E2B     		cmp	r3, #46
 1493 001c 02D0     		beq	.L222
 1494 001e D37A     		ldrb	r3, [r2, #11]	@ zero_extendqisi2
 1495 0020 1B07     		lsls	r3, r3, #28
 1496 0022 0DD5     		bpl	.L223
 1497              	.L222:
 1498 0024 2046     		mov	r0, r4
 1499 0026 0021     		movs	r1, #0
 1500 0028 FFF7FEFF 		bl	dir_next
 1501 002c 0346     		mov	r3, r0
 1502 002e 48B9     		cbnz	r0, .L221
 1503              	.L220:
 1504 0030 2169     		ldr	r1, [r4, #16]
 1505 0032 0029     		cmp	r1, #0
 1506 0034 E8D1     		bne	.L224
 1507 0036 1846     		mov	r0, r3
 1508 0038 13B1     		cbz	r3, .L223
 1509              	.L225:
 1510 003a 0022     		movs	r2, #0
 1511 003c 2261     		str	r2, [r4, #16]
 1512 003e 1846     		mov	r0, r3
 1513              	.L223:
 1514 0040 10BD     		pop	{r4, pc}
 1515              	.L226:
 1516 0042 0420     		movs	r0, #4
 1517              	.L221:
 1518 0044 0346     		mov	r3, r0
 1519 0046 F8E7     		b	.L225
 1521              		.section	.text.remove_chain,"ax",%progbits
 1522              		.align	1
 1523              		.thumb
 1524              		.thumb_func
 1526              	remove_chain:
 1527              		@ args = 0, pretend = 0, frame = 0
 1528              		@ frame_needed = 0, uses_anonymous_args = 0
 1529 0000 0129     		cmp	r1, #1
 1530 0002 70B5     		push	{r4, r5, r6, lr}
 1531 0004 0446     		mov	r4, r0
 1532 0006 0E46     		mov	r6, r1
 1533 0008 20D9     		bls	.L236
 1534 000a 8369     		ldr	r3, [r0, #24]
 1535 000c 9942     		cmp	r1, r3
 1536 000e 1DD2     		bcs	.L236
 1537 0010 17E0     		b	.L238
 1538              	.L232:
 1539 0012 2046     		mov	r0, r4
 1540 0014 3146     		mov	r1, r6
 1541 0016 FFF7FEFF 		bl	get_fat
 1542 001a 0546     		mov	r5, r0
 1543 001c C8B1     		cbz	r0, .L229
 1544 001e 0128     		cmp	r0, #1
 1545 0020 14D0     		beq	.L236
 1546 0022 0130     		adds	r0, r0, #1
 1547 0024 14D0     		beq	.L237
 1548 0026 2046     		mov	r0, r4
 1549 0028 3146     		mov	r1, r6
 1550 002a 0022     		movs	r2, #0
 1551 002c FFF7FEFF 		bl	put_fat
 1552 0030 78B9     		cbnz	r0, .L229
 1553 0032 2369     		ldr	r3, [r4, #16]
 1554 0034 5A1C     		adds	r2, r3, #1
 1555 0036 03D0     		beq	.L231
 1556 0038 591C     		adds	r1, r3, #1
 1557 003a 0120     		movs	r0, #1
 1558 003c 2161     		str	r1, [r4, #16]
 1559 003e 6071     		strb	r0, [r4, #5]
 1560              	.L231:
 1561 0040 2E46     		mov	r6, r5
 1562              	.L238:
 1563 0042 A269     		ldr	r2, [r4, #24]
 1564 0044 9642     		cmp	r6, r2
 1565 0046 E4D3     		bcc	.L232
 1566 0048 0020     		movs	r0, #0
 1567 004a 70BD     		pop	{r4, r5, r6, pc}
 1568              	.L236:
 1569 004c 0220     		movs	r0, #2
 1570 004e 70BD     		pop	{r4, r5, r6, pc}
 1571              	.L237:
 1572 0050 0120     		movs	r0, #1
 1573              	.L229:
 1574 0052 70BD     		pop	{r4, r5, r6, pc}
 1576              		.section	.text.f_mount,"ax",%progbits
 1577              		.align	1
 1578              		.global	f_mount
 1579              		.thumb
 1580              		.thumb_func
 1582              	f_mount:
 1583              		@ args = 0, pretend = 0, frame = 0
 1584              		@ frame_needed = 0, uses_anonymous_args = 0
 1585              		@ link register save eliminated.
 1586 0000 48B9     		cbnz	r0, .L243
 1587 0002 064A     		ldr	r2, .L244
 1588 0004 1368     		ldr	r3, [r2, #0]
 1589 0006 03B1     		cbz	r3, .L241
 1590 0008 1870     		strb	r0, [r3, #0]
 1591              	.L241:
 1592 000a 09B1     		cbz	r1, .L242
 1593 000c 0023     		movs	r3, #0
 1594 000e 0B70     		strb	r3, [r1, #0]
 1595              	.L242:
 1596 0010 1160     		str	r1, [r2, #0]
 1597 0012 0020     		movs	r0, #0
 1598 0014 7047     		bx	lr
 1599              	.L243:
 1600 0016 0B20     		movs	r0, #11
 1601 0018 7047     		bx	lr
 1602              	.L245:
 1603 001a 00BF     		.align	2
 1604              	.L244:
 1605 001c 00000000 		.word	.LANCHOR0
 1607              		.section	.text.f_open,"ax",%progbits
 1608              		.align	1
 1609              		.global	f_open
 1610              		.thumb
 1611              		.thumb_func
 1613              	f_open:
 1614              		@ args = 0, pretend = 0, frame = 48
 1615              		@ frame_needed = 0, uses_anonymous_args = 0
 1616 0000 2DE9F041 		push	{r4, r5, r6, r7, r8, lr}
 1617 0004 8CB0     		sub	sp, sp, #48
 1618 0006 0546     		mov	r5, r0
 1619 0008 0CA8     		add	r0, sp, #48
 1620 000a 02F01F04 		and	r4, r2, #31
 1621 000e 40F82C1D 		str	r1, [r0, #-44]!
 1622 0012 0021     		movs	r1, #0
 1623 0014 2960     		str	r1, [r5, #0]
 1624 0016 04F01E02 		and	r2, r4, #30
 1625 001a 02A9     		add	r1, sp, #8
 1626 001c FFF7FEFF 		bl	chk_mounted
 1627 0020 09AB     		add	r3, sp, #36
 1628 0022 0893     		str	r3, [sp, #32]
 1629 0024 18B9     		cbnz	r0, .L247
 1630 0026 02A8     		add	r0, sp, #8
 1631 0028 0199     		ldr	r1, [sp, #4]
 1632 002a FFF7FEFF 		bl	follow_path
 1633              	.L247:
 1634 002e 079E     		ldr	r6, [sp, #28]
 1635 0030 10B9     		cbnz	r0, .L248
 1636 0032 002E     		cmp	r6, #0
 1637 0034 08BF     		it	eq
 1638 0036 0620     		moveq	r0, #6
 1639              	.L248:
 1640 0038 14F01C0F 		tst	r4, #28
 1641 003c 44D0     		beq	.L249
 1642 003e 50B1     		cbz	r0, .L250
 1643 0040 0428     		cmp	r0, #4
 1644 0042 02D1     		bne	.L251
 1645 0044 02A8     		add	r0, sp, #8
 1646 0046 FFF7FEFF 		bl	dir_register
 1647              	.L251:
 1648 004a 079E     		ldr	r6, [sp, #28]
 1649 004c 0028     		cmp	r0, #0
 1650 004e 6DD1     		bne	.L259
 1651 0050 44F00804 		orr	r4, r4, #8
 1652 0054 05E0     		b	.L253
 1653              	.L250:
 1654 0056 F07A     		ldrb	r0, [r6, #11]	@ zero_extendqisi2
 1655 0058 10F0110F 		tst	r0, #17
 1656 005c 6DD1     		bne	.L264
 1657 005e 6307     		lsls	r3, r4, #29
 1658 0060 67D4     		bmi	.L262
 1659              	.L253:
 1660 0062 2007     		lsls	r0, r4, #28
 1661 0064 39D5     		bpl	.L256
 1662 0066 FFF7FEFF 		bl	get_fattime
 1663 006a 070A     		lsrs	r7, r0, #8
 1664 006c 010C     		lsrs	r1, r0, #16
 1665 006e 327D     		ldrb	r2, [r6, #20]	@ zero_extendqisi2
 1666 0070 96F81AC0 		ldrb	ip, [r6, #26]	@ zero_extendqisi2
 1667 0074 F773     		strb	r7, [r6, #15]
 1668 0076 3174     		strb	r1, [r6, #16]
 1669 0078 777D     		ldrb	r7, [r6, #21]	@ zero_extendqisi2
 1670 007a F17E     		ldrb	r1, [r6, #27]	@ zero_extendqisi2
 1671 007c B073     		strb	r0, [r6, #14]
 1672 007e 030E     		lsrs	r3, r0, #24
 1673 0080 0020     		movs	r0, #0
 1674 0082 F072     		strb	r0, [r6, #11]
 1675 0084 3077     		strb	r0, [r6, #28]
 1676 0086 7077     		strb	r0, [r6, #29]
 1677 0088 B077     		strb	r0, [r6, #30]
 1678 008a F077     		strb	r0, [r6, #31]
 1679 008c 42EA0727 		orr	r7, r2, r7, lsl #8
 1680 0090 B076     		strb	r0, [r6, #26]
 1681 0092 F076     		strb	r0, [r6, #27]
 1682 0094 3075     		strb	r0, [r6, #20]
 1683 0096 7075     		strb	r0, [r6, #21]
 1684 0098 4CEA0122 		orr	r2, ip, r1, lsl #8
 1685 009c 0298     		ldr	r0, [sp, #8]
 1686 009e 7374     		strb	r3, [r6, #17]
 1687 00a0 0123     		movs	r3, #1
 1688 00a2 52EA0747 		orrs	r7, r2, r7, lsl #16
 1689 00a6 0371     		strb	r3, [r0, #4]
 1690 00a8 17D0     		beq	.L256
 1691 00aa 3946     		mov	r1, r7
 1692 00ac D0F82C80 		ldr	r8, [r0, #44]
 1693 00b0 FFF7FEFF 		bl	remove_chain
 1694 00b4 0028     		cmp	r0, #0
 1695 00b6 39D1     		bne	.L259
 1696 00b8 0298     		ldr	r0, [sp, #8]
 1697 00ba 013F     		subs	r7, r7, #1
 1698 00bc C760     		str	r7, [r0, #12]
 1699 00be 4146     		mov	r1, r8
 1700 00c0 FFF7FEFF 		bl	move_window
 1701 00c4 48B1     		cbz	r0, .L256
 1702 00c6 31E0     		b	.L259
 1703              	.L249:
 1704 00c8 0028     		cmp	r0, #0
 1705 00ca 2FD1     		bne	.L259
 1706 00cc F37A     		ldrb	r3, [r6, #11]	@ zero_extendqisi2
 1707 00ce D906     		lsls	r1, r3, #27
 1708 00d0 31D4     		bmi	.L263
 1709 00d2 A207     		lsls	r2, r4, #30
 1710 00d4 01D5     		bpl	.L256
 1711 00d6 D807     		lsls	r0, r3, #31
 1712 00d8 2FD4     		bmi	.L264
 1713              	.L256:
 1714 00da 029B     		ldr	r3, [sp, #8]
 1715 00dc 2107     		lsls	r1, r4, #28
 1716 00de DA6A     		ldr	r2, [r3, #44]
 1717 00e0 2E62     		str	r6, [r5, #32]
 1718 00e2 48BF     		it	mi
 1719 00e4 44F02004 		orrmi	r4, r4, #32
 1720 00e8 AC71     		strb	r4, [r5, #6]
 1721 00ea EA61     		str	r2, [r5, #28]
 1722 00ec 717D     		ldrb	r1, [r6, #21]	@ zero_extendqisi2
 1723 00ee 307D     		ldrb	r0, [r6, #20]	@ zero_extendqisi2
 1724 00f0 F27E     		ldrb	r2, [r6, #27]	@ zero_extendqisi2
 1725 00f2 96F81AE0 		ldrb	lr, [r6, #26]	@ zero_extendqisi2
 1726 00f6 40EA012C 		orr	ip, r0, r1, lsl #8
 1727 00fa 4EEA0220 		orr	r0, lr, r2, lsl #8
 1728 00fe 40EA0C41 		orr	r1, r0, ip, lsl #16
 1729 0102 2961     		str	r1, [r5, #16]
 1730 0104 B27F     		ldrb	r2, [r6, #30]	@ zero_extendqisi2
 1731 0106 96F81FE0 		ldrb	lr, [r6, #31]	@ zero_extendqisi2
 1732 010a 317F     		ldrb	r1, [r6, #28]	@ zero_extendqisi2
 1733 010c 96F81DC0 		ldrb	ip, [r6, #29]	@ zero_extendqisi2
 1734 0110 2B60     		str	r3, [r5, #0]
 1735 0112 1004     		lsls	r0, r2, #16
 1736 0114 40EA0E62 		orr	r2, r0, lr, lsl #24
 1737 0118 42EA010E 		orr	lr, r2, r1
 1738 011c 4EEA0C20 		orr	r0, lr, ip, lsl #8
 1739 0120 DA88     		ldrh	r2, [r3, #6]
 1740 0122 E860     		str	r0, [r5, #12]
 1741 0124 0020     		movs	r0, #0
 1742 0126 A860     		str	r0, [r5, #8]
 1743 0128 A861     		str	r0, [r5, #24]
 1744 012a AA80     		strh	r2, [r5, #4]	@ movhi
 1745              	.L259:
 1746 012c 0CB0     		add	sp, sp, #48
 1747 012e BDE8F081 		pop	{r4, r5, r6, r7, r8, pc}
 1748              	.L262:
 1749 0132 0820     		movs	r0, #8
 1750 0134 FAE7     		b	.L259
 1751              	.L263:
 1752 0136 0420     		movs	r0, #4
 1753 0138 F8E7     		b	.L259
 1754              	.L264:
 1755 013a 0720     		movs	r0, #7
 1756 013c F6E7     		b	.L259
 1758              		.section	.text.f_read,"ax",%progbits
 1759              		.align	1
 1760              		.global	f_read
 1761              		.thumb
 1762              		.thumb_func
 1764              	f_read:
 1765              		@ args = 0, pretend = 0, frame = 8
 1766              		@ frame_needed = 0, uses_anonymous_args = 0
 1767 0000 2DE9F74F 		push	{r0, r1, r2, r4, r5, r6, r7, r8, r9, sl, fp, lr}
 1768 0004 0193     		str	r3, [sp, #4]
 1769 0006 0446     		mov	r4, r0
 1770 0008 1646     		mov	r6, r2
 1771 000a 019A     		ldr	r2, [sp, #4]
 1772 000c 0068     		ldr	r0, [r0, #0]
 1773 000e 0023     		movs	r3, #0
 1774 0010 8946     		mov	r9, r1
 1775 0012 1360     		str	r3, [r2, #0]
 1776 0014 A188     		ldrh	r1, [r4, #4]
 1777 0016 FFF7FEFF 		bl	validate
 1778 001a 0546     		mov	r5, r0
 1779 001c 0028     		cmp	r0, #0
 1780 001e 40F0A180 		bne	.L266
 1781 0022 A379     		ldrb	r3, [r4, #6]	@ zero_extendqisi2
 1782 0024 1906     		lsls	r1, r3, #24
 1783 0026 00F19A80 		bmi	.L284
 1784 002a DA07     		lsls	r2, r3, #31
 1785 002c 40F19980 		bpl	.L285
 1786 0030 E068     		ldr	r0, [r4, #12]
 1787 0032 A168     		ldr	r1, [r4, #8]
 1788 0034 C1EB0008 		rsb	r8, r1, r0
 1789 0038 4645     		cmp	r6, r8
 1790 003a 38BF     		it	cc
 1791 003c B046     		movcc	r8, r6
 1792 003e 89E0     		b	.L267
 1793              	.L283:
 1794 0040 A368     		ldr	r3, [r4, #8]
 1795 0042 D805     		lsls	r0, r3, #23
 1796 0044 C20D     		lsrs	r2, r0, #23
 1797 0046 002A     		cmp	r2, #0
 1798 0048 6CD1     		bne	.L268
 1799 004a 2068     		ldr	r0, [r4, #0]
 1800 004c 90F802B0 		ldrb	fp, [r0, #2]	@ zero_extendqisi2
 1801 0050 0BF1FF32 		add	r2, fp, #-1
 1802 0054 02EA5321 		and	r1, r2, r3, lsr #9
 1803 0058 5FFA81FB 		uxtb	fp, r1
 1804 005c BBF1000F 		cmp	fp, #0
 1805 0060 0AD1     		bne	.L269
 1806 0062 0BB9     		cbnz	r3, .L270
 1807 0064 2069     		ldr	r0, [r4, #16]
 1808 0066 02E0     		b	.L271
 1809              	.L270:
 1810 0068 6169     		ldr	r1, [r4, #20]
 1811 006a FFF7FEFF 		bl	get_fat
 1812              	.L271:
 1813 006e 0128     		cmp	r0, #1
 1814 0070 09D9     		bls	.L286
 1815              	.L272:
 1816 0072 431C     		adds	r3, r0, #1
 1817 0074 4FD0     		beq	.L287
 1818              	.L273:
 1819 0076 6061     		str	r0, [r4, #20]
 1820              	.L269:
 1821 0078 D4F800A0 		ldr	sl, [r4, #0]
 1822 007c 6169     		ldr	r1, [r4, #20]
 1823 007e 5046     		mov	r0, sl
 1824 0080 FFF7FEFF 		bl	clust2sect
 1825 0084 28B9     		cbnz	r0, .L274
 1826              	.L286:
 1827 0086 94F806C0 		ldrb	ip, [r4, #6]	@ zero_extendqisi2
 1828 008a 6CF07F05 		orn	r5, ip, #127
 1829 008e A571     		strb	r5, [r4, #6]
 1830 0090 65E0     		b	.L284
 1831              	.L274:
 1832 0092 5FEA5827 		lsrs	r7, r8, #9
 1833 0096 00EB0B06 		add	r6, r0, fp
 1834 009a 21D0     		beq	.L275
 1835 009c 9AF802E0 		ldrb	lr, [sl, #2]	@ zero_extendqisi2
 1836 00a0 9AF80100 		ldrb	r0, [sl, #1]	@ zero_extendqisi2
 1837 00a4 07EB0B03 		add	r3, r7, fp
 1838 00a8 7345     		cmp	r3, lr
 1839 00aa 88BF     		it	hi
 1840 00ac CBEB0E07 		rsbhi	r7, fp, lr
 1841 00b0 FBB2     		uxtb	r3, r7
 1842 00b2 4946     		mov	r1, r9
 1843 00b4 3246     		mov	r2, r6
 1844 00b6 FFF7FEFF 		bl	disk_read
 1845 00ba A379     		ldrb	r3, [r4, #6]	@ zero_extendqisi2
 1846 00bc 60BB     		cbnz	r0, .L288
 1847              	.L277:
 1848 00be 5806     		lsls	r0, r3, #25
 1849 00c0 0CD5     		bpl	.L278
 1850 00c2 A069     		ldr	r0, [r4, #24]
 1851 00c4 861B     		subs	r6, r0, r6
 1852 00c6 BE42     		cmp	r6, r7
 1853 00c8 08D2     		bcs	.L278
 1854 00ca 7602     		lsls	r6, r6, #9
 1855 00cc 09EB0600 		add	r0, r9, r6
 1856 00d0 04F12401 		add	r1, r4, #36
 1857 00d4 4FF40072 		mov	r2, #512
 1858 00d8 FFF7FEFF 		bl	mem_cpy
 1859              	.L278:
 1860 00dc 7F02     		lsls	r7, r7, #9
 1861 00de 2FE0     		b	.L279
 1862              	.L275:
 1863 00e0 A269     		ldr	r2, [r4, #24]
 1864 00e2 B242     		cmp	r2, r6
 1865 00e4 1DD0     		beq	.L280
 1866 00e6 A179     		ldrb	r1, [r4, #6]	@ zero_extendqisi2
 1867 00e8 4906     		lsls	r1, r1, #25
 1868 00ea 0BD5     		bpl	.L281
 1869 00ec 0123     		movs	r3, #1
 1870 00ee 9AF80100 		ldrb	r0, [sl, #1]	@ zero_extendqisi2
 1871 00f2 04F12401 		add	r1, r4, #36
 1872 00f6 FFF7FEFF 		bl	disk_write
 1873 00fa A379     		ldrb	r3, [r4, #6]	@ zero_extendqisi2
 1874 00fc 60B9     		cbnz	r0, .L288
 1875              	.L282:
 1876 00fe 23F04002 		bic	r2, r3, #64
 1877 0102 A271     		strb	r2, [r4, #6]
 1878              	.L281:
 1879 0104 2146     		mov	r1, r4
 1880 0106 3246     		mov	r2, r6
 1881 0108 51F8243B 		ldr	r3, [r1], #36
 1882 010c 5878     		ldrb	r0, [r3, #1]	@ zero_extendqisi2
 1883 010e 0123     		movs	r3, #1
 1884 0110 FFF7FEFF 		bl	disk_read
 1885 0114 28B1     		cbz	r0, .L280
 1886              	.L287:
 1887 0116 A379     		ldrb	r3, [r4, #6]	@ zero_extendqisi2
 1888              	.L288:
 1889 0118 63F07F05 		orn	r5, r3, #127
 1890 011c A571     		strb	r5, [r4, #6]
 1891 011e 0125     		movs	r5, #1
 1892 0120 20E0     		b	.L266
 1893              	.L280:
 1894 0122 A661     		str	r6, [r4, #24]
 1895              	.L268:
 1896 0124 A168     		ldr	r1, [r4, #8]
 1897 0126 CF05     		lsls	r7, r1, #23
 1898 0128 F80D     		lsrs	r0, r7, #23
 1899 012a C0F50077 		rsb	r7, r0, #512
 1900 012e 2118     		adds	r1, r4, r0
 1901 0130 B845     		cmp	r8, r7
 1902 0132 38BF     		it	cc
 1903 0134 4746     		movcc	r7, r8
 1904 0136 4846     		mov	r0, r9
 1905 0138 2431     		adds	r1, r1, #36
 1906 013a 3A46     		mov	r2, r7
 1907 013c FFF7FEFF 		bl	mem_cpy
 1908              	.L279:
 1909 0140 A268     		ldr	r2, [r4, #8]
 1910 0142 D119     		adds	r1, r2, r7
 1911 0144 019A     		ldr	r2, [sp, #4]
 1912 0146 A160     		str	r1, [r4, #8]
 1913 0148 1068     		ldr	r0, [r2, #0]
 1914 014a C319     		adds	r3, r0, r7
 1915 014c B944     		add	r9, r9, r7
 1916 014e 1360     		str	r3, [r2, #0]
 1917 0150 C7EB0808 		rsb	r8, r7, r8
 1918              	.L267:
 1919 0154 B8F1000F 		cmp	r8, #0
 1920 0158 7FF472AF 		bne	.L283
 1921 015c 02E0     		b	.L266
 1922              	.L284:
 1923 015e 0225     		movs	r5, #2
 1924 0160 00E0     		b	.L266
 1925              	.L285:
 1926 0162 0725     		movs	r5, #7
 1927              	.L266:
 1928 0164 2846     		mov	r0, r5
 1929 0166 BDE8FE8F 		pop	{r1, r2, r3, r4, r5, r6, r7, r8, r9, sl, fp, pc}
 1931              		.section	.text.f_write,"ax",%progbits
 1932              		.align	1
 1933              		.global	f_write
 1934              		.thumb
 1935              		.thumb_func
 1937              	f_write:
 1938              		@ args = 0, pretend = 0, frame = 8
 1939              		@ frame_needed = 0, uses_anonymous_args = 0
 1940 0000 2DE9F74F 		push	{r0, r1, r2, r4, r5, r6, r7, r8, r9, sl, fp, lr}
 1941 0004 0193     		str	r3, [sp, #4]
 1942 0006 0446     		mov	r4, r0
 1943 0008 9046     		mov	r8, r2
 1944 000a 019A     		ldr	r2, [sp, #4]
 1945 000c 0068     		ldr	r0, [r0, #0]
 1946 000e 0023     		movs	r3, #0
 1947 0010 8946     		mov	r9, r1
 1948 0012 1360     		str	r3, [r2, #0]
 1949 0014 A188     		ldrh	r1, [r4, #4]
 1950 0016 FFF7FEFF 		bl	validate
 1951 001a 0546     		mov	r5, r0
 1952 001c 0028     		cmp	r0, #0
 1953 001e 40F0C280 		bne	.L290
 1954 0022 A379     		ldrb	r3, [r4, #6]	@ zero_extendqisi2
 1955 0024 1806     		lsls	r0, r3, #24
 1956 0026 4ED4     		bmi	.L316
 1957 0028 9907     		lsls	r1, r3, #30
 1958 002a 40F1BB80 		bpl	.L313
 1959 002e E068     		ldr	r0, [r4, #12]
 1960 0030 18EB000F 		cmn	r8, r0
 1961 0034 28BF     		it	cs
 1962 0036 4FF00008 		movcs	r8, #0
 1963 003a A3E0     		b	.L292
 1964              	.L310:
 1965 003c A368     		ldr	r3, [r4, #8]
 1966 003e DA05     		lsls	r2, r3, #23
 1967 0040 D10D     		lsrs	r1, r2, #23
 1968 0042 0029     		cmp	r1, #0
 1969 0044 40F08180 		bne	.L293
 1970 0048 2068     		ldr	r0, [r4, #0]
 1971 004a 90F802A0 		ldrb	sl, [r0, #2]	@ zero_extendqisi2
 1972 004e 0AF1FF32 		add	r2, sl, #-1
 1973 0052 02EA5321 		and	r1, r2, r3, lsr #9
 1974 0056 5FFA81FA 		uxtb	sl, r1
 1975 005a BAF1000F 		cmp	sl, #0
 1976 005e 14D1     		bne	.L294
 1977 0060 33B9     		cbnz	r3, .L295
 1978 0062 2169     		ldr	r1, [r4, #16]
 1979 0064 59B9     		cbnz	r1, .L296
 1980 0066 FFF7FEFF 		bl	create_chain
 1981 006a 0146     		mov	r1, r0
 1982 006c 2061     		str	r0, [r4, #16]
 1983 006e 03E0     		b	.L297
 1984              	.L295:
 1985 0070 6169     		ldr	r1, [r4, #20]
 1986 0072 FFF7FEFF 		bl	create_chain
 1987 0076 0146     		mov	r1, r0
 1988              	.L297:
 1989 0078 0029     		cmp	r1, #0
 1990 007a 00F08780 		beq	.L298
 1991              	.L296:
 1992 007e 0129     		cmp	r1, #1
 1993 0080 A379     		ldrb	r3, [r4, #6]	@ zero_extendqisi2
 1994 0082 1DD0     		beq	.L315
 1995              	.L299:
 1996 0084 4A1C     		adds	r2, r1, #1
 1997 0086 5AD0     		beq	.L318
 1998              	.L300:
 1999 0088 6161     		str	r1, [r4, #20]
 2000              	.L294:
 2001 008a 94F806C0 		ldrb	ip, [r4, #6]	@ zero_extendqisi2
 2002 008e 5FEA4C60 		lsls	r0, ip, #25
 2003 0092 0DD5     		bpl	.L301
 2004 0094 2146     		mov	r1, r4
 2005 0096 A269     		ldr	r2, [r4, #24]
 2006 0098 51F8243B 		ldr	r3, [r1], #36
 2007 009c 5878     		ldrb	r0, [r3, #1]	@ zero_extendqisi2
 2008 009e 0123     		movs	r3, #1
 2009 00a0 FFF7FEFF 		bl	disk_write
 2010 00a4 A379     		ldrb	r3, [r4, #6]	@ zero_extendqisi2
 2011 00a6 0028     		cmp	r0, #0
 2012 00a8 49D1     		bne	.L318
 2013              	.L302:
 2014 00aa 23F04000 		bic	r0, r3, #64
 2015 00ae A071     		strb	r0, [r4, #6]
 2016              	.L301:
 2017 00b0 D4F800B0 		ldr	fp, [r4, #0]
 2018 00b4 6169     		ldr	r1, [r4, #20]
 2019 00b6 5846     		mov	r0, fp
 2020 00b8 FFF7FEFF 		bl	clust2sect
 2021 00bc 28B9     		cbnz	r0, .L303
 2022 00be A379     		ldrb	r3, [r4, #6]	@ zero_extendqisi2
 2023              	.L315:
 2024 00c0 63F07F05 		orn	r5, r3, #127
 2025 00c4 A571     		strb	r5, [r4, #6]
 2026              	.L316:
 2027 00c6 0225     		movs	r5, #2
 2028 00c8 6DE0     		b	.L290
 2029              	.L303:
 2030 00ca 5FEA5827 		lsrs	r7, r8, #9
 2031 00ce 00EB0A06 		add	r6, r0, sl
 2032 00d2 23D0     		beq	.L304
 2033 00d4 9BF80210 		ldrb	r1, [fp, #2]	@ zero_extendqisi2
 2034 00d8 9BF80100 		ldrb	r0, [fp, #1]	@ zero_extendqisi2
 2035 00dc 07EB0A0E 		add	lr, r7, sl
 2036 00e0 8E45     		cmp	lr, r1
 2037 00e2 88BF     		it	hi
 2038 00e4 CAEB0107 		rsbhi	r7, sl, r1
 2039 00e8 3246     		mov	r2, r6
 2040 00ea 4946     		mov	r1, r9
 2041 00ec FBB2     		uxtb	r3, r7
 2042 00ee FFF7FEFF 		bl	disk_write
 2043 00f2 18BB     		cbnz	r0, .L317
 2044              	.L306:
 2045 00f4 A269     		ldr	r2, [r4, #24]
 2046 00f6 961B     		subs	r6, r2, r6
 2047 00f8 BE42     		cmp	r6, r7
 2048 00fa 0DD2     		bcs	.L307
 2049 00fc 7602     		lsls	r6, r6, #9
 2050 00fe 04F12400 		add	r0, r4, #36
 2051 0102 09EB0601 		add	r1, r9, r6
 2052 0106 4FF40072 		mov	r2, #512
 2053 010a FFF7FEFF 		bl	mem_cpy
 2054 010e A379     		ldrb	r3, [r4, #6]	@ zero_extendqisi2
 2055 0110 23F0400C 		bic	ip, r3, #64
 2056 0114 84F806C0 		strb	ip, [r4, #6]
 2057              	.L307:
 2058 0118 7F02     		lsls	r7, r7, #9
 2059 011a 29E0     		b	.L308
 2060              	.L304:
 2061 011c A069     		ldr	r0, [r4, #24]
 2062 011e B042     		cmp	r0, r6
 2063 0120 12D0     		beq	.L309
 2064 0122 A168     		ldr	r1, [r4, #8]
 2065 0124 E268     		ldr	r2, [r4, #12]
 2066 0126 9142     		cmp	r1, r2
 2067 0128 0ED2     		bcs	.L309
 2068 012a 9BF80100 		ldrb	r0, [fp, #1]	@ zero_extendqisi2
 2069 012e 04F12401 		add	r1, r4, #36
 2070 0132 3246     		mov	r2, r6
 2071 0134 0123     		movs	r3, #1
 2072 0136 FFF7FEFF 		bl	disk_read
 2073 013a 28B1     		cbz	r0, .L309
 2074              	.L317:
 2075 013c A379     		ldrb	r3, [r4, #6]	@ zero_extendqisi2
 2076              	.L318:
 2077 013e 63F07F05 		orn	r5, r3, #127
 2078 0142 A571     		strb	r5, [r4, #6]
 2079 0144 0125     		movs	r5, #1
 2080 0146 2EE0     		b	.L290
 2081              	.L309:
 2082 0148 A661     		str	r6, [r4, #24]
 2083              	.L293:
 2084 014a A168     		ldr	r1, [r4, #8]
 2085 014c CF05     		lsls	r7, r1, #23
 2086 014e F80D     		lsrs	r0, r7, #23
 2087 0150 C0F50077 		rsb	r7, r0, #512
 2088 0154 B845     		cmp	r8, r7
 2089 0156 38BF     		it	cc
 2090 0158 4746     		movcc	r7, r8
 2091 015a 2018     		adds	r0, r4, r0
 2092 015c 2430     		adds	r0, r0, #36
 2093 015e 4946     		mov	r1, r9
 2094 0160 3A46     		mov	r2, r7
 2095 0162 FFF7FEFF 		bl	mem_cpy
 2096 0166 A379     		ldrb	r3, [r4, #6]	@ zero_extendqisi2
 2097 0168 43F0400C 		orr	ip, r3, #64
 2098 016c 84F806C0 		strb	ip, [r4, #6]
 2099              	.L308:
 2100 0170 A268     		ldr	r2, [r4, #8]
 2101 0172 D119     		adds	r1, r2, r7
 2102 0174 019A     		ldr	r2, [sp, #4]
 2103 0176 A160     		str	r1, [r4, #8]
 2104 0178 1068     		ldr	r0, [r2, #0]
 2105 017a C319     		adds	r3, r0, r7
 2106 017c B944     		add	r9, r9, r7
 2107 017e 1360     		str	r3, [r2, #0]
 2108 0180 C7EB0808 		rsb	r8, r7, r8
 2109              	.L292:
 2110 0184 B8F1000F 		cmp	r8, #0
 2111 0188 7FF458AF 		bne	.L310
 2112              	.L298:
 2113 018c A368     		ldr	r3, [r4, #8]
 2114 018e E068     		ldr	r0, [r4, #12]
 2115 0190 94F806C0 		ldrb	ip, [r4, #6]	@ zero_extendqisi2
 2116 0194 8342     		cmp	r3, r0
 2117 0196 4CF0200E 		orr	lr, ip, #32
 2118 019a 88BF     		it	hi
 2119 019c E360     		strhi	r3, [r4, #12]
 2120 019e 84F806E0 		strb	lr, [r4, #6]
 2121 01a2 00E0     		b	.L290
 2122              	.L313:
 2123 01a4 0725     		movs	r5, #7
 2124              	.L290:
 2125 01a6 2846     		mov	r0, r5
 2126 01a8 BDE8FE8F 		pop	{r1, r2, r3, r4, r5, r6, r7, r8, r9, sl, fp, pc}
 2128              		.section	.text.f_sync,"ax",%progbits
 2129              		.align	1
 2130              		.global	f_sync
 2131              		.thumb
 2132              		.thumb_func
 2134              	f_sync:
 2135              		@ args = 0, pretend = 0, frame = 0
 2136              		@ frame_needed = 0, uses_anonymous_args = 0
 2137 0000 38B5     		push	{r3, r4, r5, lr}
 2138 0002 0446     		mov	r4, r0
 2139 0004 0068     		ldr	r0, [r0, #0]
 2140 0006 A188     		ldrh	r1, [r4, #4]
 2141 0008 FFF7FEFF 		bl	validate
 2142 000c 0028     		cmp	r0, #0
 2143 000e 4BD1     		bne	.L320
 2144 0010 A379     		ldrb	r3, [r4, #6]	@ zero_extendqisi2
 2145 0012 9A06     		lsls	r2, r3, #26
 2146 0014 48D5     		bpl	.L320
 2147 0016 5B06     		lsls	r3, r3, #25
 2148 0018 0DD5     		bpl	.L321
 2149 001a 2146     		mov	r1, r4
 2150 001c A269     		ldr	r2, [r4, #24]
 2151 001e 51F8243B 		ldr	r3, [r1], #36
 2152 0022 5878     		ldrb	r0, [r3, #1]	@ zero_extendqisi2
 2153 0024 0123     		movs	r3, #1
 2154 0026 FFF7FEFF 		bl	disk_write
 2155 002a 0028     		cmp	r0, #0
 2156 002c 3BD1     		bne	.L322
 2157 002e A179     		ldrb	r1, [r4, #6]	@ zero_extendqisi2
 2158 0030 21F04000 		bic	r0, r1, #64
 2159 0034 A071     		strb	r0, [r4, #6]
 2160              	.L321:
 2161 0036 2068     		ldr	r0, [r4, #0]
 2162 0038 E169     		ldr	r1, [r4, #28]
 2163 003a FFF7FEFF 		bl	move_window
 2164 003e 0028     		cmp	r0, #0
 2165 0040 32D1     		bne	.L320
 2166 0042 256A     		ldr	r5, [r4, #32]
 2167 0044 95F80BC0 		ldrb	ip, [r5, #11]	@ zero_extendqisi2
 2168 0048 4CF02002 		orr	r2, ip, #32
 2169 004c EA72     		strb	r2, [r5, #11]
 2170 004e E068     		ldr	r0, [r4, #12]
 2171 0050 2877     		strb	r0, [r5, #28]
 2172 0052 A189     		ldrh	r1, [r4, #12]
 2173 0054 0B0A     		lsrs	r3, r1, #8
 2174 0056 6B77     		strb	r3, [r5, #29]
 2175 0058 B4F80EE0 		ldrh	lr, [r4, #14]
 2176 005c 85F81EE0 		strb	lr, [r5, #30]
 2177 0060 E27B     		ldrb	r2, [r4, #15]	@ zero_extendqisi2
 2178 0062 EA77     		strb	r2, [r5, #31]
 2179 0064 2069     		ldr	r0, [r4, #16]
 2180 0066 A876     		strb	r0, [r5, #26]
 2181 0068 218A     		ldrh	r1, [r4, #16]
 2182 006a 0B0A     		lsrs	r3, r1, #8
 2183 006c EB76     		strb	r3, [r5, #27]
 2184 006e B4F812C0 		ldrh	ip, [r4, #18]
 2185 0072 85F814C0 		strb	ip, [r5, #20]
 2186 0076 628A     		ldrh	r2, [r4, #18]
 2187 0078 100A     		lsrs	r0, r2, #8
 2188 007a 6875     		strb	r0, [r5, #21]
 2189 007c FFF7FEFF 		bl	get_fattime
 2190 0080 010A     		lsrs	r1, r0, #8
 2191 0082 030C     		lsrs	r3, r0, #16
 2192 0084 020E     		lsrs	r2, r0, #24
 2193 0086 A875     		strb	r0, [r5, #22]
 2194 0088 6A76     		strb	r2, [r5, #25]
 2195 008a E975     		strb	r1, [r5, #23]
 2196 008c 2B76     		strb	r3, [r5, #24]
 2197 008e A179     		ldrb	r1, [r4, #6]	@ zero_extendqisi2
 2198 0090 2368     		ldr	r3, [r4, #0]
 2199 0092 21F02000 		bic	r0, r1, #32
 2200 0096 0122     		movs	r2, #1
 2201 0098 A071     		strb	r0, [r4, #6]
 2202 009a 1A71     		strb	r2, [r3, #4]
 2203 009c 2068     		ldr	r0, [r4, #0]
 2204 009e BDE83840 		pop	{r3, r4, r5, lr}
 2205 00a2 FFF7FEBF 		b	sync
 2206              	.L322:
 2207 00a6 0120     		movs	r0, #1
 2208              	.L320:
 2209 00a8 38BD     		pop	{r3, r4, r5, pc}
 2211              		.section	.text.f_close,"ax",%progbits
 2212              		.align	1
 2213              		.global	f_close
 2214              		.thumb
 2215              		.thumb_func
 2217              	f_close:
 2218              		@ args = 0, pretend = 0, frame = 0
 2219              		@ frame_needed = 0, uses_anonymous_args = 0
 2220 0000 10B5     		push	{r4, lr}
 2221 0002 0446     		mov	r4, r0
 2222 0004 FFF7FEFF 		bl	f_sync
 2223 0008 00B9     		cbnz	r0, .L324
 2224 000a 2060     		str	r0, [r4, #0]
 2225              	.L324:
 2226 000c 10BD     		pop	{r4, pc}
 2228              		.section	.text.f_lseek,"ax",%progbits
 2229              		.align	1
 2230              		.global	f_lseek
 2231              		.thumb
 2232              		.thumb_func
 2234              	f_lseek:
 2235              		@ args = 0, pretend = 0, frame = 0
 2236              		@ frame_needed = 0, uses_anonymous_args = 0
 2237 0000 2DE9F041 		push	{r4, r5, r6, r7, r8, lr}
 2238 0004 0446     		mov	r4, r0
 2239 0006 0F46     		mov	r7, r1
 2240 0008 0068     		ldr	r0, [r0, #0]
 2241 000a A188     		ldrh	r1, [r4, #4]
 2242 000c FFF7FEFF 		bl	validate
 2243 0010 0546     		mov	r5, r0
 2244 0012 0028     		cmp	r0, #0
 2245 0014 40F09A80 		bne	.L326
 2246 0018 A279     		ldrb	r2, [r4, #6]	@ zero_extendqisi2
 2247 001a 1106     		lsls	r1, r2, #24
 2248 001c 00F19580 		bmi	.L347
 2249 0020 E368     		ldr	r3, [r4, #12]
 2250 0022 9F42     		cmp	r7, r3
 2251 0024 04D9     		bls	.L327
 2252 0026 02F00202 		and	r2, r2, #2
 2253 002a 002A     		cmp	r2, #0
 2254 002c 08BF     		it	eq
 2255 002e 1F46     		moveq	r7, r3
 2256              	.L327:
 2257 0030 0020     		movs	r0, #0
 2258 0032 A368     		ldr	r3, [r4, #8]
 2259 0034 A060     		str	r0, [r4, #8]
 2260 0036 002F     		cmp	r7, #0
 2261 0038 52D0     		beq	.L349
 2262 003a 2068     		ldr	r0, [r4, #0]
 2263 003c 8178     		ldrb	r1, [r0, #2]	@ zero_extendqisi2
 2264 003e 4FEA4128 		lsl	r8, r1, #9
 2265 0042 73B1     		cbz	r3, .L329
 2266 0044 013B     		subs	r3, r3, #1
 2267 0046 7A1E     		subs	r2, r7, #1
 2268 0048 B2FBF8FC 		udiv	ip, r2, r8
 2269 004c B3FBF8FE 		udiv	lr, r3, r8
 2270 0050 F445     		cmp	ip, lr
 2271 0052 06D3     		bcc	.L329
 2272 0054 C8F10000 		rsb	r0, r8, #0
 2273 0058 0340     		ands	r3, r3, r0
 2274 005a A360     		str	r3, [r4, #8]
 2275 005c FF1A     		subs	r7, r7, r3
 2276 005e 6169     		ldr	r1, [r4, #20]
 2277 0060 0AE0     		b	.L330
 2278              	.L329:
 2279 0062 2169     		ldr	r1, [r4, #16]
 2280 0064 39B9     		cbnz	r1, .L331
 2281 0066 FFF7FEFF 		bl	create_chain
 2282 006a 0128     		cmp	r0, #1
 2283 006c 0146     		mov	r1, r0
 2284 006e 2FD0     		beq	.L356
 2285              	.L332:
 2286 0070 421C     		adds	r2, r0, #1
 2287 0072 57D0     		beq	.L354
 2288              	.L333:
 2289 0074 2061     		str	r0, [r4, #16]
 2290              	.L331:
 2291 0076 6161     		str	r1, [r4, #20]
 2292              	.L330:
 2293 0078 0029     		cmp	r1, #0
 2294 007a 33D0     		beq	.L350
 2295 007c 1AE0     		b	.L353
 2296              	.L341:
 2297 007e A279     		ldrb	r2, [r4, #6]	@ zero_extendqisi2
 2298 0080 2068     		ldr	r0, [r4, #0]
 2299 0082 9307     		lsls	r3, r2, #30
 2300 0084 04D5     		bpl	.L335
 2301 0086 FFF7FEFF 		bl	create_chain
 2302 008a 0146     		mov	r1, r0
 2303 008c 18B9     		cbnz	r0, .L337
 2304 008e 14E0     		b	.L357
 2305              	.L335:
 2306 0090 FFF7FEFF 		bl	get_fat
 2307 0094 0146     		mov	r1, r0
 2308              	.L337:
 2309 0096 481C     		adds	r0, r1, #1
 2310 0098 44D0     		beq	.L354
 2311              	.L338:
 2312 009a 0129     		cmp	r1, #1
 2313 009c 18D9     		bls	.L356
 2314 009e 2068     		ldr	r0, [r4, #0]
 2315 00a0 8369     		ldr	r3, [r0, #24]
 2316 00a2 9942     		cmp	r1, r3
 2317 00a4 14D2     		bcs	.L356
 2318              	.L340:
 2319 00a6 A368     		ldr	r3, [r4, #8]
 2320 00a8 6161     		str	r1, [r4, #20]
 2321 00aa 03EB0802 		add	r2, r3, r8
 2322 00ae A260     		str	r2, [r4, #8]
 2323 00b0 C8EB0707 		rsb	r7, r8, r7
 2324              	.L353:
 2325 00b4 4745     		cmp	r7, r8
 2326 00b6 E2D8     		bhi	.L341
 2327 00b8 00E0     		b	.L336
 2328              	.L357:
 2329 00ba 4746     		mov	r7, r8
 2330              	.L336:
 2331 00bc A268     		ldr	r2, [r4, #8]
 2332 00be FE05     		lsls	r6, r7, #23
 2333 00c0 D019     		adds	r0, r2, r7
 2334 00c2 F60D     		lsrs	r6, r6, #23
 2335 00c4 A060     		str	r0, [r4, #8]
 2336 00c6 76B1     		cbz	r6, .L328
 2337 00c8 2068     		ldr	r0, [r4, #0]
 2338 00ca FFF7FEFF 		bl	clust2sect
 2339 00ce 20B9     		cbnz	r0, .L342
 2340              	.L356:
 2341 00d0 A179     		ldrb	r1, [r4, #6]	@ zero_extendqisi2
 2342 00d2 61F07F05 		orn	r5, r1, #127
 2343 00d6 A571     		strb	r5, [r4, #6]
 2344 00d8 37E0     		b	.L347
 2345              	.L342:
 2346 00da 00EB5726 		add	r6, r0, r7, lsr #9
 2347 00de 02E0     		b	.L328
 2348              	.L349:
 2349 00e0 3E46     		mov	r6, r7
 2350 00e2 00E0     		b	.L328
 2351              	.L350:
 2352 00e4 0E46     		mov	r6, r1
 2353              	.L328:
 2354 00e6 A268     		ldr	r2, [r4, #8]
 2355 00e8 D005     		lsls	r0, r2, #23
 2356 00ea C30D     		lsrs	r3, r0, #23
 2357 00ec 0BB3     		cbz	r3, .L343
 2358 00ee A269     		ldr	r2, [r4, #24]
 2359 00f0 9642     		cmp	r6, r2
 2360 00f2 1ED0     		beq	.L343
 2361 00f4 A179     		ldrb	r1, [r4, #6]	@ zero_extendqisi2
 2362 00f6 4906     		lsls	r1, r1, #25
 2363 00f8 0BD5     		bpl	.L344
 2364 00fa 2146     		mov	r1, r4
 2365 00fc 51F8243B 		ldr	r3, [r1], #36
 2366 0100 5878     		ldrb	r0, [r3, #1]	@ zero_extendqisi2
 2367 0102 0123     		movs	r3, #1
 2368 0104 FFF7FEFF 		bl	disk_write
 2369 0108 A379     		ldrb	r3, [r4, #6]	@ zero_extendqisi2
 2370 010a 60B9     		cbnz	r0, .L355
 2371              	.L345:
 2372 010c 23F04000 		bic	r0, r3, #64
 2373 0110 A071     		strb	r0, [r4, #6]
 2374              	.L344:
 2375 0112 2146     		mov	r1, r4
 2376 0114 0123     		movs	r3, #1
 2377 0116 51F8242B 		ldr	r2, [r1], #36
 2378 011a 5078     		ldrb	r0, [r2, #1]	@ zero_extendqisi2
 2379 011c 3246     		mov	r2, r6
 2380 011e FFF7FEFF 		bl	disk_read
 2381 0122 28B1     		cbz	r0, .L346
 2382              	.L354:
 2383 0124 A379     		ldrb	r3, [r4, #6]	@ zero_extendqisi2
 2384              	.L355:
 2385 0126 63F07F05 		orn	r5, r3, #127
 2386 012a A571     		strb	r5, [r4, #6]
 2387 012c 0125     		movs	r5, #1
 2388 012e 0DE0     		b	.L326
 2389              	.L346:
 2390 0130 A661     		str	r6, [r4, #24]
 2391              	.L343:
 2392 0132 A368     		ldr	r3, [r4, #8]
 2393 0134 E168     		ldr	r1, [r4, #12]
 2394 0136 8B42     		cmp	r3, r1
 2395 0138 08D9     		bls	.L326
 2396 013a 94F806E0 		ldrb	lr, [r4, #6]	@ zero_extendqisi2
 2397 013e E360     		str	r3, [r4, #12]
 2398 0140 4EF0200C 		orr	ip, lr, #32
 2399 0144 84F806C0 		strb	ip, [r4, #6]
 2400 0148 00E0     		b	.L326
 2401              	.L347:
 2402 014a 0225     		movs	r5, #2
 2403              	.L326:
 2404 014c 2846     		mov	r0, r5
 2405 014e BDE8F081 		pop	{r4, r5, r6, r7, r8, pc}
 2407              		.section	.text.f_opendir,"ax",%progbits
 2408              		.align	1
 2409              		.global	f_opendir
 2410              		.thumb
 2411              		.thumb_func
 2413              	f_opendir:
 2414              		@ args = 0, pretend = 0, frame = 24
 2415              		@ frame_needed = 0, uses_anonymous_args = 0
 2416 0000 10B5     		push	{r4, lr}
 2417 0002 86B0     		sub	sp, sp, #24
 2418 0004 0446     		mov	r4, r0
 2419 0006 06A8     		add	r0, sp, #24
 2420 0008 0022     		movs	r2, #0
 2421 000a 40F8141D 		str	r1, [r0, #-20]!
 2422 000e 2146     		mov	r1, r4
 2423 0010 FFF7FEFF 		bl	chk_mounted
 2424 0014 18BB     		cbnz	r0, .L359
 2425 0016 03AB     		add	r3, sp, #12
 2426 0018 A361     		str	r3, [r4, #24]
 2427 001a 2046     		mov	r0, r4
 2428 001c 0199     		ldr	r1, [sp, #4]
 2429 001e FFF7FEFF 		bl	follow_path
 2430 0022 B8B9     		cbnz	r0, .L360
 2431 0024 6369     		ldr	r3, [r4, #20]
 2432 0026 73B1     		cbz	r3, .L361
 2433 0028 DA7A     		ldrb	r2, [r3, #11]	@ zero_extendqisi2
 2434 002a D006     		lsls	r0, r2, #27
 2435 002c 16D5     		bpl	.L363
 2436 002e 597D     		ldrb	r1, [r3, #21]	@ zero_extendqisi2
 2437 0030 187D     		ldrb	r0, [r3, #20]	@ zero_extendqisi2
 2438 0032 DA7E     		ldrb	r2, [r3, #27]	@ zero_extendqisi2
 2439 0034 93F81AE0 		ldrb	lr, [r3, #26]	@ zero_extendqisi2
 2440 0038 40EA012C 		orr	ip, r0, r1, lsl #8
 2441 003c 4EEA0221 		orr	r1, lr, r2, lsl #8
 2442 0040 41EA0C40 		orr	r0, r1, ip, lsl #16
 2443 0044 A060     		str	r0, [r4, #8]
 2444              	.L361:
 2445 0046 2268     		ldr	r2, [r4, #0]
 2446 0048 D388     		ldrh	r3, [r2, #6]
 2447 004a 2046     		mov	r0, r4
 2448 004c A380     		strh	r3, [r4, #4]	@ movhi
 2449 004e 0021     		movs	r1, #0
 2450 0050 FFF7FEFF 		bl	dir_sdi
 2451              	.L360:
 2452 0054 0428     		cmp	r0, #4
 2453 0056 08BF     		it	eq
 2454 0058 0520     		moveq	r0, #5
 2455 005a 00E0     		b	.L359
 2456              	.L363:
 2457 005c 0520     		movs	r0, #5
 2458              	.L359:
 2459 005e 06B0     		add	sp, sp, #24
 2460 0060 10BD     		pop	{r4, pc}
 2462              		.section	.text.f_readdir,"ax",%progbits
 2463              		.align	1
 2464              		.global	f_readdir
 2465              		.thumb
 2466              		.thumb_func
 2468              	f_readdir:
 2469              		@ args = 0, pretend = 0, frame = 16
 2470              		@ frame_needed = 0, uses_anonymous_args = 0
 2471 0000 7FB5     		push	{r0, r1, r2, r3, r4, r5, r6, lr}
 2472 0002 0446     		mov	r4, r0
 2473 0004 0E46     		mov	r6, r1
 2474 0006 0068     		ldr	r0, [r0, #0]
 2475 0008 A188     		ldrh	r1, [r4, #4]
 2476 000a FFF7FEFF 		bl	validate
 2477 000e 0546     		mov	r5, r0
 2478 0010 E8B9     		cbnz	r0, .L366
 2479 0012 26B9     		cbnz	r6, .L367
 2480 0014 2046     		mov	r0, r4
 2481 0016 2946     		mov	r1, r5
 2482 0018 FFF7FEFF 		bl	dir_sdi
 2483 001c 16E0     		b	.L371
 2484              	.L367:
 2485 001e 01AB     		add	r3, sp, #4
 2486 0020 A361     		str	r3, [r4, #24]
 2487 0022 2046     		mov	r0, r4
 2488 0024 FFF7FEFF 		bl	dir_read
 2489 0028 0428     		cmp	r0, #4
 2490 002a 01D1     		bne	.L368
 2491 002c 2561     		str	r5, [r4, #16]
 2492 002e 00E0     		b	.L369
 2493              	.L368:
 2494 0030 60B9     		cbnz	r0, .L371
 2495              	.L369:
 2496 0032 2046     		mov	r0, r4
 2497 0034 3146     		mov	r1, r6
 2498 0036 FFF7FEFF 		bl	get_fileinfo
 2499 003a 0021     		movs	r1, #0
 2500 003c 2046     		mov	r0, r4
 2501 003e FFF7FEFF 		bl	dir_next
 2502 0042 0428     		cmp	r0, #4
 2503 0044 02D1     		bne	.L371
 2504 0046 0020     		movs	r0, #0
 2505 0048 2061     		str	r0, [r4, #16]
 2506 004a 00E0     		b	.L366
 2507              	.L371:
 2508 004c 0546     		mov	r5, r0
 2509              	.L366:
 2510 004e 2846     		mov	r0, r5
 2511 0050 04B0     		add	sp, sp, #16
 2512 0052 70BD     		pop	{r4, r5, r6, pc}
 2514              		.section	.text.f_stat,"ax",%progbits
 2515              		.align	1
 2516              		.global	f_stat
 2517              		.thumb
 2518              		.thumb_func
 2520              	f_stat:
 2521              		@ args = 0, pretend = 0, frame = 48
 2522              		@ frame_needed = 0, uses_anonymous_args = 0
 2523 0000 30B5     		push	{r4, r5, lr}
 2524 0002 8DB0     		sub	sp, sp, #52
 2525 0004 0CAB     		add	r3, sp, #48
 2526 0006 0C46     		mov	r4, r1
 2527 0008 43F82C0D 		str	r0, [r3, #-44]!
 2528 000c 02A9     		add	r1, sp, #8
 2529 000e 1846     		mov	r0, r3
 2530 0010 0022     		movs	r2, #0
 2531 0012 FFF7FEFF 		bl	chk_mounted
 2532 0016 0546     		mov	r5, r0
 2533 0018 78B9     		cbnz	r0, .L373
 2534 001a 09A8     		add	r0, sp, #36
 2535 001c 0890     		str	r0, [sp, #32]
 2536 001e 0199     		ldr	r1, [sp, #4]
 2537 0020 02A8     		add	r0, sp, #8
 2538 0022 FFF7FEFF 		bl	follow_path
 2539 0026 0546     		mov	r5, r0
 2540 0028 38B9     		cbnz	r0, .L373
 2541 002a 0799     		ldr	r1, [sp, #28]
 2542 002c 21B1     		cbz	r1, .L374
 2543 002e 02A8     		add	r0, sp, #8
 2544 0030 2146     		mov	r1, r4
 2545 0032 FFF7FEFF 		bl	get_fileinfo
 2546 0036 00E0     		b	.L373
 2547              	.L374:
 2548 0038 0625     		movs	r5, #6
 2549              	.L373:
 2550 003a 2846     		mov	r0, r5
 2551 003c 0DB0     		add	sp, sp, #52
 2552 003e 30BD     		pop	{r4, r5, pc}
 2554              		.section	.text.f_getfree,"ax",%progbits
 2555              		.align	1
 2556              		.global	f_getfree
 2557              		.thumb
 2558              		.thumb_func
 2560              	f_getfree:
 2561              		@ args = 0, pretend = 0, frame = 8
 2562              		@ frame_needed = 0, uses_anonymous_args = 0
 2563 0000 2DE9F347 		push	{r0, r1, r4, r5, r6, r7, r8, r9, sl, lr}
 2564 0004 02AB     		add	r3, sp, #8
 2565 0006 0D46     		mov	r5, r1
 2566 0008 43F8040D 		str	r0, [r3, #-4]!
 2567 000c 1146     		mov	r1, r2
 2568 000e 1446     		mov	r4, r2
 2569 0010 1846     		mov	r0, r3
 2570 0012 0022     		movs	r2, #0
 2571 0014 FFF7FEFF 		bl	chk_mounted
 2572 0018 0646     		mov	r6, r0
 2573 001a 0028     		cmp	r0, #0
 2574 001c 64D1     		bne	.L376
 2575 001e 2368     		ldr	r3, [r4, #0]
 2576 0020 D3F81880 		ldr	r8, [r3, #24]
 2577 0024 1A69     		ldr	r2, [r3, #16]
 2578 0026 A8F10201 		sub	r1, r8, #2
 2579 002a 8A42     		cmp	r2, r1
 2580 002c 01D8     		bhi	.L377
 2581 002e 2A60     		str	r2, [r5, #0]
 2582 0030 5AE0     		b	.L376
 2583              	.L377:
 2584 0032 93F80090 		ldrb	r9, [r3, #0]	@ zero_extendqisi2
 2585 0036 B9F1010F 		cmp	r9, #1
 2586 003a 13D1     		bne	.L378
 2587 003c 4FF00208 		mov	r8, #2
 2588 0040 0746     		mov	r7, r0
 2589              	.L381:
 2590 0042 2068     		ldr	r0, [r4, #0]
 2591 0044 4146     		mov	r1, r8
 2592 0046 FFF7FEFF 		bl	get_fat
 2593 004a 431C     		adds	r3, r0, #1
 2594 004c 3FD0     		beq	.L389
 2595 004e 0128     		cmp	r0, #1
 2596 0050 3FD0     		beq	.L390
 2597 0052 00B9     		cbnz	r0, .L380
 2598 0054 0137     		adds	r7, r7, #1
 2599              	.L380:
 2600 0056 2268     		ldr	r2, [r4, #0]
 2601 0058 9069     		ldr	r0, [r2, #24]
 2602 005a 08F10108 		add	r8, r8, #1
 2603 005e 8045     		cmp	r8, r0
 2604 0060 EFD3     		bcc	.L381
 2605 0062 39E0     		b	.L379
 2606              	.L378:
 2607 0064 D3F820A0 		ldr	sl, [r3, #32]
 2608 0068 0246     		mov	r2, r0
 2609 006a 0346     		mov	r3, r0
 2610 006c 0746     		mov	r7, r0
 2611              	.L387:
 2612 006e 52B9     		cbnz	r2, .L382
 2613 0070 2068     		ldr	r0, [r4, #0]
 2614 0072 5146     		mov	r1, sl
 2615 0074 FFF7FEFF 		bl	move_window
 2616 0078 68BB     		cbnz	r0, .L391
 2617 007a 2368     		ldr	r3, [r4, #0]
 2618 007c 0AF1010A 		add	sl, sl, #1
 2619 0080 3033     		adds	r3, r3, #48
 2620 0082 4FF40072 		mov	r2, #512
 2621              	.L382:
 2622 0086 B9F1020F 		cmp	r9, #2
 2623 008a 0AD1     		bne	.L383
 2624 008c 93F801C0 		ldrb	ip, [r3, #1]	@ zero_extendqisi2
 2625 0090 93F800E0 		ldrb	lr, [r3, #0]	@ zero_extendqisi2
 2626 0094 5EEA0C21 		orrs	r1, lr, ip, lsl #8
 2627 0098 08BF     		it	eq
 2628 009a 0137     		addeq	r7, r7, #1
 2629 009c 0233     		adds	r3, r3, #2
 2630 009e 023A     		subs	r2, r2, #2
 2631 00a0 11E0     		b	.L385
 2632              	.L383:
 2633 00a2 9878     		ldrb	r0, [r3, #2]	@ zero_extendqisi2
 2634 00a4 93F803C0 		ldrb	ip, [r3, #3]	@ zero_extendqisi2
 2635 00a8 0104     		lsls	r1, r0, #16
 2636 00aa 1878     		ldrb	r0, [r3, #0]	@ zero_extendqisi2
 2637 00ac 41EA0C6E 		orr	lr, r1, ip, lsl #24
 2638 00b0 5978     		ldrb	r1, [r3, #1]	@ zero_extendqisi2
 2639 00b2 4EEA000C 		orr	ip, lr, r0
 2640 00b6 4CEA0120 		orr	r0, ip, r1, lsl #8
 2641 00ba 20F07041 		bic	r1, r0, #-268435456
 2642 00be 01B9     		cbnz	r1, .L386
 2643 00c0 0137     		adds	r7, r7, #1
 2644              	.L386:
 2645 00c2 0433     		adds	r3, r3, #4
 2646 00c4 043A     		subs	r2, r2, #4
 2647              	.L385:
 2648 00c6 B8F10108 		subs	r8, r8, #1
 2649 00ca D0D1     		bne	.L387
 2650 00cc 04E0     		b	.L379
 2651              	.L389:
 2652 00ce 0126     		movs	r6, #1
 2653 00d0 02E0     		b	.L379
 2654              	.L390:
 2655 00d2 0226     		movs	r6, #2
 2656 00d4 00E0     		b	.L379
 2657              	.L391:
 2658 00d6 0646     		mov	r6, r0
 2659              	.L379:
 2660 00d8 2368     		ldr	r3, [r4, #0]
 2661 00da B9F1030F 		cmp	r9, #3
 2662 00de 1F61     		str	r7, [r3, #16]
 2663 00e0 01D1     		bne	.L388
 2664 00e2 0122     		movs	r2, #1
 2665 00e4 5A71     		strb	r2, [r3, #5]
 2666              	.L388:
 2667 00e6 2F60     		str	r7, [r5, #0]
 2668              	.L376:
 2669 00e8 3046     		mov	r0, r6
 2670 00ea BDE8FC87 		pop	{r2, r3, r4, r5, r6, r7, r8, r9, sl, pc}
 2672              		.section	.text.f_truncate,"ax",%progbits
 2673              		.align	1
 2674              		.global	f_truncate
 2675              		.thumb
 2676              		.thumb_func
 2678              	f_truncate:
 2679              		@ args = 0, pretend = 0, frame = 0
 2680              		@ frame_needed = 0, uses_anonymous_args = 0
 2681 0000 70B5     		push	{r4, r5, r6, lr}
 2682 0002 0446     		mov	r4, r0
 2683 0004 0068     		ldr	r0, [r0, #0]
 2684 0006 A188     		ldrh	r1, [r4, #4]
 2685 0008 FFF7FEFF 		bl	validate
 2686 000c 0646     		mov	r6, r0
 2687 000e 0028     		cmp	r0, #0
 2688 0010 2ED1     		bne	.L397
 2689 0012 A379     		ldrb	r3, [r4, #6]	@ zero_extendqisi2
 2690 0014 1806     		lsls	r0, r3, #24
 2691 0016 03D4     		bmi	.L405
 2692 0018 9907     		lsls	r1, r3, #30
 2693 001a 2BD4     		bmi	.L396
 2694 001c 0726     		movs	r6, #7
 2695 001e 27E0     		b	.L397
 2696              	.L405:
 2697 0020 0226     		movs	r6, #2
 2698 0022 25E0     		b	.L397
 2699              	.L402:
 2700 0024 43F02003 		orr	r3, r3, #32
 2701 0028 E560     		str	r5, [r4, #12]
 2702 002a A371     		strb	r3, [r4, #6]
 2703 002c 2068     		ldr	r0, [r4, #0]
 2704 002e 2DB9     		cbnz	r5, .L398
 2705 0030 2169     		ldr	r1, [r4, #16]
 2706 0032 FFF7FEFF 		bl	remove_chain
 2707 0036 2561     		str	r5, [r4, #16]
 2708 0038 0646     		mov	r6, r0
 2709 003a 14E0     		b	.L399
 2710              	.L398:
 2711 003c 6169     		ldr	r1, [r4, #20]
 2712 003e FFF7FEFF 		bl	get_fat
 2713 0042 421C     		adds	r2, r0, #1
 2714 0044 0546     		mov	r5, r0
 2715 0046 1AD0     		beq	.L406
 2716 0048 0128     		cmp	r0, #1
 2717 004a 1CD1     		bne	.L408
 2718 004c 19E0     		b	.L409
 2719              	.L410:
 2720 004e 6169     		ldr	r1, [r4, #20]
 2721 0050 6FF07042 		mvn	r2, #-268435456
 2722 0054 FFF7FEFF 		bl	put_fat
 2723 0058 0646     		mov	r6, r0
 2724 005a 28B9     		cbnz	r0, .L403
 2725 005c 2068     		ldr	r0, [r4, #0]
 2726 005e 2946     		mov	r1, r5
 2727 0060 FFF7FEFF 		bl	remove_chain
 2728 0064 0646     		mov	r6, r0
 2729              	.L399:
 2730 0066 1EB1     		cbz	r6, .L397
 2731              	.L403:
 2732 0068 A179     		ldrb	r1, [r4, #6]	@ zero_extendqisi2
 2733 006a 61F07F00 		orn	r0, r1, #127
 2734 006e A071     		strb	r0, [r4, #6]
 2735              	.L397:
 2736 0070 3046     		mov	r0, r6
 2737 0072 70BD     		pop	{r4, r5, r6, pc}
 2738              	.L396:
 2739 0074 A568     		ldr	r5, [r4, #8]
 2740 0076 E268     		ldr	r2, [r4, #12]
 2741 0078 AA42     		cmp	r2, r5
 2742 007a D3D8     		bhi	.L402
 2743 007c F8E7     		b	.L397
 2744              	.L406:
 2745 007e 0126     		movs	r6, #1
 2746 0080 F2E7     		b	.L403
 2747              	.L409:
 2748 0082 0226     		movs	r6, #2
 2749 0084 F0E7     		b	.L403
 2750              	.L408:
 2751 0086 2068     		ldr	r0, [r4, #0]
 2752 0088 8369     		ldr	r3, [r0, #24]
 2753 008a 9D42     		cmp	r5, r3
 2754 008c F0D2     		bcs	.L397
 2755 008e DEE7     		b	.L410
 2757              		.section	.text.f_unlink,"ax",%progbits
 2758              		.align	1
 2759              		.global	f_unlink
 2760              		.thumb
 2761              		.thumb_func
 2763              	f_unlink:
 2764              		@ args = 0, pretend = 0, frame = 80
 2765              		@ frame_needed = 0, uses_anonymous_args = 0
 2766 0000 30B5     		push	{r4, r5, lr}
 2767 0002 95B0     		sub	sp, sp, #84
 2768 0004 14AB     		add	r3, sp, #80
 2769 0006 03A9     		add	r1, sp, #12
 2770 0008 43F84C0D 		str	r0, [r3, #-76]!
 2771 000c 0122     		movs	r2, #1
 2772 000e 1846     		mov	r0, r3
 2773 0010 FFF7FEFF 		bl	chk_mounted
 2774 0014 0028     		cmp	r0, #0
 2775 0016 43D1     		bne	.L412
 2776 0018 11A8     		add	r0, sp, #68
 2777 001a 0990     		str	r0, [sp, #36]
 2778 001c 0199     		ldr	r1, [sp, #4]
 2779 001e 03A8     		add	r0, sp, #12
 2780 0020 FFF7FEFF 		bl	follow_path
 2781 0024 0028     		cmp	r0, #0
 2782 0026 3BD1     		bne	.L412
 2783 0028 089B     		ldr	r3, [sp, #32]
 2784 002a 3BB1     		cbz	r3, .L418
 2785 002c DA7A     		ldrb	r2, [r3, #11]	@ zero_extendqisi2
 2786 002e 02F00101 		and	r1, r2, #1
 2787 0032 0029     		cmp	r1, #0
 2788 0034 14BF     		ite	ne
 2789 0036 0720     		movne	r0, #7
 2790 0038 0020     		moveq	r0, #0
 2791 003a 00E0     		b	.L413
 2792              	.L418:
 2793 003c 0620     		movs	r0, #6
 2794              	.L413:
 2795 003e 5D7D     		ldrb	r5, [r3, #21]	@ zero_extendqisi2
 2796 0040 1C7D     		ldrb	r4, [r3, #20]	@ zero_extendqisi2
 2797 0042 D97E     		ldrb	r1, [r3, #27]	@ zero_extendqisi2
 2798 0044 9A7E     		ldrb	r2, [r3, #26]	@ zero_extendqisi2
 2799 0046 58BB     		cbnz	r0, .L412
 2800 0048 93F80BC0 		ldrb	ip, [r3, #11]	@ zero_extendqisi2
 2801 004c 44EA0524 		orr	r4, r4, r5, lsl #8
 2802 0050 42EA0120 		orr	r0, r2, r1, lsl #8
 2803 0054 5FEACC63 		lsls	r3, ip, #27
 2804 0058 40EA0444 		orr	r4, r0, r4, lsl #16
 2805 005c 22D5     		bpl	.L415
 2806 005e 012C     		cmp	r4, #1
 2807 0060 11D9     		bls	.L420
 2808 0062 0AA8     		add	r0, sp, #40
 2809 0064 03A9     		add	r1, sp, #12
 2810 0066 1C22     		movs	r2, #28
 2811 0068 FFF7FEFF 		bl	mem_cpy
 2812 006c 0AA8     		add	r0, sp, #40
 2813 006e 0221     		movs	r1, #2
 2814 0070 0C94     		str	r4, [sp, #48]
 2815 0072 FFF7FEFF 		bl	dir_sdi
 2816 0076 98B9     		cbnz	r0, .L412
 2817 0078 0AA8     		add	r0, sp, #40
 2818 007a FFF7FEFF 		bl	dir_read
 2819 007e 20B1     		cbz	r0, .L421
 2820 0080 0428     		cmp	r0, #4
 2821 0082 0FD0     		beq	.L415
 2822 0084 0CE0     		b	.L412
 2823              	.L420:
 2824 0086 0220     		movs	r0, #2
 2825 0088 0AE0     		b	.L412
 2826              	.L421:
 2827 008a 0720     		movs	r0, #7
 2828 008c 08E0     		b	.L412
 2829              	.L417:
 2830 008e 24B1     		cbz	r4, .L416
 2831 0090 0398     		ldr	r0, [sp, #12]
 2832 0092 2146     		mov	r1, r4
 2833 0094 FFF7FEFF 		bl	remove_chain
 2834 0098 10B9     		cbnz	r0, .L412
 2835              	.L416:
 2836 009a 0398     		ldr	r0, [sp, #12]
 2837 009c FFF7FEFF 		bl	sync
 2838              	.L412:
 2839 00a0 15B0     		add	sp, sp, #84
 2840 00a2 30BD     		pop	{r4, r5, pc}
 2841              	.L415:
 2842 00a4 03A8     		add	r0, sp, #12
 2843 00a6 FFF7FEFF 		bl	dir_remove
 2844 00aa 0028     		cmp	r0, #0
 2845 00ac EFD0     		beq	.L417
 2846 00ae F7E7     		b	.L412
 2848              		.section	.text.f_mkdir,"ax",%progbits
 2849              		.align	1
 2850              		.global	f_mkdir
 2851              		.thumb
 2852              		.thumb_func
 2854              	f_mkdir:
 2855              		@ args = 0, pretend = 0, frame = 56
 2856              		@ frame_needed = 0, uses_anonymous_args = 0
 2857 0000 2DE9F04F 		push	{r4, r5, r6, r7, r8, r9, sl, fp, lr}
 2858 0004 8FB0     		sub	sp, sp, #60
 2859 0006 0EAC     		add	r4, sp, #56
 2860 0008 44F82C0D 		str	r0, [r4, #-44]!
 2861 000c FFF7FEFF 		bl	get_fattime
 2862 0010 04A9     		add	r1, sp, #16
 2863 0012 0646     		mov	r6, r0
 2864 0014 0122     		movs	r2, #1
 2865 0016 2046     		mov	r0, r4
 2866 0018 FFF7FEFF 		bl	chk_mounted
 2867 001c 8246     		mov	sl, r0
 2868 001e 0446     		mov	r4, r0
 2869 0020 0028     		cmp	r0, #0
 2870 0022 40F0B680 		bne	.L423
 2871 0026 0BAB     		add	r3, sp, #44
 2872 0028 04A8     		add	r0, sp, #16
 2873 002a 0399     		ldr	r1, [sp, #12]
 2874 002c 0A93     		str	r3, [sp, #40]
 2875 002e FFF7FEFF 		bl	follow_path
 2876 0032 8246     		mov	sl, r0
 2877 0034 0028     		cmp	r0, #0
 2878 0036 00F0AA80 		beq	.L433
 2879 003a 0428     		cmp	r0, #4
 2880 003c 40F0A980 		bne	.L423
 2881 0040 0498     		ldr	r0, [sp, #16]
 2882 0042 2146     		mov	r1, r4
 2883 0044 FFF7FEFF 		bl	create_chain
 2884 0048 0546     		mov	r5, r0
 2885 004a 0028     		cmp	r0, #0
 2886 004c 00F0A580 		beq	.L434
 2887 0050 0128     		cmp	r0, #1
 2888 0052 00F0A580 		beq	.L435
 2889 0056 0130     		adds	r0, r0, #1
 2890 0058 00F0A580 		beq	.L436
 2891 005c A6E0     		b	.L440
 2892              	.L432:
 2893 005e 049C     		ldr	r4, [sp, #16]
 2894 0060 2946     		mov	r1, r5
 2895 0062 2046     		mov	r0, r4
 2896 0064 FFF7FEFF 		bl	clust2sect
 2897 0068 04F13007 		add	r7, r4, #48
 2898 006c 4146     		mov	r1, r8
 2899 006e 4FF40072 		mov	r2, #512
 2900 0072 8146     		mov	r9, r0
 2901 0074 3846     		mov	r0, r7
 2902 0076 FFF7FEFF 		bl	mem_set
 2903 007a 2021     		movs	r1, #32
 2904 007c 0B22     		movs	r2, #11
 2905 007e 3846     		mov	r0, r7
 2906 0080 FFF7FEFF 		bl	mem_set
 2907 0084 1023     		movs	r3, #16
 2908 0086 B2B2     		uxth	r2, r6
 2909 0088 100A     		lsrs	r0, r2, #8
 2910 008a 84F83B30 		strb	r3, [r4, #59]
 2911 008e 4FEA1548 		lsr	r8, r5, #16
 2912 0092 ABB2     		uxth	r3, r5
 2913 0094 1A0A     		lsrs	r2, r3, #8
 2914 0096 310E     		lsrs	r1, r6, #24
 2915 0098 4FF02E0A 		mov	sl, #46
 2916 009c 8DF80900 		strb	r0, [sp, #9]
 2917 00a0 84F84700 		strb	r0, [r4, #71]
 2918 00a4 4FEA164B 		lsr	fp, r6, #16
 2919 00a8 4FEA1820 		lsr	r0, r8, #8
 2920 00ac 0091     		str	r1, [sp, #0]
 2921 00ae 84F84910 		strb	r1, [r4, #73]
 2922 00b2 8DF80A20 		strb	r2, [sp, #10]
 2923 00b6 84F84B20 		strb	r2, [r4, #75]
 2924 00ba 8DF80B00 		strb	r0, [sp, #11]
 2925 00be 2022     		movs	r2, #32
 2926 00c0 84F84500 		strb	r0, [r4, #69]
 2927 00c4 3946     		mov	r1, r7
 2928 00c6 84F830A0 		strb	sl, [r4, #48]
 2929 00ca 84F84660 		strb	r6, [r4, #70]
 2930 00ce 84F848B0 		strb	fp, [r4, #72]
 2931 00d2 84F84A50 		strb	r5, [r4, #74]
 2932 00d6 84F84480 		strb	r8, [r4, #68]
 2933 00da 04F15000 		add	r0, r4, #80
 2934 00de 0195     		str	r5, [sp, #4]
 2935 00e0 FFF7FEFF 		bl	mem_cpy
 2936 00e4 049A     		ldr	r2, [sp, #16]
 2937 00e6 84F851A0 		strb	sl, [r4, #81]
 2938 00ea 1178     		ldrb	r1, [r2, #0]	@ zero_extendqisi2
 2939 00ec 069B     		ldr	r3, [sp, #24]
 2940 00ee 0329     		cmp	r1, #3
 2941 00f0 03D1     		bne	.L426
 2942 00f2 516A     		ldr	r1, [r2, #36]
 2943 00f4 8B42     		cmp	r3, r1
 2944 00f6 08BF     		it	eq
 2945 00f8 0023     		moveq	r3, #0
 2946              	.L426:
 2947 00fa 84F86A30 		strb	r3, [r4, #106]
 2948 00fe 190A     		lsrs	r1, r3, #8
 2949 0100 1B0C     		lsrs	r3, r3, #16
 2950 0102 180A     		lsrs	r0, r3, #8
 2951 0104 84F86B10 		strb	r1, [r4, #107]
 2952 0108 84F86430 		strb	r3, [r4, #100]
 2953 010c 84F86500 		strb	r0, [r4, #101]
 2954 0110 9478     		ldrb	r4, [r2, #2]	@ zero_extendqisi2
 2955 0112 13E0     		b	.L427
 2956              	.L429:
 2957 0114 0498     		ldr	r0, [sp, #16]
 2958 0116 0122     		movs	r2, #1
 2959 0118 0021     		movs	r1, #0
 2960 011a C0F82C90 		str	r9, [r0, #44]
 2961 011e 0271     		strb	r2, [r0, #4]
 2962 0120 FFF7FEFF 		bl	move_window
 2963 0124 0146     		mov	r1, r0
 2964 0126 8246     		mov	sl, r0
 2965 0128 78B9     		cbnz	r0, .L431
 2966 012a 3846     		mov	r0, r7
 2967 012c 4FF40072 		mov	r2, #512
 2968 0130 FFF7FEFF 		bl	mem_set
 2969 0134 013C     		subs	r4, r4, #1
 2970 0136 09F10109 		add	r9, r9, #1
 2971 013a E4B2     		uxtb	r4, r4
 2972              	.L427:
 2973 013c 002C     		cmp	r4, #0
 2974 013e E9D1     		bne	.L429
 2975 0140 04A8     		add	r0, sp, #16
 2976 0142 FFF7FEFF 		bl	dir_register
 2977 0146 8246     		mov	sl, r0
 2978 0148 20B1     		cbz	r0, .L430
 2979              	.L431:
 2980 014a 0498     		ldr	r0, [sp, #16]
 2981 014c 2946     		mov	r1, r5
 2982 014e FFF7FEFF 		bl	remove_chain
 2983 0152 1EE0     		b	.L423
 2984              	.L430:
 2985 0154 0999     		ldr	r1, [sp, #36]
 2986 0156 9DF80900 		ldrb	r0, [sp, #9]	@ zero_extendqisi2
 2987 015a 009B     		ldr	r3, [sp, #0]
 2988 015c C875     		strb	r0, [r1, #23]
 2989 015e 9DF80B00 		ldrb	r0, [sp, #11]	@ zero_extendqisi2
 2990 0162 9DF80AC0 		ldrb	ip, [sp, #10]	@ zero_extendqisi2
 2991 0166 4875     		strb	r0, [r1, #21]
 2992 0168 1022     		movs	r2, #16
 2993 016a CA72     		strb	r2, [r1, #11]
 2994 016c 0498     		ldr	r0, [sp, #16]
 2995 016e 019A     		ldr	r2, [sp, #4]
 2996 0170 4B76     		strb	r3, [r1, #25]
 2997 0172 0123     		movs	r3, #1
 2998 0174 8E75     		strb	r6, [r1, #22]
 2999 0176 81F818B0 		strb	fp, [r1, #24]
 3000 017a 8A76     		strb	r2, [r1, #26]
 3001 017c 81F81BC0 		strb	ip, [r1, #27]
 3002 0180 81F81480 		strb	r8, [r1, #20]
 3003 0184 0371     		strb	r3, [r0, #4]
 3004 0186 FFF7FEFF 		bl	sync
 3005 018a 8246     		mov	sl, r0
 3006 018c 01E0     		b	.L423
 3007              	.L433:
 3008 018e 4FF0080A 		mov	sl, #8
 3009              	.L423:
 3010 0192 5046     		mov	r0, sl
 3011 0194 0FB0     		add	sp, sp, #60
 3012 0196 BDE8F08F 		pop	{r4, r5, r6, r7, r8, r9, sl, fp, pc}
 3013              	.L434:
 3014 019a 4FF0070A 		mov	sl, #7
 3015 019e D4E7     		b	.L431
 3016              	.L435:
 3017 01a0 4FF0020A 		mov	sl, #2
 3018 01a4 D1E7     		b	.L431
 3019              	.L436:
 3020 01a6 4FF0010A 		mov	sl, #1
 3021 01aa CEE7     		b	.L431
 3022              	.L440:
 3023 01ac 0498     		ldr	r0, [sp, #16]
 3024 01ae 2146     		mov	r1, r4
 3025 01b0 FFF7FEFF 		bl	move_window
 3026 01b4 8046     		mov	r8, r0
 3027 01b6 8246     		mov	sl, r0
 3028 01b8 0028     		cmp	r0, #0
 3029 01ba 3FF450AF 		beq	.L432
 3030 01be C4E7     		b	.L431
 3032              		.section	.text.f_chmod,"ax",%progbits
 3033              		.align	1
 3034              		.global	f_chmod
 3035              		.thumb
 3036              		.thumb_func
 3038              	f_chmod:
 3039              		@ args = 0, pretend = 0, frame = 48
 3040              		@ frame_needed = 0, uses_anonymous_args = 0
 3041 0000 30B5     		push	{r4, r5, lr}
 3042 0002 8DB0     		sub	sp, sp, #52
 3043 0004 0CAB     		add	r3, sp, #48
 3044 0006 0C46     		mov	r4, r1
 3045 0008 43F82C0D 		str	r0, [r3, #-44]!
 3046 000c 1546     		mov	r5, r2
 3047 000e 1846     		mov	r0, r3
 3048 0010 02A9     		add	r1, sp, #8
 3049 0012 0122     		movs	r2, #1
 3050 0014 FFF7FEFF 		bl	chk_mounted
 3051 0018 C0B9     		cbnz	r0, .L442
 3052 001a 09A8     		add	r0, sp, #36
 3053 001c 0890     		str	r0, [sp, #32]
 3054 001e 0199     		ldr	r1, [sp, #4]
 3055 0020 02A8     		add	r0, sp, #8
 3056 0022 FFF7FEFF 		bl	follow_path
 3057 0026 88B9     		cbnz	r0, .L442
 3058 0028 079B     		ldr	r3, [sp, #28]
 3059 002a 73B1     		cbz	r3, .L443
 3060 002c D97A     		ldrb	r1, [r3, #11]	@ zero_extendqisi2
 3061 002e 05F02700 		and	r0, r5, #39
 3062 0032 21EA0002 		bic	r2, r1, r0
 3063 0036 00EA0405 		and	r5, r0, r4
 3064 003a 0298     		ldr	r0, [sp, #8]
 3065 003c 1543     		orrs	r5, r5, r2
 3066 003e 0121     		movs	r1, #1
 3067 0040 DD72     		strb	r5, [r3, #11]
 3068 0042 0171     		strb	r1, [r0, #4]
 3069 0044 FFF7FEFF 		bl	sync
 3070 0048 00E0     		b	.L442
 3071              	.L443:
 3072 004a 0620     		movs	r0, #6
 3073              	.L442:
 3074 004c 0DB0     		add	sp, sp, #52
 3075 004e 30BD     		pop	{r4, r5, pc}
 3077              		.section	.text.f_utime,"ax",%progbits
 3078              		.align	1
 3079              		.global	f_utime
 3080              		.thumb
 3081              		.thumb_func
 3083              	f_utime:
 3084              		@ args = 0, pretend = 0, frame = 48
 3085              		@ frame_needed = 0, uses_anonymous_args = 0
 3086 0000 10B5     		push	{r4, lr}
 3087 0002 8CB0     		sub	sp, sp, #48
 3088 0004 0CAB     		add	r3, sp, #48
 3089 0006 0C46     		mov	r4, r1
 3090 0008 43F82C0D 		str	r0, [r3, #-44]!
 3091 000c 02A9     		add	r1, sp, #8
 3092 000e 1846     		mov	r0, r3
 3093 0010 0122     		movs	r2, #1
 3094 0012 FFF7FEFF 		bl	chk_mounted
 3095 0016 C8B9     		cbnz	r0, .L445
 3096 0018 09A8     		add	r0, sp, #36
 3097 001a 0890     		str	r0, [sp, #32]
 3098 001c 0199     		ldr	r1, [sp, #4]
 3099 001e 02A8     		add	r0, sp, #8
 3100 0020 FFF7FEFF 		bl	follow_path
 3101 0024 90B9     		cbnz	r0, .L445
 3102 0026 079B     		ldr	r3, [sp, #28]
 3103 0028 7BB1     		cbz	r3, .L446
 3104 002a E188     		ldrh	r1, [r4, #6]
 3105 002c 9975     		strb	r1, [r3, #22]
 3106 002e E088     		ldrh	r0, [r4, #6]
 3107 0030 020A     		lsrs	r2, r0, #8
 3108 0032 DA75     		strb	r2, [r3, #23]
 3109 0034 A188     		ldrh	r1, [r4, #4]
 3110 0036 1976     		strb	r1, [r3, #24]
 3111 0038 A088     		ldrh	r0, [r4, #4]
 3112 003a 020A     		lsrs	r2, r0, #8
 3113 003c 0298     		ldr	r0, [sp, #8]
 3114 003e 5A76     		strb	r2, [r3, #25]
 3115 0040 0121     		movs	r1, #1
 3116 0042 0171     		strb	r1, [r0, #4]
 3117 0044 FFF7FEFF 		bl	sync
 3118 0048 00E0     		b	.L445
 3119              	.L446:
 3120 004a 0620     		movs	r0, #6
 3121              	.L445:
 3122 004c 0CB0     		add	sp, sp, #48
 3123 004e 10BD     		pop	{r4, pc}
 3125              		.section	.text.f_rename,"ax",%progbits
 3126              		.align	1
 3127              		.global	f_rename
 3128              		.thumb
 3129              		.thumb_func
 3131              	f_rename:
 3132              		@ args = 0, pretend = 0, frame = 104
 3133              		@ frame_needed = 0, uses_anonymous_args = 0
 3134 0000 30B5     		push	{r4, r5, lr}
 3135 0002 9BB0     		sub	sp, sp, #108
 3136 0004 1AAB     		add	r3, sp, #104
 3137 0006 0C46     		mov	r4, r1
 3138 0008 43F8640D 		str	r0, [r3, #-100]!
 3139 000c 03A9     		add	r1, sp, #12
 3140 000e 1846     		mov	r0, r3
 3141 0010 0122     		movs	r2, #1
 3142 0012 FFF7FEFF 		bl	chk_mounted
 3143 0016 0028     		cmp	r0, #0
 3144 0018 79D1     		bne	.L448
 3145 001a 0399     		ldr	r1, [sp, #12]
 3146 001c 17A8     		add	r0, sp, #92
 3147 001e 0A91     		str	r1, [sp, #40]
 3148 0020 0990     		str	r0, [sp, #36]
 3149 0022 0199     		ldr	r1, [sp, #4]
 3150 0024 03A8     		add	r0, sp, #12
 3151 0026 FFF7FEFF 		bl	follow_path
 3152 002a 0028     		cmp	r0, #0
 3153 002c 6FD1     		bne	.L448
 3154 002e 0899     		ldr	r1, [sp, #32]
 3155 0030 0029     		cmp	r1, #0
 3156 0032 69D0     		beq	.L453
 3157 0034 11A8     		add	r0, sp, #68
 3158 0036 0B31     		adds	r1, r1, #11
 3159 0038 1522     		movs	r2, #21
 3160 003a FFF7FEFF 		bl	mem_cpy
 3161 003e 0AA8     		add	r0, sp, #40
 3162 0040 03A9     		add	r1, sp, #12
 3163 0042 1C22     		movs	r2, #28
 3164 0044 FFF7FEFF 		bl	mem_cpy
 3165 0048 0AA8     		add	r0, sp, #40
 3166 004a 2146     		mov	r1, r4
 3167 004c FFF7FEFF 		bl	follow_path
 3168 0050 0028     		cmp	r0, #0
 3169 0052 5BD0     		beq	.L454
 3170 0054 0428     		cmp	r0, #4
 3171 0056 5AD1     		bne	.L448
 3172 0058 0AA8     		add	r0, sp, #40
 3173 005a FFF7FEFF 		bl	dir_register
 3174 005e 0028     		cmp	r0, #0
 3175 0060 55D1     		bne	.L448
 3176 0062 0F9C     		ldr	r4, [sp, #60]
 3177 0064 1322     		movs	r2, #19
 3178 0066 04F10D00 		add	r0, r4, #13
 3179 006a 0DF14601 		add	r1, sp, #70
 3180 006e FFF7FEFF 		bl	mem_cpy
 3181 0072 9DF844C0 		ldrb	ip, [sp, #68]	@ zero_extendqisi2
 3182 0076 0399     		ldr	r1, [sp, #12]
 3183 0078 4CF02002 		orr	r2, ip, #32
 3184 007c 0120     		movs	r0, #1
 3185 007e E272     		strb	r2, [r4, #11]
 3186 0080 0871     		strb	r0, [r1, #4]
 3187 0082 0C9B     		ldr	r3, [sp, #48]
 3188 0084 059A     		ldr	r2, [sp, #20]
 3189 0086 9A42     		cmp	r2, r3
 3190 0088 36D0     		beq	.L449
 3191 008a 94F80BE0 		ldrb	lr, [r4, #11]	@ zero_extendqisi2
 3192 008e 5FEACE62 		lsls	r2, lr, #27
 3193 0092 31D5     		bpl	.L449
 3194 0094 94F815C0 		ldrb	ip, [r4, #21]	@ zero_extendqisi2
 3195 0098 E27E     		ldrb	r2, [r4, #27]	@ zero_extendqisi2
 3196 009a A07E     		ldrb	r0, [r4, #26]	@ zero_extendqisi2
 3197 009c 217D     		ldrb	r1, [r4, #20]	@ zero_extendqisi2
 3198 009e 0A9D     		ldr	r5, [sp, #40]
 3199 00a0 40EA0223 		orr	r3, r0, r2, lsl #8
 3200 00a4 41EA0C21 		orr	r1, r1, ip, lsl #8
 3201 00a8 43EA0141 		orr	r1, r3, r1, lsl #16
 3202 00ac 2846     		mov	r0, r5
 3203 00ae FFF7FEFF 		bl	clust2sect
 3204 00b2 0146     		mov	r1, r0
 3205 00b4 0028     		cmp	r0, #0
 3206 00b6 2CD0     		beq	.L455
 3207 00b8 2846     		mov	r0, r5
 3208 00ba FFF7FEFF 		bl	move_window
 3209 00be 0A9B     		ldr	r3, [sp, #40]
 3210 00c0 28BB     		cbnz	r0, .L448
 3211 00c2 93F85100 		ldrb	r0, [r3, #81]	@ zero_extendqisi2
 3212 00c6 2E28     		cmp	r0, #46
 3213 00c8 16D1     		bne	.L449
 3214 00ca 93F800E0 		ldrb	lr, [r3, #0]	@ zero_extendqisi2
 3215 00ce 0C9A     		ldr	r2, [sp, #48]
 3216 00d0 BEF1030F 		cmp	lr, #3
 3217 00d4 03D1     		bne	.L452
 3218 00d6 596A     		ldr	r1, [r3, #36]
 3219 00d8 8A42     		cmp	r2, r1
 3220 00da 08BF     		it	eq
 3221 00dc 0022     		moveq	r2, #0
 3222              	.L452:
 3223 00de 100A     		lsrs	r0, r2, #8
 3224 00e0 110C     		lsrs	r1, r2, #16
 3225 00e2 83F86A20 		strb	r2, [r3, #106]
 3226 00e6 83F86B00 		strb	r0, [r3, #107]
 3227 00ea 0122     		movs	r2, #1
 3228 00ec 080A     		lsrs	r0, r1, #8
 3229 00ee 83F86410 		strb	r1, [r3, #100]
 3230 00f2 83F86500 		strb	r0, [r3, #101]
 3231 00f6 1A71     		strb	r2, [r3, #4]
 3232              	.L449:
 3233 00f8 03A8     		add	r0, sp, #12
 3234 00fa FFF7FEFF 		bl	dir_remove
 3235 00fe 30B9     		cbnz	r0, .L448
 3236 0100 0398     		ldr	r0, [sp, #12]
 3237 0102 FFF7FEFF 		bl	sync
 3238 0106 02E0     		b	.L448
 3239              	.L453:
 3240 0108 0420     		movs	r0, #4
 3241 010a 00E0     		b	.L448
 3242              	.L454:
 3243 010c 0820     		movs	r0, #8
 3244              	.L448:
 3245 010e 1BB0     		add	sp, sp, #108
 3246 0110 30BD     		pop	{r4, r5, pc}
 3247              	.L455:
 3248 0112 0220     		movs	r0, #2
 3249 0114 FBE7     		b	.L448
 3251              		.section	.text.f_gets,"ax",%progbits
 3252              		.align	1
 3253              		.global	f_gets
 3254              		.thumb
 3255              		.thumb_func
 3257              	f_gets:
 3258              		@ args = 0, pretend = 0, frame = 8
 3259              		@ frame_needed = 0, uses_anonymous_args = 0
 3260 0000 2DE9F341 		push	{r0, r1, r4, r5, r6, r7, r8, lr}
 3261 0004 0646     		mov	r6, r0
 3262 0006 0F46     		mov	r7, r1
 3263 0008 9046     		mov	r8, r2
 3264 000a 0546     		mov	r5, r0
 3265 000c 0024     		movs	r4, #0
 3266 000e 0FE0     		b	.L458
 3267              	.L460:
 3268 0010 0122     		movs	r2, #1
 3269 0012 6B46     		mov	r3, sp
 3270 0014 4046     		mov	r0, r8
 3271 0016 01A9     		add	r1, sp, #4
 3272 0018 FFF7FEFF 		bl	f_read
 3273 001c 009B     		ldr	r3, [sp, #0]
 3274 001e 012B     		cmp	r3, #1
 3275 0020 09D1     		bne	.L459
 3276 0022 9DF80400 		ldrb	r0, [sp, #4]	@ zero_extendqisi2
 3277 0026 0134     		adds	r4, r4, #1
 3278 0028 0A28     		cmp	r0, #10
 3279 002a 05F8010B 		strb	r0, [r5], #1
 3280 002e 02D0     		beq	.L459
 3281              	.L458:
 3282 0030 791E     		subs	r1, r7, #1
 3283 0032 8C42     		cmp	r4, r1
 3284 0034 ECDB     		blt	.L460
 3285              	.L459:
 3286 0036 0022     		movs	r2, #0
 3287 0038 2A70     		strb	r2, [r5, #0]
 3288 003a 9442     		cmp	r4, r2
 3289 003c 14BF     		ite	ne
 3290 003e 3046     		movne	r0, r6
 3291 0040 1046     		moveq	r0, r2
 3292 0042 BDE8FC81 		pop	{r2, r3, r4, r5, r6, r7, r8, pc}
 3294              		.section	.text.f_putc,"ax",%progbits
 3295              		.align	1
 3296              		.global	f_putc
 3297              		.thumb
 3298              		.thumb_func
 3300              	f_putc:
 3301              		@ args = 0, pretend = 0, frame = 8
 3302              		@ frame_needed = 0, uses_anonymous_args = 0
 3303 0000 07B5     		push	{r0, r1, r2, lr}
 3304 0002 02AB     		add	r3, sp, #8
 3305 0004 0122     		movs	r2, #1
 3306 0006 03F8040D 		strb	r0, [r3, #-4]!
 3307 000a 0846     		mov	r0, r1
 3308 000c 1946     		mov	r1, r3
 3309 000e 6B46     		mov	r3, sp
 3310 0010 FFF7FEFF 		bl	f_write
 3311 0014 0098     		ldr	r0, [sp, #0]
 3312 0016 0128     		cmp	r0, #1
 3313 0018 0CBF     		ite	eq
 3314 001a 0120     		moveq	r0, #1
 3315 001c 4FF0FF30 		movne	r0, #-1
 3316 0020 0EBD     		pop	{r1, r2, r3, pc}
 3318              		.section	.text.f_puts,"ax",%progbits
 3319              		.align	1
 3320              		.global	f_puts
 3321              		.thumb
 3322              		.thumb_func
 3324              	f_puts:
 3325              		@ args = 0, pretend = 0, frame = 0
 3326              		@ frame_needed = 0, uses_anonymous_args = 0
 3327 0000 70B5     		push	{r4, r5, r6, lr}
 3328 0002 0646     		mov	r6, r0
 3329 0004 0D46     		mov	r5, r1
 3330 0006 0024     		movs	r4, #0
 3331 0008 05E0     		b	.L466
 3332              	.L468:
 3333 000a 2946     		mov	r1, r5
 3334 000c FFF7FEFF 		bl	f_putc
 3335 0010 411C     		adds	r1, r0, #1
 3336 0012 04D0     		beq	.L469
 3337 0014 0134     		adds	r4, r4, #1
 3338              	.L466:
 3339 0016 305D     		ldrb	r0, [r6, r4]	@ zero_extendqisi2
 3340 0018 0028     		cmp	r0, #0
 3341 001a F6D1     		bne	.L468
 3342 001c 00E0     		b	.L467
 3343              	.L469:
 3344 001e 0446     		mov	r4, r0
 3345              	.L467:
 3346 0020 2046     		mov	r0, r4
 3347 0022 70BD     		pop	{r4, r5, r6, pc}
 3349              		.section	.text.f_printf,"ax",%progbits
 3350              		.align	1
 3351              		.global	f_printf
 3352              		.thumb
 3353              		.thumb_func
 3355              	f_printf:
 3356              		@ args = 4, pretend = 12, frame = 32
 3357              		@ frame_needed = 0, uses_anonymous_args = 1
 3358 0000 0EB4     		push	{r1, r2, r3}
 3359 0002 2DE9F04F 		push	{r4, r5, r6, r7, r8, r9, sl, fp, lr}
 3360 0006 88B0     		sub	sp, sp, #32
 3361 0008 11AB     		add	r3, sp, #68
 3362 000a 0746     		mov	r7, r0
 3363 000c 53F8042B 		ldr	r2, [r3], #4
 3364 0010 0020     		movs	r0, #0
 3365 0012 0793     		str	r3, [sp, #28]
 3366 0014 0446     		mov	r4, r0
 3367 0016 00E0     		b	.L513
 3368              	.L520:
 3369 0018 3246     		mov	r2, r6
 3370              	.L513:
 3371 001a 1646     		mov	r6, r2
 3372 001c 16F8013B 		ldrb	r3, [r6], #1	@ zero_extendqisi2
 3373 0020 002B     		cmp	r3, #0
 3374 0022 00F00A81 		beq	.L471
 3375 0026 252B     		cmp	r3, #37
 3376 0028 0AD0     		beq	.L472
 3377 002a 1846     		mov	r0, r3
 3378 002c 3946     		mov	r1, r7
 3379 002e FFF7FEFF 		bl	f_putc
 3380 0032 B0F1FF3F 		cmp	r0, #-1
 3381 0036 0CBF     		ite	eq
 3382 0038 4FF0FF30 		moveq	r0, #-1
 3383 003c 0120     		movne	r0, #1
 3384 003e F7E0     		b	.L473
 3385              	.L472:
 3386 0040 5378     		ldrb	r3, [r2, #1]	@ zero_extendqisi2
 3387 0042 302B     		cmp	r3, #48
 3388 0044 03D1     		bne	.L474
 3389 0046 9378     		ldrb	r3, [r2, #2]	@ zero_extendqisi2
 3390 0048 D61C     		adds	r6, r2, #3
 3391 004a 0125     		movs	r5, #1
 3392 004c 07E0     		b	.L475
 3393              	.L474:
 3394 004e 2D2B     		cmp	r3, #45
 3395 0050 02D0     		beq	.L476
 3396 0052 961C     		adds	r6, r2, #2
 3397 0054 0025     		movs	r5, #0
 3398 0056 02E0     		b	.L475
 3399              	.L476:
 3400 0058 9378     		ldrb	r3, [r2, #2]	@ zero_extendqisi2
 3401 005a D61C     		adds	r6, r2, #3
 3402 005c 0225     		movs	r5, #2
 3403              	.L475:
 3404 005e 4FF0000A 		mov	sl, #0
 3405 0062 06E0     		b	.L477
 3406              	.L478:
 3407 0064 0A22     		movs	r2, #10
 3408 0066 02FB0A3A 		mla	sl, r2, sl, r3
 3409 006a 16F8013B 		ldrb	r3, [r6], #1	@ zero_extendqisi2
 3410 006e AAF1300A 		sub	sl, sl, #48
 3411              	.L477:
 3412 0072 A3F1300C 		sub	ip, r3, #48
 3413 0076 5FFA8CF1 		uxtb	r1, ip
 3414 007a 0929     		cmp	r1, #9
 3415 007c F2D9     		bls	.L478
 3416 007e 6C2B     		cmp	r3, #108
 3417 0080 01D0     		beq	.L479
 3418 0082 4C2B     		cmp	r3, #76
 3419 0084 03D1     		bne	.L480
 3420              	.L479:
 3421 0086 16F8013B 		ldrb	r3, [r6], #1	@ zero_extendqisi2
 3422 008a 45F00405 		orr	r5, r5, #4
 3423              	.L480:
 3424 008e 002B     		cmp	r3, #0
 3425 0090 00F0D380 		beq	.L471
 3426 0094 A3F16100 		sub	r0, r3, #97
 3427 0098 C2B2     		uxtb	r2, r0
 3428 009a 192A     		cmp	r2, #25
 3429 009c 9ABF     		itte	ls
 3430 009e A3F12002 		subls	r2, r3, #32
 3431 00a2 D2B2     		uxtbls	r2, r2
 3432 00a4 1A46     		movhi	r2, r3
 3433 00a6 4F2A     		cmp	r2, #79
 3434 00a8 4AD0     		beq	.L516
 3435 00aa 06D8     		bhi	.L489
 3436 00ac 432A     		cmp	r2, #67
 3437 00ae 39D0     		beq	.L484
 3438 00b0 442A     		cmp	r2, #68
 3439 00b2 09D0     		beq	.L485
 3440 00b4 422A     		cmp	r2, #66
 3441 00b6 3CD1     		bne	.L482
 3442 00b8 40E0     		b	.L528
 3443              	.L489:
 3444 00ba 552A     		cmp	r2, #85
 3445 00bc 04D0     		beq	.L485
 3446 00be 582A     		cmp	r2, #88
 3447 00c0 35D0     		beq	.L488
 3448 00c2 532A     		cmp	r2, #83
 3449 00c4 35D1     		bne	.L482
 3450 00c6 01E0     		b	.L529
 3451              	.L485:
 3452 00c8 0A20     		movs	r0, #10
 3453 00ca 3AE0     		b	.L486
 3454              	.L529:
 3455 00cc 079C     		ldr	r4, [sp, #28]
 3456 00ce 231D     		adds	r3, r4, #4
 3457 00d0 0793     		str	r3, [sp, #28]
 3458 00d2 D4F80090 		ldr	r9, [r4, #0]
 3459 00d6 4FF00008 		mov	r8, #0
 3460 00da 01E0     		b	.L490
 3461              	.L491:
 3462 00dc 08F10108 		add	r8, r8, #1
 3463              	.L490:
 3464 00e0 19F80840 		ldrb	r4, [r9, r8]	@ zero_extendqisi2
 3465 00e4 002C     		cmp	r4, #0
 3466 00e6 F9D1     		bne	.L491
 3467 00e8 05E0     		b	.L492
 3468              	.L494:
 3469 00ea 2020     		movs	r0, #32
 3470 00ec 3946     		mov	r1, r7
 3471 00ee FFF7FEFF 		bl	f_putc
 3472 00f2 D846     		mov	r8, fp
 3473 00f4 2418     		adds	r4, r4, r0
 3474              	.L492:
 3475 00f6 A807     		lsls	r0, r5, #30
 3476 00f8 04D4     		bmi	.L493
 3477 00fa D045     		cmp	r8, sl
 3478 00fc 08F1010B 		add	fp, r8, #1
 3479 0100 F3D3     		bcc	.L494
 3480 0102 D846     		mov	r8, fp
 3481              	.L493:
 3482 0104 4846     		mov	r0, r9
 3483 0106 3946     		mov	r1, r7
 3484 0108 FFF7FEFF 		bl	f_puts
 3485 010c 2418     		adds	r4, r4, r0
 3486 010e 06E0     		b	.L495
 3487              	.L496:
 3488 0110 2020     		movs	r0, #32
 3489 0112 3946     		mov	r1, r7
 3490 0114 FFF7FEFF 		bl	f_putc
 3491 0118 08F10108 		add	r8, r8, #1
 3492 011c 2418     		adds	r4, r4, r0
 3493              	.L495:
 3494 011e D045     		cmp	r8, sl
 3495 0120 F6D3     		bcc	.L496
 3496 0122 7FE0     		b	.L524
 3497              	.L484:
 3498 0124 0799     		ldr	r1, [sp, #28]
 3499 0126 0A1D     		adds	r2, r1, #4
 3500 0128 0792     		str	r2, [sp, #28]
 3501 012a 0878     		ldrb	r0, [r1, #0]	@ zero_extendqisi2
 3502 012c 02E0     		b	.L525
 3503              	.L488:
 3504 012e 1020     		movs	r0, #16
 3505 0130 07E0     		b	.L486
 3506              	.L482:
 3507 0132 1846     		mov	r0, r3
 3508              	.L525:
 3509 0134 3946     		mov	r1, r7
 3510 0136 FFF7FEFF 		bl	f_putc
 3511 013a 79E0     		b	.L473
 3512              	.L528:
 3513 013c 0220     		movs	r0, #2
 3514 013e 00E0     		b	.L486
 3515              	.L516:
 3516 0140 0820     		movs	r0, #8
 3517              	.L486:
 3518 0142 15F0040F 		tst	r5, #4
 3519 0146 0799     		ldr	r1, [sp, #28]
 3520 0148 04D0     		beq	.L497
 3521 014a 0C1D     		adds	r4, r1, #4
 3522 014c 0794     		str	r4, [sp, #28]
 3523 014e 0968     		ldr	r1, [r1, #0]
 3524 0150 442A     		cmp	r2, #68
 3525 0152 04E0     		b	.L527
 3526              	.L497:
 3527 0154 442A     		cmp	r2, #68
 3528 0156 01F10402 		add	r2, r1, #4
 3529 015a 0968     		ldr	r1, [r1, #0]
 3530 015c 0792     		str	r2, [sp, #28]
 3531              	.L527:
 3532 015e 04D1     		bne	.L499
 3533 0160 0029     		cmp	r1, #0
 3534 0162 02DA     		bge	.L499
 3535 0164 4942     		negs	r1, r1
 3536 0166 45F00805 		orr	r5, r5, #8
 3537              	.L499:
 3538 016a 0022     		movs	r2, #0
 3539 016c 00E0     		b	.L504
 3540              	.L518:
 3541 016e 4246     		mov	r2, r8
 3542              	.L504:
 3543 0170 B1FBF0FE 		udiv	lr, r1, r0
 3544 0174 00FB1E18 		mls	r8, r0, lr, r1
 3545 0178 5FFA88F4 		uxtb	r4, r8
 3546 017c 092C     		cmp	r4, #9
 3547 017e 7146     		mov	r1, lr
 3548 0180 09D9     		bls	.L501
 3549 0182 782B     		cmp	r3, #120
 3550 0184 14BF     		ite	ne
 3551 0186 4FF0070C 		movne	ip, #7
 3552 018a 4FF0270C 		moveq	ip, #39
 3553 018e 0CEB0409 		add	r9, ip, r4
 3554 0192 5FFA89F4 		uxtb	r4, r9
 3555              	.L501:
 3556 0196 0DF10C08 		add	r8, sp, #12
 3557 019a 3034     		adds	r4, r4, #48
 3558 019c 02F80840 		strb	r4, [r2, r8]
 3559 01a0 02F10108 		add	r8, r2, #1
 3560 01a4 BEF1000F 		cmp	lr, #0
 3561 01a8 03D0     		beq	.L503
 3562 01aa B8F1100F 		cmp	r8, #16
 3563 01ae DED1     		bne	.L518
 3564 01b0 0F22     		movs	r2, #15
 3565              	.L503:
 3566 01b2 2907     		lsls	r1, r5, #28
 3567 01b4 08D5     		bpl	.L505
 3568 01b6 0DF1200E 		add	lr, sp, #32
 3569 01ba 0EEB0803 		add	r3, lr, r8
 3570 01be 2D20     		movs	r0, #45
 3571 01c0 03F8140C 		strb	r0, [r3, #-20]
 3572 01c4 02F10208 		add	r8, r2, #2
 3573              	.L505:
 3574 01c8 05F00101 		and	r1, r5, #1
 3575 01cc 0029     		cmp	r1, #0
 3576 01ce 0CBF     		ite	eq
 3577 01d0 2023     		moveq	r3, #32
 3578 01d2 3023     		movne	r3, #48
 3579 01d4 C146     		mov	r9, r8
 3580 01d6 0024     		movs	r4, #0
 3581 01d8 07E0     		b	.L507
 3582              	.L509:
 3583 01da 1846     		mov	r0, r3
 3584 01dc 3946     		mov	r1, r7
 3585 01de 0193     		str	r3, [sp, #4]
 3586 01e0 FFF7FEFF 		bl	f_putc
 3587 01e4 019B     		ldr	r3, [sp, #4]
 3588 01e6 2418     		adds	r4, r4, r0
 3589 01e8 D946     		mov	r9, fp
 3590              	.L507:
 3591 01ea AA07     		lsls	r2, r5, #30
 3592 01ec 04D4     		bmi	.L521
 3593 01ee D145     		cmp	r9, sl
 3594 01f0 09F1010B 		add	fp, r9, #1
 3595 01f4 F1D3     		bcc	.L509
 3596 01f6 D946     		mov	r9, fp
 3597              	.L521:
 3598 01f8 03AA     		add	r2, sp, #12
 3599 01fa 08F1FF38 		add	r8, r8, #-1
 3600 01fe 3946     		mov	r1, r7
 3601 0200 12F80800 		ldrb	r0, [r2, r8]	@ zero_extendqisi2
 3602 0204 FFF7FEFF 		bl	f_putc
 3603 0208 2418     		adds	r4, r4, r0
 3604 020a B8F1000F 		cmp	r8, #0
 3605 020e F3D1     		bne	.L521
 3606 0210 06E0     		b	.L523
 3607              	.L512:
 3608 0212 2020     		movs	r0, #32
 3609 0214 3946     		mov	r1, r7
 3610 0216 FFF7FEFF 		bl	f_putc
 3611 021a 09F10109 		add	r9, r9, #1
 3612 021e 2418     		adds	r4, r4, r0
 3613              	.L523:
 3614 0220 D145     		cmp	r9, sl
 3615 0222 F6D3     		bcc	.L512
 3616              	.L524:
 3617 0224 B0F1FF3F 		cmp	r0, #-1
 3618 0228 14BF     		ite	ne
 3619 022a 2046     		movne	r0, r4
 3620 022c 4FF0FF30 		moveq	r0, #-1
 3621              	.L473:
 3622 0230 431C     		adds	r3, r0, #1
 3623 0232 0444     		add	r4, r4, r0
 3624 0234 7FF4F0AE 		bne	.L520
 3625 0238 05E0     		b	.L514
 3626              	.L471:
 3627 023a B0F1FF3F 		cmp	r0, #-1
 3628 023e 14BF     		ite	ne
 3629 0240 2046     		movne	r0, r4
 3630 0242 4FF0FF30 		moveq	r0, #-1
 3631              	.L514:
 3632 0246 08B0     		add	sp, sp, #32
 3633 0248 BDE8F04F 		pop	{r4, r5, r6, r7, r8, r9, sl, fp, lr}
 3634 024c 03B0     		add	sp, sp, #12
 3635 024e 7047     		bx	lr
 3637              		.section	.rodata.excvt.4279,"a",%progbits
 3638              		.set	.LANCHOR2,. + 0
 3641              	excvt.4279:
 3642 0000 80       		.byte	-128
 3643 0001 81       		.byte	-127
 3644 0002 82       		.byte	-126
 3645 0003 83       		.byte	-125
 3646 0004 84       		.byte	-124
 3647 0005 85       		.byte	-123
 3648 0006 86       		.byte	-122
 3649 0007 87       		.byte	-121
 3650 0008 88       		.byte	-120
 3651 0009 89       		.byte	-119
 3652 000a 8A       		.byte	-118
 3653 000b 8B       		.byte	-117
 3654 000c 8C       		.byte	-116
 3655 000d 8D       		.byte	-115
 3656 000e 8E       		.byte	-114
 3657 000f 8F       		.byte	-113
 3658 0010 90       		.byte	-112
 3659 0011 91       		.byte	-111
 3660 0012 92       		.byte	-110
 3661 0013 93       		.byte	-109
 3662 0014 94       		.byte	-108
 3663 0015 95       		.byte	-107
 3664 0016 96       		.byte	-106
 3665 0017 97       		.byte	-105
 3666 0018 98       		.byte	-104
 3667 0019 99       		.byte	-103
 3668 001a 8A       		.byte	-118
 3669 001b 9B       		.byte	-101
 3670 001c 8C       		.byte	-116
 3671 001d 8D       		.byte	-115
 3672 001e 8E       		.byte	-114
 3673 001f 8F       		.byte	-113
 3674 0020 A0       		.byte	-96
 3675 0021 A1       		.byte	-95
 3676 0022 A2       		.byte	-94
 3677 0023 A3       		.byte	-93
 3678 0024 A4       		.byte	-92
 3679 0025 A5       		.byte	-91
 3680 0026 A6       		.byte	-90
 3681 0027 A7       		.byte	-89
 3682 0028 A8       		.byte	-88
 3683 0029 A9       		.byte	-87
 3684 002a AA       		.byte	-86
 3685 002b AB       		.byte	-85
 3686 002c AC       		.byte	-84
 3687 002d AD       		.byte	-83
 3688 002e AE       		.byte	-82
 3689 002f AF       		.byte	-81
 3690 0030 B0       		.byte	-80
 3691 0031 B1       		.byte	-79
 3692 0032 B2       		.byte	-78
 3693 0033 A3       		.byte	-93
 3694 0034 B4       		.byte	-76
 3695 0035 B5       		.byte	-75
 3696 0036 B6       		.byte	-74
 3697 0037 B7       		.byte	-73
 3698 0038 B8       		.byte	-72
 3699 0039 A5       		.byte	-91
 3700 003a AA       		.byte	-86
 3701 003b BB       		.byte	-69
 3702 003c BC       		.byte	-68
 3703 003d BD       		.byte	-67
 3704 003e BC       		.byte	-68
 3705 003f AF       		.byte	-81
 3706 0040 C0       		.byte	-64
 3707 0041 C1       		.byte	-63
 3708 0042 C2       		.byte	-62
 3709 0043 C3       		.byte	-61
 3710 0044 C4       		.byte	-60
 3711 0045 C5       		.byte	-59
 3712 0046 C6       		.byte	-58
 3713 0047 C7       		.byte	-57
 3714 0048 C8       		.byte	-56
 3715 0049 C9       		.byte	-55
 3716 004a CA       		.byte	-54
 3717 004b CB       		.byte	-53
 3718 004c CC       		.byte	-52
 3719 004d CD       		.byte	-51
 3720 004e CE       		.byte	-50
 3721 004f CF       		.byte	-49
 3722 0050 D0       		.byte	-48
 3723 0051 D1       		.byte	-47
 3724 0052 D2       		.byte	-46
 3725 0053 D3       		.byte	-45
 3726 0054 D4       		.byte	-44
 3727 0055 D5       		.byte	-43
 3728 0056 D6       		.byte	-42
 3729 0057 D7       		.byte	-41
 3730 0058 D8       		.byte	-40
 3731 0059 D9       		.byte	-39
 3732 005a DA       		.byte	-38
 3733 005b DB       		.byte	-37
 3734 005c DC       		.byte	-36
 3735 005d DD       		.byte	-35
 3736 005e DE       		.byte	-34
 3737 005f DF       		.byte	-33
 3738 0060 C0       		.byte	-64
 3739 0061 C1       		.byte	-63
 3740 0062 C2       		.byte	-62
 3741 0063 C3       		.byte	-61
 3742 0064 C4       		.byte	-60
 3743 0065 C5       		.byte	-59
 3744 0066 C6       		.byte	-58
 3745 0067 C7       		.byte	-57
 3746 0068 C8       		.byte	-56
 3747 0069 C9       		.byte	-55
 3748 006a CA       		.byte	-54
 3749 006b CB       		.byte	-53
 3750 006c CC       		.byte	-52
 3751 006d CD       		.byte	-51
 3752 006e CE       		.byte	-50
 3753 006f CF       		.byte	-49
 3754 0070 D0       		.byte	-48
 3755 0071 D1       		.byte	-47
 3756 0072 D2       		.byte	-46
 3757 0073 D3       		.byte	-45
 3758 0074 D4       		.byte	-44
 3759 0075 D5       		.byte	-43
 3760 0076 D6       		.byte	-42
 3761 0077 F7       		.byte	-9
 3762 0078 D8       		.byte	-40
 3763 0079 D9       		.byte	-39
 3764 007a DA       		.byte	-38
 3765 007b DB       		.byte	-37
 3766 007c DC       		.byte	-36
 3767 007d DD       		.byte	-35
 3768 007e DE       		.byte	-34
 3769 007f FF       		.byte	-1
 3770              		.section	.rodata.str1.1,"aMS",%progbits,1
 3771              	.LC0:
 3772 0000 222A2B2C 		.ascii	"\"*+,:;<=>?[]|\177\000"
 3772      3A3B3C3D 
 3772      3E3F5B5D 
 3772      7C7F00
 3773              		.section	.bss.Fsid,"aw",%nobits
 3774              		.align	1
 3775              		.set	.LANCHOR1,. + 0
 3778              	Fsid:
 3779 0000 0000     		.space	2
 3780              		.section	.bss.FatFs,"aw",%nobits
 3781              		.align	2
 3782              		.set	.LANCHOR0,. + 0
 3785              	FatFs:
 3786 0000 00000000 		.space	4
 3787              		.ident	"GCC: (Sourcery CodeBench Lite 2012.03-56) 4.6.3"