   1              		.syntax unified
   2              		.cpu cortex-m4
   3              		.eabi_attribute 27, 3
   4              		.fpu fpv4-sp-d16
   5              		.eabi_attribute 20, 1
   6              		.eabi_attribute 21, 1
   7              		.eabi_attribute 23, 3
   8              		.eabi_attribute 24, 1
   9              		.eabi_attribute 25, 1
  10              		.eabi_attribute 26, 1
  11              		.eabi_attribute 30, 4
  12              		.eabi_attribute 34, 1
  13              		.eabi_attribute 18, 4
  14              		.thumb
  15              		.file	"spi_lld.c"
  16              		.section	.text.spi_lld_serve_tx_interrupt,"ax",%progbits
  17              		.align	1
  18              		.thumb
  19              		.thumb_func
  21              	spi_lld_serve_tx_interrupt:
  22              		@ args = 0, pretend = 0, frame = 0
  23              		@ frame_needed = 0, uses_anonymous_args = 0
  24              		@ link register save eliminated.
  25 0000 11F00C0F 		tst	r1, #12
  26 0004 01D0     		beq	.L1
  27 0006 FFF7FEBF 		b	port_halt
  28              	.L1:
  29 000a 7047     		bx	lr
  31              		.section	.text.spi_lld_serve_rx_interrupt,"ax",%progbits
  32              		.align	1
  33              		.thumb
  34              		.thumb_func
  36              	spi_lld_serve_rx_interrupt:
  37              		@ args = 0, pretend = 0, frame = 0
  38              		@ frame_needed = 0, uses_anonymous_args = 0
  39 0000 11F00C0F 		tst	r1, #12
  40 0004 38B5     		push	{r3, r4, r5, lr}
  41 0006 0446     		mov	r4, r0
  42 0008 01D0     		beq	.L4
  43 000a FFF7FEFF 		bl	port_halt
  44              	.L4:
  45 000e 636A     		ldr	r3, [r4, #36]
  46 0010 1A68     		ldr	r2, [r3, #0]
  47 0012 1068     		ldr	r0, [r2, #0]
  48 0014 20F00101 		bic	r1, r0, #1
  49 0018 1160     		str	r1, [r2, #0]
  50              	.L5:
  51 001a 1168     		ldr	r1, [r2, #0]
  52 001c C807     		lsls	r0, r1, #31
  53 001e FCD4     		bmi	.L5
  54 0020 187A     		ldrb	r0, [r3, #8]	@ zero_extendqisi2
  55 0022 5A68     		ldr	r2, [r3, #4]
  56 0024 3D21     		movs	r1, #61
  57 0026 01FA00F3 		lsl	r3, r1, r0
  58 002a 1360     		str	r3, [r2, #0]
  59 002c 236A     		ldr	r3, [r4, #32]
  60 002e 1A68     		ldr	r2, [r3, #0]
  61 0030 1168     		ldr	r1, [r2, #0]
  62 0032 21F00100 		bic	r0, r1, #1
  63 0036 1060     		str	r0, [r2, #0]
  64              	.L6:
  65 0038 1068     		ldr	r0, [r2, #0]
  66 003a C107     		lsls	r1, r0, #31
  67 003c FCD4     		bmi	.L6
  68 003e 1A7A     		ldrb	r2, [r3, #8]	@ zero_extendqisi2
  69 0040 5868     		ldr	r0, [r3, #4]
  70 0042 3D21     		movs	r1, #61
  71 0044 01FA02F3 		lsl	r3, r1, r2
  72 0048 6268     		ldr	r2, [r4, #4]
  73 004a 0360     		str	r3, [r0, #0]
  74 004c 1368     		ldr	r3, [r2, #0]
  75 004e 33B1     		cbz	r3, .L7
  76 0050 0422     		movs	r2, #4
  77 0052 2046     		mov	r0, r4
  78 0054 2270     		strb	r2, [r4, #0]
  79 0056 9847     		blx	r3
  80 0058 2078     		ldrb	r0, [r4, #0]	@ zero_extendqisi2
  81 005a 0428     		cmp	r0, #4
  82 005c 01D1     		bne	.L8
  83              	.L7:
  84 005e 0223     		movs	r3, #2
  85 0060 2370     		strb	r3, [r4, #0]
  86              	.L8:
  87 0062 A068     		ldr	r0, [r4, #8]
  88 0064 48B1     		cbz	r0, .L3
  89 0066 0025     		movs	r5, #0
  90 0068 A560     		str	r5, [r4, #8]
  91 006a 2023     		movs	r3, #32
  92              	@ 122 "../src/ChibiOS_2.4.0/os/hal/platforms/STM32/spi_lld.c" 1
  93 006c 83F31188 		msr     BASEPRI, r3
  94              	@ 0 "" 2
  95              		.thumb
  96 0070 FFF7FEFF 		bl	chSchReadyI
  97 0074 2B46     		mov	r3, r5
  98              	@ 122 "../src/ChibiOS_2.4.0/os/hal/platforms/STM32/spi_lld.c" 1
  99 0076 83F31188 		msr     BASEPRI, r3
 100              	@ 0 "" 2
 101              		.thumb
 102              	.L3:
 103 007a 38BD     		pop	{r3, r4, r5, pc}
 105              		.section	.text.spi_lld_init,"ax",%progbits
 106              		.align	1
 107              		.global	spi_lld_init
 108              		.thumb
 109              		.thumb_func
 111              	spi_lld_init:
 112              		@ args = 0, pretend = 0, frame = 0
 113              		@ frame_needed = 0, uses_anonymous_args = 0
 114 0000 114A     		ldr	r2, .L13
 115 0002 1248     		ldr	r0, .L13+4
 116 0004 4FF0FF31 		mov	r1, #-1	@ movhi
 117 0008 10B5     		push	{r4, lr}
 118 000a 1180     		strh	r1, [r2, #0]	@ movhi
 119 000c FFF7FEFF 		bl	spiObjectInit
 120 0010 0F4C     		ldr	r4, .L13+8
 121 0012 0E4B     		ldr	r3, .L13+4
 122 0014 0F4A     		ldr	r2, .L13+12
 123 0016 DC61     		str	r4, [r3, #28]
 124 0018 0F4C     		ldr	r4, .L13+16
 125 001a 9A62     		str	r2, [r3, #40]
 126 001c 04F12400 		add	r0, r4, #36
 127 0020 3032     		adds	r2, r2, #48
 128 0022 1C62     		str	r4, [r3, #32]
 129 0024 5862     		str	r0, [r3, #36]
 130 0026 DA62     		str	r2, [r3, #44]
 131 0028 0C48     		ldr	r0, .L13+20
 132 002a FFF7FEFF 		bl	spiObjectInit
 133 002e 0B4B     		ldr	r3, .L13+20
 134 0030 0B4A     		ldr	r2, .L13+24
 135 0032 0C49     		ldr	r1, .L13+28
 136 0034 9A62     		str	r2, [r3, #40]
 137 0036 A4F16000 		sub	r0, r4, #96
 138 003a 3032     		adds	r2, r2, #48
 139 003c 0C3C     		subs	r4, r4, #12
 140 003e D961     		str	r1, [r3, #28]
 141 0040 1862     		str	r0, [r3, #32]
 142 0042 5C62     		str	r4, [r3, #36]
 143 0044 DA62     		str	r2, [r3, #44]
 144 0046 10BD     		pop	{r4, pc}
 145              	.L14:
 146              		.align	2
 147              	.L13:
 148 0048 00000000 		.word	.LANCHOR0
 149 004c 00000000 		.word	SPID1
 150 0050 00300140 		.word	1073819648
 151 0054 16000106 		.word	100728854
 152 0058 60000000 		.word	_stm32_dma_streams+96
 153 005c 00000000 		.word	SPID3
 154 0060 16000100 		.word	65558
 155 0064 003C0040 		.word	1073757184
 157              		.section	.text.spi_lld_start,"ax",%progbits
 158              		.align	1
 159              		.global	spi_lld_start
 160              		.thumb
 161              		.thumb_func
 163              	spi_lld_start:
 164              		@ args = 0, pretend = 0, frame = 0
 165              		@ frame_needed = 0, uses_anonymous_args = 0
 166 0000 0378     		ldrb	r3, [r0, #0]	@ zero_extendqisi2
 167 0002 012B     		cmp	r3, #1
 168 0004 10B5     		push	{r4, lr}
 169 0006 0446     		mov	r4, r0
 170 0008 30D1     		bne	.L16
 171 000a 2C49     		ldr	r1, .L22
 172 000c 8842     		cmp	r0, r1
 173 000e 11D1     		bne	.L17
 174 0010 0A21     		movs	r1, #10
 175 0012 2B4A     		ldr	r2, .L22+4
 176 0014 006A     		ldr	r0, [r0, #32]
 177 0016 2346     		mov	r3, r4
 178 0018 FFF7FEFF 		bl	dmaStreamAllocate
 179 001c 294A     		ldr	r2, .L22+8
 180 001e 606A     		ldr	r0, [r4, #36]
 181 0020 2346     		mov	r3, r4
 182 0022 0A21     		movs	r1, #10
 183 0024 FFF7FEFF 		bl	dmaStreamAllocate
 184 0028 2748     		ldr	r0, .L22+12
 185 002a 436C     		ldr	r3, [r0, #68]
 186 002c 43F48052 		orr	r2, r3, #4096
 187 0030 4264     		str	r2, [r0, #68]
 188 0032 13E0     		b	.L18
 189              	.L17:
 190 0034 2549     		ldr	r1, .L22+16
 191 0036 8842     		cmp	r0, r1
 192 0038 10D1     		bne	.L18
 193 003a 0A21     		movs	r1, #10
 194 003c 204A     		ldr	r2, .L22+4
 195 003e 006A     		ldr	r0, [r0, #32]
 196 0040 2346     		mov	r3, r4
 197 0042 FFF7FEFF 		bl	dmaStreamAllocate
 198 0046 1F4A     		ldr	r2, .L22+8
 199 0048 606A     		ldr	r0, [r4, #36]
 200 004a 2346     		mov	r3, r4
 201 004c 0A21     		movs	r1, #10
 202 004e FFF7FEFF 		bl	dmaStreamAllocate
 203 0052 1D48     		ldr	r0, .L22+12
 204 0054 036C     		ldr	r3, [r0, #64]
 205 0056 43F40042 		orr	r2, r3, #32768
 206 005a 0264     		str	r2, [r0, #64]
 207              	.L18:
 208 005c 04F11C00 		add	r0, r4, #28
 209 0060 07C8     		ldmia	r0, {r0, r1, r2}
 210 0062 0B68     		ldr	r3, [r1, #0]
 211 0064 1168     		ldr	r1, [r2, #0]
 212 0066 0C30     		adds	r0, r0, #12
 213 0068 9860     		str	r0, [r3, #8]
 214 006a 8860     		str	r0, [r1, #8]
 215              	.L16:
 216 006c 6068     		ldr	r0, [r4, #4]
 217 006e A36A     		ldr	r3, [r4, #40]
 218 0070 4289     		ldrh	r2, [r0, #10]
 219 0072 1105     		lsls	r1, r2, #20
 220 0074 06D4     		bmi	.L19
 221 0076 23F4C041 		bic	r1, r3, #24576
 222 007a E36A     		ldr	r3, [r4, #44]
 223 007c A162     		str	r1, [r4, #40]
 224 007e 23F4C043 		bic	r3, r3, #24576
 225 0082 09E0     		b	.L21
 226              	.L19:
 227 0084 23F4D040 		bic	r0, r3, #26624
 228 0088 E36A     		ldr	r3, [r4, #44]
 229 008a 40F42051 		orr	r1, r0, #10240
 230 008e 23F4D040 		bic	r0, r3, #26624
 231 0092 A162     		str	r1, [r4, #40]
 232 0094 40F42053 		orr	r3, r0, #10240
 233              	.L21:
 234 0098 E362     		str	r3, [r4, #44]
 235 009a E369     		ldr	r3, [r4, #28]
 236 009c 42F4417C 		orr	ip, r2, #772
 237 00a0 0021     		movs	r1, #0
 238 00a2 0720     		movs	r0, #7
 239 00a4 1980     		strh	r1, [r3, #0]	@ movhi
 240 00a6 A3F800C0 		strh	ip, [r3, #0]	@ movhi
 241 00aa 9880     		strh	r0, [r3, #4]	@ movhi
 242 00ac 1988     		ldrh	r1, [r3, #0]
 243 00ae 8AB2     		uxth	r2, r1
 244 00b0 42F0400C 		orr	ip, r2, #64
 245 00b4 A3F800C0 		strh	ip, [r3, #0]	@ movhi
 246 00b8 10BD     		pop	{r4, pc}
 247              	.L23:
 248 00ba 00BF     		.align	2
 249              	.L22:
 250 00bc 00000000 		.word	SPID1
 251 00c0 00000000 		.word	spi_lld_serve_rx_interrupt
 252 00c4 00000000 		.word	spi_lld_serve_tx_interrupt
 253 00c8 00380240 		.word	1073887232
 254 00cc 00000000 		.word	SPID3
 256              		.section	.text.spi_lld_stop,"ax",%progbits
 257              		.align	1
 258              		.global	spi_lld_stop
 259              		.thumb
 260              		.thumb_func
 262              	spi_lld_stop:
 263              		@ args = 0, pretend = 0, frame = 0
 264              		@ frame_needed = 0, uses_anonymous_args = 0
 265 0000 0378     		ldrb	r3, [r0, #0]	@ zero_extendqisi2
 266 0002 022B     		cmp	r3, #2
 267 0004 10B5     		push	{r4, lr}
 268 0006 0446     		mov	r4, r0
 269 0008 19D1     		bne	.L24
 270 000a C169     		ldr	r1, [r0, #28]
 271 000c 006A     		ldr	r0, [r0, #32]
 272 000e 0022     		movs	r2, #0
 273 0010 0A80     		strh	r2, [r1, #0]	@ movhi
 274 0012 FFF7FEFF 		bl	dmaStreamRelease
 275 0016 606A     		ldr	r0, [r4, #36]
 276 0018 FFF7FEFF 		bl	dmaStreamRelease
 277 001c 0848     		ldr	r0, .L27
 278 001e 8442     		cmp	r4, r0
 279 0020 05D1     		bne	.L26
 280 0022 084B     		ldr	r3, .L27+4
 281 0024 5A6C     		ldr	r2, [r3, #68]
 282 0026 22F48050 		bic	r0, r2, #4096
 283 002a 5864     		str	r0, [r3, #68]
 284 002c 10BD     		pop	{r4, pc}
 285              	.L26:
 286 002e 0649     		ldr	r1, .L27+8
 287 0030 8C42     		cmp	r4, r1
 288 0032 04D1     		bne	.L24
 289 0034 034B     		ldr	r3, .L27+4
 290 0036 1A6C     		ldr	r2, [r3, #64]
 291 0038 22F40040 		bic	r0, r2, #32768
 292 003c 1864     		str	r0, [r3, #64]
 293              	.L24:
 294 003e 10BD     		pop	{r4, pc}
 295              	.L28:
 296              		.align	2
 297              	.L27:
 298 0040 00000000 		.word	SPID1
 299 0044 00380240 		.word	1073887232
 300 0048 00000000 		.word	SPID3
 302              		.section	.text.spi_lld_select,"ax",%progbits
 303              		.align	1
 304              		.global	spi_lld_select
 305              		.thumb
 306              		.thumb_func
 308              	spi_lld_select:
 309              		@ args = 0, pretend = 0, frame = 0
 310              		@ frame_needed = 0, uses_anonymous_args = 0
 311              		@ link register save eliminated.
 312 0000 4368     		ldr	r3, [r0, #4]
 313 0002 1889     		ldrh	r0, [r3, #8]
 314 0004 5A68     		ldr	r2, [r3, #4]
 315 0006 0121     		movs	r1, #1
 316 0008 01FA00F3 		lsl	r3, r1, r0
 317 000c 5383     		strh	r3, [r2, #26]	@ movhi
 318 000e 7047     		bx	lr
 320              		.section	.text.spi_lld_unselect,"ax",%progbits
 321              		.align	1
 322              		.global	spi_lld_unselect
 323              		.thumb
 324              		.thumb_func
 326              	spi_lld_unselect:
 327              		@ args = 0, pretend = 0, frame = 0
 328              		@ frame_needed = 0, uses_anonymous_args = 0
 329              		@ link register save eliminated.
 330 0000 4368     		ldr	r3, [r0, #4]
 331 0002 1889     		ldrh	r0, [r3, #8]
 332 0004 5A68     		ldr	r2, [r3, #4]
 333 0006 0121     		movs	r1, #1
 334 0008 01FA00F3 		lsl	r3, r1, r0
 335 000c 1383     		strh	r3, [r2, #24]	@ movhi
 336 000e 7047     		bx	lr
 338              		.section	.text.spi_lld_ignore,"ax",%progbits
 339              		.align	1
 340              		.global	spi_lld_ignore
 341              		.thumb
 342              		.thumb_func
 344              	spi_lld_ignore:
 345              		@ args = 0, pretend = 0, frame = 0
 346              		@ frame_needed = 0, uses_anonymous_args = 0
 347              		@ link register save eliminated.
 348 0000 036A     		ldr	r3, [r0, #32]
 349 0002 094A     		ldr	r2, .L32
 350 0004 1B68     		ldr	r3, [r3, #0]
 351 0006 DA60     		str	r2, [r3, #12]
 352 0008 826A     		ldr	r2, [r0, #40]
 353 000a 5960     		str	r1, [r3, #4]
 354 000c 42F00102 		orr	r2, r2, #1
 355 0010 1A60     		str	r2, [r3, #0]
 356 0012 436A     		ldr	r3, [r0, #36]
 357 0014 054A     		ldr	r2, .L32+4
 358 0016 1B68     		ldr	r3, [r3, #0]
 359 0018 C06A     		ldr	r0, [r0, #44]
 360 001a DA60     		str	r2, [r3, #12]
 361 001c 40F00102 		orr	r2, r0, #1
 362 0020 5960     		str	r1, [r3, #4]
 363 0022 1A60     		str	r2, [r3, #0]
 364 0024 7047     		bx	lr
 365              	.L33:
 366 0026 00BF     		.align	2
 367              	.L32:
 368 0028 00000000 		.word	.LANCHOR1
 369 002c 00000000 		.word	.LANCHOR0
 371              		.section	.text.spi_lld_exchange,"ax",%progbits
 372              		.align	1
 373              		.global	spi_lld_exchange
 374              		.thumb
 375              		.thumb_func
 377              	spi_lld_exchange:
 378              		@ args = 0, pretend = 0, frame = 0
 379              		@ frame_needed = 0, uses_anonymous_args = 0
 380 0000 10B5     		push	{r4, lr}
 381 0002 046A     		ldr	r4, [r0, #32]
 382 0004 2468     		ldr	r4, [r4, #0]
 383 0006 E360     		str	r3, [r4, #12]
 384 0008 836A     		ldr	r3, [r0, #40]
 385 000a 6160     		str	r1, [r4, #4]
 386 000c 43F4806C 		orr	ip, r3, #1024
 387 0010 4CF00103 		orr	r3, ip, #1
 388 0014 2360     		str	r3, [r4, #0]
 389 0016 436A     		ldr	r3, [r0, #36]
 390 0018 1B68     		ldr	r3, [r3, #0]
 391 001a DA60     		str	r2, [r3, #12]
 392 001c 5960     		str	r1, [r3, #4]
 393 001e C16A     		ldr	r1, [r0, #44]
 394 0020 41F48060 		orr	r0, r1, #1024
 395 0024 40F00102 		orr	r2, r0, #1
 396 0028 1A60     		str	r2, [r3, #0]
 397 002a 10BD     		pop	{r4, pc}
 399              		.section	.text.spi_lld_send,"ax",%progbits
 400              		.align	1
 401              		.global	spi_lld_send
 402              		.thumb
 403              		.thumb_func
 405              	spi_lld_send:
 406              		@ args = 0, pretend = 0, frame = 0
 407              		@ frame_needed = 0, uses_anonymous_args = 0
 408 0000 036A     		ldr	r3, [r0, #32]
 409 0002 10B5     		push	{r4, lr}
 410 0004 1B68     		ldr	r3, [r3, #0]
 411 0006 094C     		ldr	r4, .L36
 412 0008 DC60     		str	r4, [r3, #12]
 413 000a 846A     		ldr	r4, [r0, #40]
 414 000c 5960     		str	r1, [r3, #4]
 415 000e 44F00104 		orr	r4, r4, #1
 416 0012 1C60     		str	r4, [r3, #0]
 417 0014 436A     		ldr	r3, [r0, #36]
 418 0016 1B68     		ldr	r3, [r3, #0]
 419 0018 DA60     		str	r2, [r3, #12]
 420 001a 5960     		str	r1, [r3, #4]
 421 001c C16A     		ldr	r1, [r0, #44]
 422 001e 41F48060 		orr	r0, r1, #1024
 423 0022 40F00102 		orr	r2, r0, #1
 424 0026 1A60     		str	r2, [r3, #0]
 425 0028 10BD     		pop	{r4, pc}
 426              	.L37:
 427 002a 00BF     		.align	2
 428              	.L36:
 429 002c 00000000 		.word	.LANCHOR1
 431              		.section	.text.spi_lld_receive,"ax",%progbits
 432              		.align	1
 433              		.global	spi_lld_receive
 434              		.thumb
 435              		.thumb_func
 437              	spi_lld_receive:
 438              		@ args = 0, pretend = 0, frame = 0
 439              		@ frame_needed = 0, uses_anonymous_args = 0
 440              		@ link register save eliminated.
 441 0000 036A     		ldr	r3, [r0, #32]
 442 0002 1B68     		ldr	r3, [r3, #0]
 443 0004 DA60     		str	r2, [r3, #12]
 444 0006 826A     		ldr	r2, [r0, #40]
 445 0008 5960     		str	r1, [r3, #4]
 446 000a 42F4806C 		orr	ip, r2, #1024
 447 000e 4CF00102 		orr	r2, ip, #1
 448 0012 1A60     		str	r2, [r3, #0]
 449 0014 436A     		ldr	r3, [r0, #36]
 450 0016 044A     		ldr	r2, .L39
 451 0018 1B68     		ldr	r3, [r3, #0]
 452 001a C06A     		ldr	r0, [r0, #44]
 453 001c DA60     		str	r2, [r3, #12]
 454 001e 40F00102 		orr	r2, r0, #1
 455 0022 5960     		str	r1, [r3, #4]
 456 0024 1A60     		str	r2, [r3, #0]
 457 0026 7047     		bx	lr
 458              	.L40:
 459              		.align	2
 460              	.L39:
 461 0028 00000000 		.word	.LANCHOR0
 463              		.section	.text.spi_lld_polled_exchange,"ax",%progbits
 464              		.align	1
 465              		.global	spi_lld_polled_exchange
 466              		.thumb
 467              		.thumb_func
 469              	spi_lld_polled_exchange:
 470              		@ args = 0, pretend = 0, frame = 0
 471              		@ frame_needed = 0, uses_anonymous_args = 0
 472              		@ link register save eliminated.
 473 0000 C369     		ldr	r3, [r0, #28]
 474 0002 9981     		strh	r1, [r3, #12]	@ movhi
 475              	.L42:
 476 0004 1A89     		ldrh	r2, [r3, #8]
 477 0006 D007     		lsls	r0, r2, #31
 478 0008 FCD5     		bpl	.L42
 479 000a 9889     		ldrh	r0, [r3, #12]
 480 000c 80B2     		uxth	r0, r0
 481 000e 7047     		bx	lr
 483              		.comm	SPID3,48,4
 484              		.comm	SPID1,48,4
 485              		.section	.bss.dummytx,"aw",%nobits
 486              		.align	1
 487              		.set	.LANCHOR0,. + 0
 490              	dummytx:
 491 0000 0000     		.space	2
 492              		.section	.bss.dummyrx,"aw",%nobits
 493              		.align	1
 494              		.set	.LANCHOR1,. + 0
 497              	dummyrx:
 498 0000 0000     		.space	2
 499              		.ident	"GCC: (Sourcery CodeBench Lite 2012.03-56) 4.6.3"