   1              		.syntax unified
   2              		.cpu cortex-m4
   3              		.eabi_attribute 27, 3
   4              		.fpu fpv4-sp-d16
   5              		.eabi_attribute 20, 1
   6              		.eabi_attribute 21, 1
   7              		.eabi_attribute 23, 3
   8              		.eabi_attribute 24, 1
   9              		.eabi_attribute 25, 1
  10              		.eabi_attribute 26, 1
  11              		.eabi_attribute 30, 4
  12              		.eabi_attribute 34, 1
  13              		.eabi_attribute 18, 4
  14              		.thumb
  15              		.file	"chevents.c"
  16              		.section	.text.chEvtRegisterMask,"ax",%progbits
  17              		.align	1
  18              		.global	chEvtRegisterMask
  19              		.thumb
  20              		.thumb_func
  22              	chEvtRegisterMask:
  23              		@ args = 0, pretend = 0, frame = 0
  24              		@ frame_needed = 0, uses_anonymous_args = 0
  25              		@ link register save eliminated.
  26 0000 2023     		movs	r3, #32
  27              	@ 86 "../src/ChibiOS_2.4.0/os/kernel/src/chevents.c" 1
  28 0002 83F31188 		msr     BASEPRI, r3
  29              	@ 0 "" 2
  30              		.thumb
  31 0006 0368     		ldr	r3, [r0, #0]
  32 0008 0B60     		str	r3, [r1, #0]
  33 000a 0160     		str	r1, [r0, #0]
  34 000c 0348     		ldr	r0, .L2
  35 000e C369     		ldr	r3, [r0, #28]
  36 0010 8A60     		str	r2, [r1, #8]
  37 0012 4B60     		str	r3, [r1, #4]
  38 0014 0023     		movs	r3, #0
  39              	@ 91 "../src/ChibiOS_2.4.0/os/kernel/src/chevents.c" 1
  40 0016 83F31188 		msr     BASEPRI, r3
  41              	@ 0 "" 2
  42              		.thumb
  43 001a 7047     		bx	lr
  44              	.L3:
  45              		.align	2
  46              	.L2:
  47 001c 00000000 		.word	rlist
  49              		.section	.text.chEvtUnregister,"ax",%progbits
  50              		.align	1
  51              		.global	chEvtUnregister
  52              		.thumb
  53              		.thumb_func
  55              	chEvtUnregister:
  56              		@ args = 0, pretend = 0, frame = 0
  57              		@ frame_needed = 0, uses_anonymous_args = 0
  58              		@ link register save eliminated.
  59 0000 2023     		movs	r3, #32
  60              	@ 113 "../src/ChibiOS_2.4.0/os/kernel/src/chevents.c" 1
  61 0002 83F31188 		msr     BASEPRI, r3
  62              	@ 0 "" 2
  63              		.thumb
  64 0006 0346     		mov	r3, r0
  65 0008 05E0     		b	.L5
  66              	.L7:
  67 000a 8A42     		cmp	r2, r1
  68 000c 02D1     		bne	.L8
  69 000e 0A68     		ldr	r2, [r1, #0]
  70 0010 1A60     		str	r2, [r3, #0]
  71 0012 03E0     		b	.L6
  72              	.L8:
  73 0014 1346     		mov	r3, r2
  74              	.L5:
  75 0016 1A68     		ldr	r2, [r3, #0]
  76 0018 8242     		cmp	r2, r0
  77 001a F6D1     		bne	.L7
  78              	.L6:
  79 001c 0023     		movs	r3, #0
  80              	@ 121 "../src/ChibiOS_2.4.0/os/kernel/src/chevents.c" 1
  81 001e 83F31188 		msr     BASEPRI, r3
  82              	@ 0 "" 2
  83              		.thumb
  84 0022 7047     		bx	lr
  86              		.section	.text.chEvtClearFlags,"ax",%progbits
  87              		.align	1
  88              		.global	chEvtClearFlags
  89              		.thumb
  90              		.thumb_func
  92              	chEvtClearFlags:
  93              		@ args = 0, pretend = 0, frame = 0
  94              		@ frame_needed = 0, uses_anonymous_args = 0
  95              		@ link register save eliminated.
  96 0000 2023     		movs	r3, #32
  97              	@ 135 "../src/ChibiOS_2.4.0/os/kernel/src/chevents.c" 1
  98 0002 83F31188 		msr     BASEPRI, r3
  99              	@ 0 "" 2
 100              		.thumb
 101 0006 054A     		ldr	r2, .L10
 102 0008 D369     		ldr	r3, [r2, #28]
 103 000a 9A6B     		ldr	r2, [r3, #56]
 104 000c 22EA0001 		bic	r1, r2, r0
 105 0010 9963     		str	r1, [r3, #56]
 106 0012 0023     		movs	r3, #0
 107              	@ 140 "../src/ChibiOS_2.4.0/os/kernel/src/chevents.c" 1
 108 0014 83F31188 		msr     BASEPRI, r3
 109              	@ 0 "" 2
 110              		.thumb
 111 0018 1040     		ands	r0, r0, r2
 112 001a 7047     		bx	lr
 113              	.L11:
 114              		.align	2
 115              	.L10:
 116 001c 00000000 		.word	rlist
 118              		.section	.text.chEvtAddFlags,"ax",%progbits
 119              		.align	1
 120              		.global	chEvtAddFlags
 121              		.thumb
 122              		.thumb_func
 124              	chEvtAddFlags:
 125              		@ args = 0, pretend = 0, frame = 0
 126              		@ frame_needed = 0, uses_anonymous_args = 0
 127              		@ link register save eliminated.
 128 0000 2023     		movs	r3, #32
 129              	@ 155 "../src/ChibiOS_2.4.0/os/kernel/src/chevents.c" 1
 130 0002 83F31188 		msr     BASEPRI, r3
 131              	@ 0 "" 2
 132              		.thumb
 133 0006 0449     		ldr	r1, .L13
 134 0008 CB69     		ldr	r3, [r1, #28]
 135 000a 9A6B     		ldr	r2, [r3, #56]
 136 000c 1043     		orrs	r0, r0, r2
 137 000e 9863     		str	r0, [r3, #56]
 138 0010 0023     		movs	r3, #0
 139              	@ 159 "../src/ChibiOS_2.4.0/os/kernel/src/chevents.c" 1
 140 0012 83F31188 		msr     BASEPRI, r3
 141              	@ 0 "" 2
 142              		.thumb
 143 0016 7047     		bx	lr
 144              	.L14:
 145              		.align	2
 146              	.L13:
 147 0018 00000000 		.word	rlist
 149              		.section	.text.chEvtSignalFlagsI,"ax",%progbits
 150              		.align	1
 151              		.global	chEvtSignalFlagsI
 152              		.thumb
 153              		.thumb_func
 155              	chEvtSignalFlagsI:
 156              		@ args = 0, pretend = 0, frame = 0
 157              		@ frame_needed = 0, uses_anonymous_args = 0
 158 0000 08B5     		push	{r3, lr}
 159 0002 836B     		ldr	r3, [r0, #56]
 160 0004 027F     		ldrb	r2, [r0, #28]	@ zero_extendqisi2
 161 0006 0B43     		orrs	r3, r3, r1
 162 0008 082A     		cmp	r2, #8
 163 000a 8363     		str	r3, [r0, #56]
 164 000c 03D1     		bne	.L16
 165 000e 426A     		ldr	r2, [r0, #36]
 166 0010 1342     		tst	r3, r2
 167 0012 07D1     		bne	.L17
 168 0014 08BD     		pop	{r3, pc}
 169              	.L16:
 170 0016 092A     		cmp	r2, #9
 171 0018 08D1     		bne	.L15
 172 001a 416A     		ldr	r1, [r0, #36]
 173 001c 03EA010C 		and	ip, r3, r1
 174 0020 8C45     		cmp	ip, r1
 175 0022 03D1     		bne	.L15
 176              	.L17:
 177 0024 FFF7FEFF 		bl	chSchReadyI
 178 0028 0023     		movs	r3, #0
 179 002a 4362     		str	r3, [r0, #36]
 180              	.L15:
 181 002c 08BD     		pop	{r3, pc}
 183              		.section	.text.chEvtSignalFlags,"ax",%progbits
 184              		.align	1
 185              		.global	chEvtSignalFlags
 186              		.thumb
 187              		.thumb_func
 189              	chEvtSignalFlags:
 190              		@ args = 0, pretend = 0, frame = 0
 191              		@ frame_needed = 0, uses_anonymous_args = 0
 192 0000 08B5     		push	{r3, lr}
 193 0002 2023     		movs	r3, #32
 194              	@ 175 "../src/ChibiOS_2.4.0/os/kernel/src/chevents.c" 1
 195 0004 83F31188 		msr     BASEPRI, r3
 196              	@ 0 "" 2
 197              		.thumb
 198 0008 FFF7FEFF 		bl	chEvtSignalFlagsI
 199 000c FFF7FEFF 		bl	chSchRescheduleS
 200 0010 0023     		movs	r3, #0
 201              	@ 178 "../src/ChibiOS_2.4.0/os/kernel/src/chevents.c" 1
 202 0012 83F31188 		msr     BASEPRI, r3
 203              	@ 0 "" 2
 204              		.thumb
 205 0016 08BD     		pop	{r3, pc}
 207              		.section	.text.chEvtBroadcastFlagsI,"ax",%progbits
 208              		.align	1
 209              		.global	chEvtBroadcastFlagsI
 210              		.thumb
 211              		.thumb_func
 213              	chEvtBroadcastFlagsI:
 214              		@ args = 0, pretend = 0, frame = 0
 215              		@ frame_needed = 0, uses_anonymous_args = 0
 216 0000 70B5     		push	{r4, r5, r6, lr}
 217 0002 0546     		mov	r5, r0
 218 0004 0E46     		mov	r6, r1
 219 0006 0468     		ldr	r4, [r0, #0]
 220 0008 05E0     		b	.L21
 221              	.L22:
 222 000a A168     		ldr	r1, [r4, #8]
 223 000c 6068     		ldr	r0, [r4, #4]
 224 000e 3143     		orrs	r1, r1, r6
 225 0010 FFF7FEFF 		bl	chEvtSignalFlagsI
 226 0014 2468     		ldr	r4, [r4, #0]
 227              	.L21:
 228 0016 AC42     		cmp	r4, r5
 229 0018 F7D1     		bne	.L22
 230 001a 70BD     		pop	{r4, r5, r6, pc}
 232              		.section	.text.chEvtBroadcastFlags,"ax",%progbits
 233              		.align	1
 234              		.global	chEvtBroadcastFlags
 235              		.thumb
 236              		.thumb_func
 238              	chEvtBroadcastFlags:
 239              		@ args = 0, pretend = 0, frame = 0
 240              		@ frame_needed = 0, uses_anonymous_args = 0
 241 0000 08B5     		push	{r3, lr}
 242 0002 2023     		movs	r3, #32
 243              	@ 222 "../src/ChibiOS_2.4.0/os/kernel/src/chevents.c" 1
 244 0004 83F31188 		msr     BASEPRI, r3
 245              	@ 0 "" 2
 246              		.thumb
 247 0008 FFF7FEFF 		bl	chEvtBroadcastFlagsI
 248 000c FFF7FEFF 		bl	chSchRescheduleS
 249 0010 0023     		movs	r3, #0
 250              	@ 225 "../src/ChibiOS_2.4.0/os/kernel/src/chevents.c" 1
 251 0012 83F31188 		msr     BASEPRI, r3
 252              	@ 0 "" 2
 253              		.thumb
 254 0016 08BD     		pop	{r3, pc}
 256              		.section	.text.chEvtDispatch,"ax",%progbits
 257              		.align	1
 258              		.global	chEvtDispatch
 259              		.thumb
 260              		.thumb_func
 262              	chEvtDispatch:
 263              		@ args = 0, pretend = 0, frame = 0
 264              		@ frame_needed = 0, uses_anonymous_args = 0
 265 0000 70B5     		push	{r4, r5, r6, lr}
 266 0002 0446     		mov	r4, r0
 267 0004 0E46     		mov	r6, r1
 268 0006 0025     		movs	r5, #0
 269 0008 0BE0     		b	.L25
 270              	.L27:
 271 000a 0123     		movs	r3, #1
 272 000c 03FA05F3 		lsl	r3, r3, r5
 273 0010 3342     		tst	r3, r6
 274 0012 05D0     		beq	.L26
 275 0014 54F82510 		ldr	r1, [r4, r5, lsl #2]
 276 0018 2846     		mov	r0, r5
 277 001a 26EA0306 		bic	r6, r6, r3
 278 001e 8847     		blx	r1
 279              	.L26:
 280 0020 0135     		adds	r5, r5, #1
 281              	.L25:
 282 0022 002E     		cmp	r6, #0
 283 0024 F1D1     		bne	.L27
 284 0026 70BD     		pop	{r4, r5, r6, pc}
 286              		.section	.text.chEvtWaitOne,"ax",%progbits
 287              		.align	1
 288              		.global	chEvtWaitOne
 289              		.thumb
 290              		.thumb_func
 292              	chEvtWaitOne:
 293              		@ args = 0, pretend = 0, frame = 0
 294              		@ frame_needed = 0, uses_anonymous_args = 0
 295 0000 38B5     		push	{r3, r4, r5, lr}
 296 0002 0D4B     		ldr	r3, .L30
 297 0004 0546     		mov	r5, r0
 298 0006 DC69     		ldr	r4, [r3, #28]
 299 0008 2023     		movs	r3, #32
 300              	@ 306 "../src/ChibiOS_2.4.0/os/kernel/src/chevents.c" 1
 301 000a 83F31188 		msr     BASEPRI, r3
 302              	@ 0 "" 2
 303              		.thumb
 304 000e A06B     		ldr	r0, [r4, #56]
 305 0010 2840     		ands	r0, r5, r0
 306 0012 06D1     		bne	.L29
 307 0014 0820     		movs	r0, #8
 308 0016 6562     		str	r5, [r4, #36]
 309 0018 FFF7FEFF 		bl	chSchGoSleepS
 310 001c A16B     		ldr	r1, [r4, #56]
 311 001e 05EA0100 		and	r0, r5, r1
 312              	.L29:
 313 0022 A36B     		ldr	r3, [r4, #56]
 314 0024 4142     		negs	r1, r0
 315 0026 0840     		ands	r0, r0, r1
 316 0028 23EA0002 		bic	r2, r3, r0
 317 002c A263     		str	r2, [r4, #56]
 318 002e 0023     		movs	r3, #0
 319              	@ 316 "../src/ChibiOS_2.4.0/os/kernel/src/chevents.c" 1
 320 0030 83F31188 		msr     BASEPRI, r3
 321              	@ 0 "" 2
 322              		.thumb
 323 0034 38BD     		pop	{r3, r4, r5, pc}
 324              	.L31:
 325 0036 00BF     		.align	2
 326              	.L30:
 327 0038 00000000 		.word	rlist
 329              		.section	.text.chEvtWaitAny,"ax",%progbits
 330              		.align	1
 331              		.global	chEvtWaitAny
 332              		.thumb
 333              		.thumb_func
 335              	chEvtWaitAny:
 336              		@ args = 0, pretend = 0, frame = 0
 337              		@ frame_needed = 0, uses_anonymous_args = 0
 338 0000 38B5     		push	{r3, r4, r5, lr}
 339 0002 0C4B     		ldr	r3, .L34
 340 0004 0546     		mov	r5, r0
 341 0006 DC69     		ldr	r4, [r3, #28]
 342 0008 2023     		movs	r3, #32
 343              	@ 335 "../src/ChibiOS_2.4.0/os/kernel/src/chevents.c" 1
 344 000a 83F31188 		msr     BASEPRI, r3
 345              	@ 0 "" 2
 346              		.thumb
 347 000e A06B     		ldr	r0, [r4, #56]
 348 0010 2840     		ands	r0, r5, r0
 349 0012 06D1     		bne	.L33
 350 0014 0820     		movs	r0, #8
 351 0016 6562     		str	r5, [r4, #36]
 352 0018 FFF7FEFF 		bl	chSchGoSleepS
 353 001c A16B     		ldr	r1, [r4, #56]
 354 001e 05EA0100 		and	r0, r5, r1
 355              	.L33:
 356 0022 A36B     		ldr	r3, [r4, #56]
 357 0024 23EA0002 		bic	r2, r3, r0
 358 0028 A263     		str	r2, [r4, #56]
 359 002a 0023     		movs	r3, #0
 360              	@ 344 "../src/ChibiOS_2.4.0/os/kernel/src/chevents.c" 1
 361 002c 83F31188 		msr     BASEPRI, r3
 362              	@ 0 "" 2
 363              		.thumb
 364 0030 38BD     		pop	{r3, r4, r5, pc}
 365              	.L35:
 366 0032 00BF     		.align	2
 367              	.L34:
 368 0034 00000000 		.word	rlist
 370              		.section	.text.chEvtWaitAll,"ax",%progbits
 371              		.align	1
 372              		.global	chEvtWaitAll
 373              		.thumb
 374              		.thumb_func
 376              	chEvtWaitAll:
 377              		@ args = 0, pretend = 0, frame = 0
 378              		@ frame_needed = 0, uses_anonymous_args = 0
 379 0000 0C4A     		ldr	r2, .L38
 380 0002 38B5     		push	{r3, r4, r5, lr}
 381 0004 0446     		mov	r4, r0
 382 0006 D569     		ldr	r5, [r2, #28]
 383 0008 2023     		movs	r3, #32
 384              	@ 362 "../src/ChibiOS_2.4.0/os/kernel/src/chevents.c" 1
 385 000a 83F31188 		msr     BASEPRI, r3
 386              	@ 0 "" 2
 387              		.thumb
 388 000e A96B     		ldr	r1, [r5, #56]
 389 0010 00EA0103 		and	r3, r0, r1
 390 0014 8342     		cmp	r3, r0
 391 0016 03D0     		beq	.L37
 392 0018 6862     		str	r0, [r5, #36]
 393 001a 0920     		movs	r0, #9
 394 001c FFF7FEFF 		bl	chSchGoSleepS
 395              	.L37:
 396 0020 AB6B     		ldr	r3, [r5, #56]
 397 0022 23EA0400 		bic	r0, r3, r4
 398 0026 A863     		str	r0, [r5, #56]
 399 0028 0023     		movs	r3, #0
 400              	@ 370 "../src/ChibiOS_2.4.0/os/kernel/src/chevents.c" 1
 401 002a 83F31188 		msr     BASEPRI, r3
 402              	@ 0 "" 2
 403              		.thumb
 404 002e 2046     		mov	r0, r4
 405 0030 38BD     		pop	{r3, r4, r5, pc}
 406              	.L39:
 407 0032 00BF     		.align	2
 408              	.L38:
 409 0034 00000000 		.word	rlist
 411              		.section	.text.chEvtWaitOneTimeout,"ax",%progbits
 412              		.align	1
 413              		.global	chEvtWaitOneTimeout
 414              		.thumb
 415              		.thumb_func
 417              	chEvtWaitOneTimeout:
 418              		@ args = 0, pretend = 0, frame = 0
 419              		@ frame_needed = 0, uses_anonymous_args = 0
 420 0000 104B     		ldr	r3, .L47
 421 0002 70B5     		push	{r4, r5, r6, lr}
 422 0004 DD69     		ldr	r5, [r3, #28]
 423 0006 0646     		mov	r6, r0
 424 0008 2023     		movs	r3, #32
 425              	@ 402 "../src/ChibiOS_2.4.0/os/kernel/src/chevents.c" 1
 426 000a 83F31188 		msr     BASEPRI, r3
 427              	@ 0 "" 2
 428              		.thumb
 429 000e AC6B     		ldr	r4, [r5, #56]
 430 0010 0440     		ands	r4, r0, r4
 431 0012 0BD1     		bne	.L41
 432 0014 29B1     		cbz	r1, .L46
 433              	.L42:
 434 0016 6862     		str	r0, [r5, #36]
 435 0018 0820     		movs	r0, #8
 436 001a FFF7FEFF 		bl	chSchGoSleepTimeoutS
 437 001e 0028     		cmp	r0, #0
 438 0020 01DA     		bge	.L44
 439              	.L46:
 440 0022 2346     		mov	r3, r4
 441 0024 09E0     		b	.L45
 442              	.L44:
 443 0026 A86B     		ldr	r0, [r5, #56]
 444 0028 06EA0004 		and	r4, r6, r0
 445              	.L41:
 446 002c 6342     		negs	r3, r4
 447 002e AA6B     		ldr	r2, [r5, #56]
 448 0030 1C40     		ands	r4, r4, r3
 449 0032 22EA0401 		bic	r1, r2, r4
 450 0036 A963     		str	r1, [r5, #56]
 451 0038 0023     		movs	r3, #0
 452              	.L45:
 453              	@ 419 "../src/ChibiOS_2.4.0/os/kernel/src/chevents.c" 1
 454 003a 83F31188 		msr     BASEPRI, r3
 455              	@ 0 "" 2
 456              		.thumb
 457 003e 2046     		mov	r0, r4
 458 0040 70BD     		pop	{r4, r5, r6, pc}
 459              	.L48:
 460 0042 00BF     		.align	2
 461              	.L47:
 462 0044 00000000 		.word	rlist
 464              		.section	.text.chEvtWaitAnyTimeout,"ax",%progbits
 465              		.align	1
 466              		.global	chEvtWaitAnyTimeout
 467              		.thumb
 468              		.thumb_func
 470              	chEvtWaitAnyTimeout:
 471              		@ args = 0, pretend = 0, frame = 0
 472              		@ frame_needed = 0, uses_anonymous_args = 0
 473 0000 0F4B     		ldr	r3, .L56
 474 0002 70B5     		push	{r4, r5, r6, lr}
 475 0004 DD69     		ldr	r5, [r3, #28]
 476 0006 0646     		mov	r6, r0
 477 0008 2023     		movs	r3, #32
 478              	@ 445 "../src/ChibiOS_2.4.0/os/kernel/src/chevents.c" 1
 479 000a 83F31188 		msr     BASEPRI, r3
 480              	@ 0 "" 2
 481              		.thumb
 482 000e AC6B     		ldr	r4, [r5, #56]
 483 0010 0440     		ands	r4, r0, r4
 484 0012 0BD1     		bne	.L50
 485 0014 29B1     		cbz	r1, .L55
 486              	.L51:
 487 0016 6862     		str	r0, [r5, #36]
 488 0018 0820     		movs	r0, #8
 489 001a FFF7FEFF 		bl	chSchGoSleepTimeoutS
 490 001e 0028     		cmp	r0, #0
 491 0020 01DA     		bge	.L53
 492              	.L55:
 493 0022 2346     		mov	r3, r4
 494 0024 07E0     		b	.L54
 495              	.L53:
 496 0026 A86B     		ldr	r0, [r5, #56]
 497 0028 06EA0004 		and	r4, r6, r0
 498              	.L50:
 499 002c AA6B     		ldr	r2, [r5, #56]
 500 002e 22EA0401 		bic	r1, r2, r4
 501 0032 A963     		str	r1, [r5, #56]
 502 0034 0023     		movs	r3, #0
 503              	.L54:
 504              	@ 461 "../src/ChibiOS_2.4.0/os/kernel/src/chevents.c" 1
 505 0036 83F31188 		msr     BASEPRI, r3
 506              	@ 0 "" 2
 507              		.thumb
 508 003a 2046     		mov	r0, r4
 509 003c 70BD     		pop	{r4, r5, r6, pc}
 510              	.L57:
 511 003e 00BF     		.align	2
 512              	.L56:
 513 0040 00000000 		.word	rlist
 515              		.section	.text.chEvtWaitAllTimeout,"ax",%progbits
 516              		.align	1
 517              		.global	chEvtWaitAllTimeout
 518              		.thumb
 519              		.thumb_func
 521              	chEvtWaitAllTimeout:
 522              		@ args = 0, pretend = 0, frame = 0
 523              		@ frame_needed = 0, uses_anonymous_args = 0
 524 0000 38B5     		push	{r3, r4, r5, lr}
 525 0002 124D     		ldr	r5, .L62
 526 0004 0446     		mov	r4, r0
 527 0006 ED69     		ldr	r5, [r5, #28]
 528 0008 2023     		movs	r3, #32
 529              	@ 485 "../src/ChibiOS_2.4.0/os/kernel/src/chevents.c" 1
 530 000a 83F31188 		msr     BASEPRI, r3
 531              	@ 0 "" 2
 532              		.thumb
 533 000e AA6B     		ldr	r2, [r5, #56]
 534 0010 00EA0203 		and	r3, r0, r2
 535 0014 8342     		cmp	r3, r0
 536 0016 10D0     		beq	.L59
 537 0018 21B9     		cbnz	r1, .L60
 538 001a 0B46     		mov	r3, r1
 539              	@ 489 "../src/ChibiOS_2.4.0/os/kernel/src/chevents.c" 1
 540 001c 83F31188 		msr     BASEPRI, r3
 541              	@ 0 "" 2
 542              		.thumb
 543 0020 0C46     		mov	r4, r1
 544 0022 11E0     		b	.L61
 545              	.L60:
 546 0024 6862     		str	r0, [r5, #36]
 547 0026 0920     		movs	r0, #9
 548 0028 FFF7FEFF 		bl	chSchGoSleepTimeoutS
 549 002c 0028     		cmp	r0, #0
 550 002e 04DA     		bge	.L59
 551 0030 0023     		movs	r3, #0
 552              	@ 494 "../src/ChibiOS_2.4.0/os/kernel/src/chevents.c" 1
 553 0032 83F31188 		msr     BASEPRI, r3
 554              	@ 0 "" 2
 555              		.thumb
 556 0036 1C46     		mov	r4, r3
 557 0038 06E0     		b	.L61
 558              	.L59:
 559 003a A96B     		ldr	r1, [r5, #56]
 560 003c 21EA0400 		bic	r0, r1, r4
 561 0040 A863     		str	r0, [r5, #56]
 562 0042 0023     		movs	r3, #0
 563              	@ 500 "../src/ChibiOS_2.4.0/os/kernel/src/chevents.c" 1
 564 0044 83F31188 		msr     BASEPRI, r3
 565              	@ 0 "" 2
 566              		.thumb
 567              	.L61:
 568 0048 2046     		mov	r0, r4
 569 004a 38BD     		pop	{r3, r4, r5, pc}
 570              	.L63:
 571              		.align	2
 572              	.L62:
 573 004c 00000000 		.word	rlist
 575              		.ident	"GCC: (Sourcery CodeBench Lite 2012.03-56) 4.6.3"