   1              		.syntax unified
   2              		.cpu cortex-m4
   3              		.eabi_attribute 27, 3
   4              		.fpu fpv4-sp-d16
   5              		.eabi_attribute 20, 1
   6              		.eabi_attribute 21, 1
   7              		.eabi_attribute 23, 3
   8              		.eabi_attribute 24, 1
   9              		.eabi_attribute 25, 1
  10              		.eabi_attribute 26, 1
  11              		.eabi_attribute 30, 4
  12              		.eabi_attribute 34, 1
  13              		.eabi_attribute 18, 4
  14              		.thumb
  15              		.file	"chmboxes.c"
  16              		.section	.text.chMBInit,"ax",%progbits
  17              		.align	1
  18              		.global	chMBInit
  19              		.thumb
  20              		.thumb_func
  22              	chMBInit:
  23              		@ args = 0, pretend = 0, frame = 0
  24              		@ frame_needed = 0, uses_anonymous_args = 0
  25 0000 10B5     		push	{r4, lr}
  26 0002 C160     		str	r1, [r0, #12]
  27 0004 8160     		str	r1, [r0, #8]
  28 0006 0160     		str	r1, [r0, #0]
  29 0008 01EB8201 		add	r1, r1, r2, lsl #2
  30 000c 0446     		mov	r4, r0
  31 000e 4160     		str	r1, [r0, #4]
  32 0010 1C30     		adds	r0, r0, #28
  33 0012 1146     		mov	r1, r2
  34 0014 FFF7FEFF 		bl	chSemInit
  35 0018 04F11000 		add	r0, r4, #16
  36 001c 0021     		movs	r1, #0
  37 001e BDE81040 		pop	{r4, lr}
  38 0022 FFF7FEBF 		b	chSemInit
  40              		.section	.text.chMBReset,"ax",%progbits
  41              		.align	1
  42              		.global	chMBReset
  43              		.thumb
  44              		.thumb_func
  46              	chMBReset:
  47              		@ args = 0, pretend = 0, frame = 0
  48              		@ frame_needed = 0, uses_anonymous_args = 0
  49 0000 10B5     		push	{r4, lr}
  50 0002 2023     		movs	r3, #32
  51 0004 0446     		mov	r4, r0
  52              	@ 95 "../src/ChibiOS_2.4.0/os/kernel/src/chmboxes.c" 1
  53 0006 83F31188 		msr     BASEPRI, r3
  54              	@ 0 "" 2
  55              		.thumb
  56 000a 0368     		ldr	r3, [r0, #0]
  57 000c 4268     		ldr	r2, [r0, #4]
  58 000e C360     		str	r3, [r0, #12]
  59 0010 D11A     		subs	r1, r2, r3
  60 0012 8360     		str	r3, [r0, #8]
  61 0014 8910     		asrs	r1, r1, #2
  62 0016 1C30     		adds	r0, r0, #28
  63 0018 FFF7FEFF 		bl	chSemResetI
  64 001c 04F11000 		add	r0, r4, #16
  65 0020 0021     		movs	r1, #0
  66 0022 FFF7FEFF 		bl	chSemResetI
  67 0026 FFF7FEFF 		bl	chSchRescheduleS
  68 002a 0023     		movs	r3, #0
  69              	@ 100 "../src/ChibiOS_2.4.0/os/kernel/src/chmboxes.c" 1
  70 002c 83F31188 		msr     BASEPRI, r3
  71              	@ 0 "" 2
  72              		.thumb
  73 0030 10BD     		pop	{r4, pc}
  75              		.section	.text.chMBPostS,"ax",%progbits
  76              		.align	1
  77              		.global	chMBPostS
  78              		.thumb
  79              		.thumb_func
  81              	chMBPostS:
  82              		@ args = 0, pretend = 0, frame = 0
  83              		@ frame_needed = 0, uses_anonymous_args = 0
  84 0000 70B5     		push	{r4, r5, r6, lr}
  85 0002 0446     		mov	r4, r0
  86 0004 0D46     		mov	r5, r1
  87 0006 1C30     		adds	r0, r0, #28
  88 0008 1146     		mov	r1, r2
  89 000a FFF7FEFF 		bl	chSemWaitTimeoutS
  90 000e 0646     		mov	r6, r0
  91 0010 78B9     		cbnz	r0, .L4
  92 0012 A368     		ldr	r3, [r4, #8]
  93 0014 6268     		ldr	r2, [r4, #4]
  94 0016 43F8045B 		str	r5, [r3], #4
  95 001a 9342     		cmp	r3, r2
  96 001c A360     		str	r3, [r4, #8]
  97 001e 28BF     		it	cs
  98 0020 2368     		ldrcs	r3, [r4, #0]
  99 0022 04F11000 		add	r0, r4, #16
 100 0026 28BF     		it	cs
 101 0028 A360     		strcs	r3, [r4, #8]
 102 002a FFF7FEFF 		bl	chSemSignalI
 103 002e FFF7FEFF 		bl	chSchRescheduleS
 104              	.L4:
 105 0032 3046     		mov	r0, r6
 106 0034 70BD     		pop	{r4, r5, r6, pc}
 108              		.section	.text.chMBPost,"ax",%progbits
 109              		.align	1
 110              		.global	chMBPost
 111              		.thumb
 112              		.thumb_func
 114              	chMBPost:
 115              		@ args = 0, pretend = 0, frame = 0
 116              		@ frame_needed = 0, uses_anonymous_args = 0
 117 0000 08B5     		push	{r3, lr}
 118 0002 2023     		movs	r3, #32
 119              	@ 125 "../src/ChibiOS_2.4.0/os/kernel/src/chmboxes.c" 1
 120 0004 83F31188 		msr     BASEPRI, r3
 121              	@ 0 "" 2
 122              		.thumb
 123 0008 FFF7FEFF 		bl	chMBPostS
 124 000c 0023     		movs	r3, #0
 125              	@ 127 "../src/ChibiOS_2.4.0/os/kernel/src/chmboxes.c" 1
 126 000e 83F31188 		msr     BASEPRI, r3
 127              	@ 0 "" 2
 128              		.thumb
 129 0012 08BD     		pop	{r3, pc}
 131              		.section	.text.chMBPostI,"ax",%progbits
 132              		.align	1
 133              		.global	chMBPostI
 134              		.thumb
 135              		.thumb_func
 137              	chMBPostI:
 138              		@ args = 0, pretend = 0, frame = 0
 139              		@ frame_needed = 0, uses_anonymous_args = 0
 140 0000 08B5     		push	{r3, lr}
 141 0002 436A     		ldr	r3, [r0, #36]
 142 0004 002B     		cmp	r3, #0
 143 0006 0FDD     		ble	.L10
 144 0008 013B     		subs	r3, r3, #1
 145 000a 4362     		str	r3, [r0, #36]
 146 000c 8368     		ldr	r3, [r0, #8]
 147 000e 4268     		ldr	r2, [r0, #4]
 148 0010 43F8041B 		str	r1, [r3], #4
 149 0014 9342     		cmp	r3, r2
 150 0016 8360     		str	r3, [r0, #8]
 151 0018 24BF     		itt	cs
 152 001a 0368     		ldrcs	r3, [r0, #0]
 153 001c 8360     		strcs	r3, [r0, #8]
 154 001e 1030     		adds	r0, r0, #16
 155 0020 FFF7FEFF 		bl	chSemSignalI
 156 0024 0020     		movs	r0, #0
 157 0026 08BD     		pop	{r3, pc}
 158              	.L10:
 159 0028 4FF0FF30 		mov	r0, #-1
 160 002c 08BD     		pop	{r3, pc}
 162              		.section	.text.chMBPostAheadS,"ax",%progbits
 163              		.align	1
 164              		.global	chMBPostAheadS
 165              		.thumb
 166              		.thumb_func
 168              	chMBPostAheadS:
 169              		@ args = 0, pretend = 0, frame = 0
 170              		@ frame_needed = 0, uses_anonymous_args = 0
 171 0000 70B5     		push	{r4, r5, r6, lr}
 172 0002 0446     		mov	r4, r0
 173 0004 0D46     		mov	r5, r1
 174 0006 1C30     		adds	r0, r0, #28
 175 0008 1146     		mov	r1, r2
 176 000a FFF7FEFF 		bl	chSemWaitTimeoutS
 177 000e 0646     		mov	r6, r0
 178 0010 80B9     		cbnz	r0, .L12
 179 0012 E068     		ldr	r0, [r4, #12]
 180 0014 2268     		ldr	r2, [r4, #0]
 181 0016 031F     		subs	r3, r0, #4
 182 0018 9342     		cmp	r3, r2
 183 001a E360     		str	r3, [r4, #12]
 184 001c 02D2     		bcs	.L13
 185 001e 6268     		ldr	r2, [r4, #4]
 186 0020 111F     		subs	r1, r2, #4
 187 0022 E160     		str	r1, [r4, #12]
 188              	.L13:
 189 0024 E368     		ldr	r3, [r4, #12]
 190 0026 04F11000 		add	r0, r4, #16
 191 002a 1D60     		str	r5, [r3, #0]
 192 002c FFF7FEFF 		bl	chSemSignalI
 193 0030 FFF7FEFF 		bl	chSchRescheduleS
 194              	.L12:
 195 0034 3046     		mov	r0, r6
 196 0036 70BD     		pop	{r4, r5, r6, pc}
 198              		.section	.text.chMBPostAhead,"ax",%progbits
 199              		.align	1
 200              		.global	chMBPostAhead
 201              		.thumb
 202              		.thumb_func
 204              	chMBPostAhead:
 205              		@ args = 0, pretend = 0, frame = 0
 206              		@ frame_needed = 0, uses_anonymous_args = 0
 207 0000 08B5     		push	{r3, lr}
 208 0002 2023     		movs	r3, #32
 209              	@ 218 "../src/ChibiOS_2.4.0/os/kernel/src/chmboxes.c" 1
 210 0004 83F31188 		msr     BASEPRI, r3
 211              	@ 0 "" 2
 212              		.thumb
 213 0008 FFF7FEFF 		bl	chMBPostAheadS
 214 000c 0023     		movs	r3, #0
 215              	@ 220 "../src/ChibiOS_2.4.0/os/kernel/src/chmboxes.c" 1
 216 000e 83F31188 		msr     BASEPRI, r3
 217              	@ 0 "" 2
 218              		.thumb
 219 0012 08BD     		pop	{r3, pc}
 221              		.section	.text.chMBPostAheadI,"ax",%progbits
 222              		.align	1
 223              		.global	chMBPostAheadI
 224              		.thumb
 225              		.thumb_func
 227              	chMBPostAheadI:
 228              		@ args = 0, pretend = 0, frame = 0
 229              		@ frame_needed = 0, uses_anonymous_args = 0
 230 0000 08B5     		push	{r3, lr}
 231 0002 436A     		ldr	r3, [r0, #36]
 232 0004 002B     		cmp	r3, #0
 233 0006 11DD     		ble	.L18
 234 0008 C268     		ldr	r2, [r0, #12]
 235 000a 013B     		subs	r3, r3, #1
 236 000c 4362     		str	r3, [r0, #36]
 237 000e 131F     		subs	r3, r2, #4
 238 0010 0268     		ldr	r2, [r0, #0]
 239 0012 C360     		str	r3, [r0, #12]
 240 0014 9342     		cmp	r3, r2
 241 0016 02D2     		bcs	.L17
 242 0018 4368     		ldr	r3, [r0, #4]
 243 001a 1A1F     		subs	r2, r3, #4
 244 001c C260     		str	r2, [r0, #12]
 245              	.L17:
 246 001e C268     		ldr	r2, [r0, #12]
 247 0020 1030     		adds	r0, r0, #16
 248 0022 1160     		str	r1, [r2, #0]
 249 0024 FFF7FEFF 		bl	chSemSignalI
 250 0028 0020     		movs	r0, #0
 251 002a 08BD     		pop	{r3, pc}
 252              	.L18:
 253 002c 4FF0FF30 		mov	r0, #-1
 254 0030 08BD     		pop	{r3, pc}
 256              		.section	.text.chMBFetchS,"ax",%progbits
 257              		.align	1
 258              		.global	chMBFetchS
 259              		.thumb
 260              		.thumb_func
 262              	chMBFetchS:
 263              		@ args = 0, pretend = 0, frame = 0
 264              		@ frame_needed = 0, uses_anonymous_args = 0
 265 0000 70B5     		push	{r4, r5, r6, lr}
 266 0002 0446     		mov	r4, r0
 267 0004 0D46     		mov	r5, r1
 268 0006 1030     		adds	r0, r0, #16
 269 0008 1146     		mov	r1, r2
 270 000a FFF7FEFF 		bl	chSemWaitTimeoutS
 271 000e 0646     		mov	r6, r0
 272 0010 80B9     		cbnz	r0, .L20
 273 0012 E368     		ldr	r3, [r4, #12]
 274 0014 6268     		ldr	r2, [r4, #4]
 275 0016 53F8040B 		ldr	r0, [r3], #4
 276 001a 9342     		cmp	r3, r2
 277 001c 2860     		str	r0, [r5, #0]
 278 001e E360     		str	r3, [r4, #12]
 279 0020 28BF     		it	cs
 280 0022 2368     		ldrcs	r3, [r4, #0]
 281 0024 04F11C00 		add	r0, r4, #28
 282 0028 28BF     		it	cs
 283 002a E360     		strcs	r3, [r4, #12]
 284 002c FFF7FEFF 		bl	chSemSignalI
 285 0030 FFF7FEFF 		bl	chSchRescheduleS
 286              	.L20:
 287 0034 3046     		mov	r0, r6
 288 0036 70BD     		pop	{r4, r5, r6, pc}
 290              		.section	.text.chMBFetch,"ax",%progbits
 291              		.align	1
 292              		.global	chMBFetch
 293              		.thumb
 294              		.thumb_func
 296              	chMBFetch:
 297              		@ args = 0, pretend = 0, frame = 0
 298              		@ frame_needed = 0, uses_anonymous_args = 0
 299 0000 08B5     		push	{r3, lr}
 300 0002 2023     		movs	r3, #32
 301              	@ 311 "../src/ChibiOS_2.4.0/os/kernel/src/chmboxes.c" 1
 302 0004 83F31188 		msr     BASEPRI, r3
 303              	@ 0 "" 2
 304              		.thumb
 305 0008 FFF7FEFF 		bl	chMBFetchS
 306 000c 0023     		movs	r3, #0
 307              	@ 313 "../src/ChibiOS_2.4.0/os/kernel/src/chmboxes.c" 1
 308 000e 83F31188 		msr     BASEPRI, r3
 309              	@ 0 "" 2
 310              		.thumb
 311 0012 08BD     		pop	{r3, pc}
 313              		.section	.text.chMBFetchI,"ax",%progbits
 314              		.align	1
 315              		.global	chMBFetchI
 316              		.thumb
 317              		.thumb_func
 319              	chMBFetchI:
 320              		@ args = 0, pretend = 0, frame = 0
 321              		@ frame_needed = 0, uses_anonymous_args = 0
 322 0000 08B5     		push	{r3, lr}
 323 0002 8369     		ldr	r3, [r0, #24]
 324 0004 002B     		cmp	r3, #0
 325 0006 0EDD     		ble	.L26
 326 0008 C368     		ldr	r3, [r0, #12]
 327 000a 53F8042B 		ldr	r2, [r3], #4
 328 000e 0A60     		str	r2, [r1, #0]
 329 0010 4268     		ldr	r2, [r0, #4]
 330 0012 C360     		str	r3, [r0, #12]
 331 0014 9342     		cmp	r3, r2
 332 0016 24BF     		itt	cs
 333 0018 0368     		ldrcs	r3, [r0, #0]
 334 001a C360     		strcs	r3, [r0, #12]
 335 001c 1C30     		adds	r0, r0, #28
 336 001e FFF7FEFF 		bl	chSemSignalI
 337 0022 0020     		movs	r0, #0
 338 0024 08BD     		pop	{r3, pc}
 339              	.L26:
 340 0026 4FF0FF30 		mov	r0, #-1
 341 002a 08BD     		pop	{r3, pc}
 343              		.ident	"GCC: (Sourcery CodeBench Lite 2012.03-56) 4.6.3"