   1              		.syntax unified
   2              		.cpu cortex-m4
   3              		.eabi_attribute 27, 3
   4              		.fpu fpv4-sp-d16
   5              		.eabi_attribute 20, 1
   6              		.eabi_attribute 21, 1
   7              		.eabi_attribute 23, 3
   8              		.eabi_attribute 24, 1
   9              		.eabi_attribute 25, 1
  10              		.eabi_attribute 26, 1
  11              		.eabi_attribute 30, 4
  12              		.eabi_attribute 34, 1
  13              		.eabi_attribute 18, 4
  14              		.thumb
  15              		.file	"chmtx.c"
  16              		.section	.text.prio_insert,"ax",%progbits
  17              		.align	1
  18              		.thumb
  19              		.thumb_func
  21              	prio_insert:
  22              		@ args = 0, pretend = 0, frame = 0
  23              		@ frame_needed = 0, uses_anonymous_args = 0
  24 0000 10B5     		push	{r4, lr}
  25 0002 0B46     		mov	r3, r1
  26              	.L3:
  27 0004 1B68     		ldr	r3, [r3, #0]
  28 0006 8B42     		cmp	r3, r1
  29 0008 03D0     		beq	.L2
  30 000a 9C68     		ldr	r4, [r3, #8]
  31 000c 8268     		ldr	r2, [r0, #8]
  32 000e 9442     		cmp	r4, r2
  33 0010 F8D2     		bcs	.L3
  34              	.L2:
  35 0012 5968     		ldr	r1, [r3, #4]
  36 0014 0360     		str	r3, [r0, #0]
  37 0016 4160     		str	r1, [r0, #4]
  38 0018 0860     		str	r0, [r1, #0]
  39 001a 5860     		str	r0, [r3, #4]
  40 001c 10BD     		pop	{r4, pc}
  42              		.section	.text.fifo_remove,"ax",%progbits
  43              		.align	1
  44              		.thumb
  45              		.thumb_func
  47              	fifo_remove:
  48              		@ args = 0, pretend = 0, frame = 0
  49              		@ frame_needed = 0, uses_anonymous_args = 0
  50              		@ link register save eliminated.
  51 0000 0346     		mov	r3, r0
  52 0002 0068     		ldr	r0, [r0, #0]
  53 0004 0268     		ldr	r2, [r0, #0]
  54 0006 1A60     		str	r2, [r3, #0]
  55 0008 5360     		str	r3, [r2, #4]
  56 000a 7047     		bx	lr
  58              		.section	.text.dequeue,"ax",%progbits
  59              		.align	1
  60              		.thumb
  61              		.thumb_func
  63              	dequeue:
  64              		@ args = 0, pretend = 0, frame = 0
  65              		@ frame_needed = 0, uses_anonymous_args = 0
  66              		@ link register save eliminated.
  67 0000 90E80600 		ldmia	r0, {r1, r2}
  68 0004 1160     		str	r1, [r2, #0]
  69 0006 0368     		ldr	r3, [r0, #0]
  70 0008 5A60     		str	r2, [r3, #4]
  71 000a 7047     		bx	lr
  73              		.section	.text.chMtxInit,"ax",%progbits
  74              		.align	1
  75              		.global	chMtxInit
  76              		.thumb
  77              		.thumb_func
  79              	chMtxInit:
  80              		@ args = 0, pretend = 0, frame = 0
  81              		@ frame_needed = 0, uses_anonymous_args = 0
  82              		@ link register save eliminated.
  83 0000 0023     		movs	r3, #0
  84 0002 4060     		str	r0, [r0, #4]
  85 0004 0060     		str	r0, [r0, #0]
  86 0006 8360     		str	r3, [r0, #8]
  87 0008 7047     		bx	lr
  89              		.section	.text.chMtxLockS,"ax",%progbits
  90              		.align	1
  91              		.global	chMtxLockS
  92              		.thumb
  93              		.thumb_func
  95              	chMtxLockS:
  96              		@ args = 0, pretend = 0, frame = 0
  97              		@ frame_needed = 0, uses_anonymous_args = 0
  98 0000 70B5     		push	{r4, r5, r6, lr}
  99 0002 1B4B     		ldr	r3, .L18
 100 0004 8468     		ldr	r4, [r0, #8]
 101 0006 DD69     		ldr	r5, [r3, #28]
 102 0008 0646     		mov	r6, r0
 103 000a F4B9     		cbnz	r4, .L16
 104 000c 2BE0     		b	.L17
 105              	.L15:
 106 000e A360     		str	r3, [r4, #8]
 107 0010 237F     		ldrb	r3, [r4, #28]	@ zero_extendqisi2
 108 0012 042B     		cmp	r3, #4
 109 0014 03D0     		beq	.L13
 110 0016 052B     		cmp	r3, #5
 111 0018 0AD0     		beq	.L14
 112 001a 83B1     		cbz	r3, .L12
 113 001c 19E0     		b	.L11
 114              	.L13:
 115 001e 2046     		mov	r0, r4
 116 0020 FFF7FEFF 		bl	dequeue
 117 0024 616A     		ldr	r1, [r4, #36]
 118 0026 FFF7FEFF 		bl	prio_insert
 119 002a 606A     		ldr	r0, [r4, #36]
 120 002c 8468     		ldr	r4, [r0, #8]
 121 002e 0CE0     		b	.L16
 122              	.L14:
 123 0030 2046     		mov	r0, r4
 124 0032 FFF7FEFF 		bl	dequeue
 125 0036 616A     		ldr	r1, [r4, #36]
 126 0038 FFF7FEFF 		bl	prio_insert
 127 003c 09E0     		b	.L11
 128              	.L12:
 129 003e 2046     		mov	r0, r4
 130 0040 FFF7FEFF 		bl	dequeue
 131 0044 FFF7FEFF 		bl	chSchReadyI
 132 0048 03E0     		b	.L11
 133              	.L16:
 134 004a AB68     		ldr	r3, [r5, #8]
 135 004c A268     		ldr	r2, [r4, #8]
 136 004e 9A42     		cmp	r2, r3
 137 0050 DDD3     		bcc	.L15
 138              	.L11:
 139 0052 2846     		mov	r0, r5
 140 0054 3146     		mov	r1, r6
 141 0056 FFF7FEFF 		bl	prio_insert
 142 005a 0420     		movs	r0, #4
 143 005c 6E62     		str	r6, [r5, #36]
 144 005e BDE87040 		pop	{r4, r5, r6, lr}
 145 0062 FFF7FEBF 		b	chSchGoSleepS
 146              	.L17:
 147 0066 E96B     		ldr	r1, [r5, #60]
 148 0068 8560     		str	r5, [r0, #8]
 149 006a C160     		str	r1, [r0, #12]
 150 006c E863     		str	r0, [r5, #60]
 151 006e 70BD     		pop	{r4, r5, r6, pc}
 152              	.L19:
 153              		.align	2
 154              	.L18:
 155 0070 00000000 		.word	rlist
 157              		.section	.text.chMtxLock,"ax",%progbits
 158              		.align	1
 159              		.global	chMtxLock
 160              		.thumb
 161              		.thumb_func
 163              	chMtxLock:
 164              		@ args = 0, pretend = 0, frame = 0
 165              		@ frame_needed = 0, uses_anonymous_args = 0
 166 0000 08B5     		push	{r3, lr}
 167 0002 2023     		movs	r3, #32
 168              	@ 105 "../src/ChibiOS_2.4.0/os/kernel/src/chmtx.c" 1
 169 0004 83F31188 		msr     BASEPRI, r3
 170              	@ 0 "" 2
 171              		.thumb
 172 0008 FFF7FEFF 		bl	chMtxLockS
 173 000c 0023     		movs	r3, #0
 174              	@ 109 "../src/ChibiOS_2.4.0/os/kernel/src/chmtx.c" 1
 175 000e 83F31188 		msr     BASEPRI, r3
 176              	@ 0 "" 2
 177              		.thumb
 178 0012 08BD     		pop	{r3, pc}
 180              		.section	.text.chMtxTryLockS,"ax",%progbits
 181              		.align	1
 182              		.global	chMtxTryLockS
 183              		.thumb
 184              		.thumb_func
 186              	chMtxTryLockS:
 187              		@ args = 0, pretend = 0, frame = 0
 188              		@ frame_needed = 0, uses_anonymous_args = 0
 189              		@ link register save eliminated.
 190 0000 8368     		ldr	r3, [r0, #8]
 191 0002 3BB9     		cbnz	r3, .L23
 192 0004 044B     		ldr	r3, .L24
 193 0006 D969     		ldr	r1, [r3, #28]
 194 0008 CA6B     		ldr	r2, [r1, #60]
 195 000a 8160     		str	r1, [r0, #8]
 196 000c C260     		str	r2, [r0, #12]
 197 000e C863     		str	r0, [r1, #60]
 198 0010 0120     		movs	r0, #1
 199 0012 7047     		bx	lr
 200              	.L23:
 201 0014 0020     		movs	r0, #0
 202 0016 7047     		bx	lr
 203              	.L25:
 204              		.align	2
 205              	.L24:
 206 0018 00000000 		.word	rlist
 208              		.section	.text.chMtxTryLock,"ax",%progbits
 209              		.align	1
 210              		.global	chMtxTryLock
 211              		.thumb
 212              		.thumb_func
 214              	chMtxTryLock:
 215              		@ args = 0, pretend = 0, frame = 0
 216              		@ frame_needed = 0, uses_anonymous_args = 0
 217 0000 08B5     		push	{r3, lr}
 218 0002 2023     		movs	r3, #32
 219              	@ 209 "../src/ChibiOS_2.4.0/os/kernel/src/chmtx.c" 1
 220 0004 83F31188 		msr     BASEPRI, r3
 221              	@ 0 "" 2
 222              		.thumb
 223 0008 FFF7FEFF 		bl	chMtxTryLockS
 224 000c 0023     		movs	r3, #0
 225              	@ 213 "../src/ChibiOS_2.4.0/os/kernel/src/chmtx.c" 1
 226 000e 83F31188 		msr     BASEPRI, r3
 227              	@ 0 "" 2
 228              		.thumb
 229 0012 08BD     		pop	{r3, pc}
 231              		.section	.text.chMtxUnlock,"ax",%progbits
 232              		.align	1
 233              		.global	chMtxUnlock
 234              		.thumb
 235              		.thumb_func
 237              	chMtxUnlock:
 238              		@ args = 0, pretend = 0, frame = 0
 239              		@ frame_needed = 0, uses_anonymous_args = 0
 240 0000 1548     		ldr	r0, .L33
 241 0002 38B5     		push	{r3, r4, r5, lr}
 242 0004 C269     		ldr	r2, [r0, #28]
 243 0006 2023     		movs	r3, #32
 244              	@ 261 "../src/ChibiOS_2.4.0/os/kernel/src/chmtx.c" 1
 245 0008 83F31188 		msr     BASEPRI, r3
 246              	@ 0 "" 2
 247              		.thumb
 248 000c D46B     		ldr	r4, [r2, #60]
 249 000e 2368     		ldr	r3, [r4, #0]
 250 0010 E568     		ldr	r5, [r4, #12]
 251 0012 A342     		cmp	r3, r4
 252 0014 D563     		str	r5, [r2, #60]
 253 0016 17D0     		beq	.L28
 254 0018 136C     		ldr	r3, [r2, #64]
 255 001a 07E0     		b	.L29
 256              	.L31:
 257 001c 2968     		ldr	r1, [r5, #0]
 258 001e A942     		cmp	r1, r5
 259 0020 03D0     		beq	.L30
 260 0022 8968     		ldr	r1, [r1, #8]
 261 0024 8B42     		cmp	r3, r1
 262 0026 38BF     		it	cc
 263 0028 0B46     		movcc	r3, r1
 264              	.L30:
 265 002a ED68     		ldr	r5, [r5, #12]
 266              	.L29:
 267 002c 002D     		cmp	r5, #0
 268 002e F5D1     		bne	.L31
 269 0030 9360     		str	r3, [r2, #8]
 270 0032 2046     		mov	r0, r4
 271 0034 FFF7FEFF 		bl	fifo_remove
 272 0038 C26B     		ldr	r2, [r0, #60]
 273 003a A060     		str	r0, [r4, #8]
 274 003c E260     		str	r2, [r4, #12]
 275 003e 2946     		mov	r1, r5
 276 0040 C463     		str	r4, [r0, #60]
 277 0042 FFF7FEFF 		bl	chSchWakeupS
 278 0046 01E0     		b	.L32
 279              	.L28:
 280 0048 0023     		movs	r3, #0
 281 004a A360     		str	r3, [r4, #8]
 282              	.L32:
 283 004c 0023     		movs	r3, #0
 284              	@ 301 "../src/ChibiOS_2.4.0/os/kernel/src/chmtx.c" 1
 285 004e 83F31188 		msr     BASEPRI, r3
 286              	@ 0 "" 2
 287              		.thumb
 288 0052 2046     		mov	r0, r4
 289 0054 38BD     		pop	{r3, r4, r5, pc}
 290              	.L34:
 291 0056 00BF     		.align	2
 292              	.L33:
 293 0058 00000000 		.word	rlist
 295              		.section	.text.chMtxUnlockS,"ax",%progbits
 296              		.align	1
 297              		.global	chMtxUnlockS
 298              		.thumb
 299              		.thumb_func
 301              	chMtxUnlockS:
 302              		@ args = 0, pretend = 0, frame = 0
 303              		@ frame_needed = 0, uses_anonymous_args = 0
 304 0000 114B     		ldr	r3, .L41
 305 0002 DA69     		ldr	r2, [r3, #28]
 306 0004 10B5     		push	{r4, lr}
 307 0006 D46B     		ldr	r4, [r2, #60]
 308 0008 2168     		ldr	r1, [r4, #0]
 309 000a E368     		ldr	r3, [r4, #12]
 310 000c A142     		cmp	r1, r4
 311 000e D363     		str	r3, [r2, #60]
 312 0010 16D0     		beq	.L36
 313 0012 116C     		ldr	r1, [r2, #64]
 314 0014 07E0     		b	.L37
 315              	.L39:
 316 0016 1868     		ldr	r0, [r3, #0]
 317 0018 9842     		cmp	r0, r3
 318 001a 03D0     		beq	.L38
 319 001c 8068     		ldr	r0, [r0, #8]
 320 001e 8142     		cmp	r1, r0
 321 0020 38BF     		it	cc
 322 0022 0146     		movcc	r1, r0
 323              	.L38:
 324 0024 DB68     		ldr	r3, [r3, #12]
 325              	.L37:
 326 0026 002B     		cmp	r3, #0
 327 0028 F5D1     		bne	.L39
 328 002a 9160     		str	r1, [r2, #8]
 329 002c 2046     		mov	r0, r4
 330 002e FFF7FEFF 		bl	fifo_remove
 331 0032 C26B     		ldr	r2, [r0, #60]
 332 0034 A060     		str	r0, [r4, #8]
 333 0036 E260     		str	r2, [r4, #12]
 334 0038 C463     		str	r4, [r0, #60]
 335 003a FFF7FEFF 		bl	chSchReadyI
 336 003e 01E0     		b	.L40
 337              	.L36:
 338 0040 0021     		movs	r1, #0
 339 0042 A160     		str	r1, [r4, #8]
 340              	.L40:
 341 0044 2046     		mov	r0, r4
 342 0046 10BD     		pop	{r4, pc}
 343              	.L42:
 344              		.align	2
 345              	.L41:
 346 0048 00000000 		.word	rlist
 348              		.section	.text.chMtxUnlockAll,"ax",%progbits
 349              		.align	1
 350              		.global	chMtxUnlockAll
 351              		.thumb
 352              		.thumb_func
 354              	chMtxUnlockAll:
 355              		@ args = 0, pretend = 0, frame = 0
 356              		@ frame_needed = 0, uses_anonymous_args = 0
 357 0000 1248     		ldr	r0, .L50
 358 0002 38B5     		push	{r3, r4, r5, lr}
 359 0004 C469     		ldr	r4, [r0, #28]
 360 0006 2023     		movs	r3, #32
 361              	@ 377 "../src/ChibiOS_2.4.0/os/kernel/src/chmtx.c" 1
 362 0008 83F31188 		msr     BASEPRI, r3
 363              	@ 0 "" 2
 364              		.thumb
 365 000c E36B     		ldr	r3, [r4, #60]
 366 000e C3B1     		cbz	r3, .L44
 367              	.L48:
 368 0010 E56B     		ldr	r5, [r4, #60]
 369 0012 2B68     		ldr	r3, [r5, #0]
 370 0014 E968     		ldr	r1, [r5, #12]
 371 0016 AB42     		cmp	r3, r5
 372 0018 E163     		str	r1, [r4, #60]
 373 001a 09D0     		beq	.L45
 374 001c 2846     		mov	r0, r5
 375 001e FFF7FEFF 		bl	fifo_remove
 376 0022 C26B     		ldr	r2, [r0, #60]
 377 0024 A860     		str	r0, [r5, #8]
 378 0026 EA60     		str	r2, [r5, #12]
 379 0028 C563     		str	r5, [r0, #60]
 380 002a FFF7FEFF 		bl	chSchReadyI
 381 002e 01E0     		b	.L46
 382              	.L45:
 383 0030 0020     		movs	r0, #0
 384 0032 9860     		str	r0, [r3, #8]
 385              	.L46:
 386 0034 E36B     		ldr	r3, [r4, #60]
 387 0036 002B     		cmp	r3, #0
 388 0038 EAD1     		bne	.L48
 389 003a 216C     		ldr	r1, [r4, #64]
 390 003c A160     		str	r1, [r4, #8]
 391 003e FFF7FEFF 		bl	chSchRescheduleS
 392              	.L44:
 393 0042 0023     		movs	r3, #0
 394              	@ 395 "../src/ChibiOS_2.4.0/os/kernel/src/chmtx.c" 1
 395 0044 83F31188 		msr     BASEPRI, r3
 396              	@ 0 "" 2
 397              		.thumb
 398 0048 38BD     		pop	{r3, r4, r5, pc}
 399              	.L51:
 400 004a 00BF     		.align	2
 401              	.L50:
 402 004c 00000000 		.word	rlist
 404              		.ident	"GCC: (Sourcery CodeBench Lite 2012.03-56) 4.6.3"