   1              		.syntax unified
   2              		.cpu cortex-m4
   3              		.eabi_attribute 27, 3
   4              		.fpu fpv4-sp-d16
   5              		.eabi_attribute 20, 1
   6              		.eabi_attribute 21, 1
   7              		.eabi_attribute 23, 3
   8              		.eabi_attribute 24, 1
   9              		.eabi_attribute 25, 1
  10              		.eabi_attribute 26, 1
  11              		.eabi_attribute 30, 4
  12              		.eabi_attribute 34, 1
  13              		.eabi_attribute 18, 4
  14              		.thumb
  15              		.file	"chqueues.c"
  16              		.section	.text.fifo_remove,"ax",%progbits
  17              		.align	1
  18              		.thumb
  19              		.thumb_func
  21              	fifo_remove:
  22              		@ args = 0, pretend = 0, frame = 0
  23              		@ frame_needed = 0, uses_anonymous_args = 0
  24              		@ link register save eliminated.
  25 0000 0346     		mov	r3, r0
  26 0002 0068     		ldr	r0, [r0, #0]
  27 0004 0268     		ldr	r2, [r0, #0]
  28 0006 1A60     		str	r2, [r3, #0]
  29 0008 5360     		str	r3, [r2, #4]
  30 000a 7047     		bx	lr
  32              		.section	.text.qwait,"ax",%progbits
  33              		.align	1
  34              		.thumb
  35              		.thumb_func
  37              	qwait:
  38              		@ args = 0, pretend = 0, frame = 0
  39              		@ frame_needed = 0, uses_anonymous_args = 0
  40              		@ link register save eliminated.
  41 0000 51B1     		cbz	r1, .L3
  42 0002 074A     		ldr	r2, .L4
  43 0004 D369     		ldr	r3, [r2, #28]
  44 0006 5862     		str	r0, [r3, #36]
  45 0008 4268     		ldr	r2, [r0, #4]
  46 000a 83E80500 		stmia	r3, {r0, r2}
  47 000e 4360     		str	r3, [r0, #4]
  48 0010 0D20     		movs	r0, #13
  49 0012 1360     		str	r3, [r2, #0]
  50 0014 FFF7FEBF 		b	chSchGoSleepTimeoutS
  51              	.L3:
  52 0018 4FF0FF30 		mov	r0, #-1
  53 001c 7047     		bx	lr
  54              	.L5:
  55 001e 00BF     		.align	2
  56              	.L4:
  57 0020 00000000 		.word	rlist
  59              		.section	.text.chIQInit,"ax",%progbits
  60              		.align	1
  61              		.global	chIQInit
  62              		.thumb
  63              		.thumb_func
  65              	chIQInit:
  66              		@ args = 0, pretend = 0, frame = 0
  67              		@ frame_needed = 0, uses_anonymous_args = 0
  68 0000 10B5     		push	{r4, lr}
  69 0002 8A18     		adds	r2, r1, r2
  70 0004 0024     		movs	r4, #0
  71 0006 4060     		str	r0, [r0, #4]
  72 0008 0060     		str	r0, [r0, #0]
  73 000a 8460     		str	r4, [r0, #8]
  74 000c 4161     		str	r1, [r0, #20]
  75 000e 8161     		str	r1, [r0, #24]
  76 0010 C160     		str	r1, [r0, #12]
  77 0012 0261     		str	r2, [r0, #16]
  78 0014 C361     		str	r3, [r0, #28]
  79 0016 10BD     		pop	{r4, pc}
  81              		.section	.text.chIQResetI,"ax",%progbits
  82              		.align	1
  83              		.global	chIQResetI
  84              		.thumb
  85              		.thumb_func
  87              	chIQResetI:
  88              		@ args = 0, pretend = 0, frame = 0
  89              		@ frame_needed = 0, uses_anonymous_args = 0
  90 0000 C168     		ldr	r1, [r0, #12]
  91 0002 0023     		movs	r3, #0
  92 0004 10B5     		push	{r4, lr}
  93 0006 0446     		mov	r4, r0
  94 0008 4161     		str	r1, [r0, #20]
  95 000a 8161     		str	r1, [r0, #24]
  96 000c 8360     		str	r3, [r0, #8]
  97 000e 07E0     		b	.L8
  98              	.L9:
  99 0010 2046     		mov	r0, r4
 100 0012 FFF7FEFF 		bl	fifo_remove
 101 0016 FFF7FEFF 		bl	chSchReadyI
 102 001a 6FF00102 		mvn	r2, #1
 103 001e 4262     		str	r2, [r0, #36]
 104              	.L8:
 105 0020 2068     		ldr	r0, [r4, #0]
 106 0022 A042     		cmp	r0, r4
 107 0024 F4D1     		bne	.L9
 108 0026 10BD     		pop	{r4, pc}
 110              		.section	.text.chIQPutI,"ax",%progbits
 111              		.align	1
 112              		.global	chIQPutI
 113              		.thumb
 114              		.thumb_func
 116              	chIQPutI:
 117              		@ args = 0, pretend = 0, frame = 0
 118              		@ frame_needed = 0, uses_anonymous_args = 0
 119 0000 8269     		ldr	r2, [r0, #24]
 120 0002 08B5     		push	{r3, lr}
 121 0004 4369     		ldr	r3, [r0, #20]
 122 0006 9342     		cmp	r3, r2
 123 0008 8268     		ldr	r2, [r0, #8]
 124 000a 00D1     		bne	.L11
 125 000c A2B9     		cbnz	r2, .L14
 126              	.L11:
 127 000e 0132     		adds	r2, r2, #1
 128 0010 8260     		str	r2, [r0, #8]
 129 0012 03F8011B 		strb	r1, [r3], #1
 130 0016 0169     		ldr	r1, [r0, #16]
 131 0018 4361     		str	r3, [r0, #20]
 132 001a 8B42     		cmp	r3, r1
 133 001c 24BF     		itt	cs
 134 001e C368     		ldrcs	r3, [r0, #12]
 135 0020 4361     		strcs	r3, [r0, #20]
 136 0022 0368     		ldr	r3, [r0, #0]
 137 0024 8342     		cmp	r3, r0
 138 0026 0AD0     		beq	.L15
 139 0028 FFF7FEFF 		bl	fifo_remove
 140 002c FFF7FEFF 		bl	chSchReadyI
 141 0030 0023     		movs	r3, #0
 142 0032 4362     		str	r3, [r0, #36]
 143 0034 1846     		mov	r0, r3
 144 0036 08BD     		pop	{r3, pc}
 145              	.L14:
 146 0038 6FF00300 		mvn	r0, #3
 147 003c 08BD     		pop	{r3, pc}
 148              	.L15:
 149 003e 0020     		movs	r0, #0
 150 0040 08BD     		pop	{r3, pc}
 152              		.section	.text.chIQGetTimeout,"ax",%progbits
 153              		.align	1
 154              		.global	chIQGetTimeout
 155              		.thumb
 156              		.thumb_func
 158              	chIQGetTimeout:
 159              		@ args = 0, pretend = 0, frame = 0
 160              		@ frame_needed = 0, uses_anonymous_args = 0
 161 0000 70B5     		push	{r4, r5, r6, lr}
 162 0002 2023     		movs	r3, #32
 163 0004 0446     		mov	r4, r0
 164 0006 0D46     		mov	r5, r1
 165              	@ 180 "../src/ChibiOS_2.4.0/os/kernel/src/chqueues.c" 1
 166 0008 83F31188 		msr     BASEPRI, r3
 167              	@ 0 "" 2
 168              		.thumb
 169 000c C369     		ldr	r3, [r0, #28]
 170 000e 5BB1     		cbz	r3, .L22
 171 0010 9847     		blx	r3
 172 0012 09E0     		b	.L22
 173              	.L20:
 174 0014 2046     		mov	r0, r4
 175 0016 2946     		mov	r1, r5
 176 0018 FFF7FEFF 		bl	qwait
 177 001c 0028     		cmp	r0, #0
 178 001e 03DA     		bge	.L22
 179 0020 3346     		mov	r3, r6
 180              	@ 187 "../src/ChibiOS_2.4.0/os/kernel/src/chqueues.c" 1
 181 0022 83F31188 		msr     BASEPRI, r3
 182              	@ 0 "" 2
 183              		.thumb
 184 0026 70BD     		pop	{r4, r5, r6, pc}
 185              	.L22:
 186 0028 A668     		ldr	r6, [r4, #8]
 187 002a 002E     		cmp	r6, #0
 188 002c F2D0     		beq	.L20
 189 002e A369     		ldr	r3, [r4, #24]
 190 0030 2269     		ldr	r2, [r4, #16]
 191 0032 013E     		subs	r6, r6, #1
 192 0034 A660     		str	r6, [r4, #8]
 193 0036 13F8010B 		ldrb	r0, [r3], #1	@ zero_extendqisi2
 194 003a 9342     		cmp	r3, r2
 195 003c A361     		str	r3, [r4, #24]
 196 003e 24BF     		itt	cs
 197 0040 E368     		ldrcs	r3, [r4, #12]
 198 0042 A361     		strcs	r3, [r4, #24]
 199 0044 0023     		movs	r3, #0
 200              	@ 197 "../src/ChibiOS_2.4.0/os/kernel/src/chqueues.c" 1
 201 0046 83F31188 		msr     BASEPRI, r3
 202              	@ 0 "" 2
 203              		.thumb
 204 004a 70BD     		pop	{r4, r5, r6, pc}
 206              		.section	.text.chIQReadTimeout,"ax",%progbits
 207              		.align	1
 208              		.global	chIQReadTimeout
 209              		.thumb
 210              		.thumb_func
 212              	chIQReadTimeout:
 213              		@ args = 0, pretend = 0, frame = 0
 214              		@ frame_needed = 0, uses_anonymous_args = 0
 215 0000 2DE9F047 		push	{r4, r5, r6, r7, r8, r9, sl, lr}
 216 0004 9846     		mov	r8, r3
 217 0006 0446     		mov	r4, r0
 218 0008 0D46     		mov	r5, r1
 219 000a 9146     		mov	r9, r2
 220 000c C769     		ldr	r7, [r0, #28]
 221 000e 2023     		movs	r3, #32
 222              	@ 232 "../src/ChibiOS_2.4.0/os/kernel/src/chqueues.c" 1
 223 0010 83F31188 		msr     BASEPRI, r3
 224              	@ 0 "" 2
 225              		.thumb
 226 0014 0026     		movs	r6, #0
 227              	.L30:
 228 0016 5FB1     		cbz	r7, .L31
 229 0018 2046     		mov	r0, r4
 230 001a B847     		blx	r7
 231 001c 08E0     		b	.L31
 232              	.L28:
 233 001e 2046     		mov	r0, r4
 234 0020 4146     		mov	r1, r8
 235 0022 FFF7FEFF 		bl	qwait
 236 0026 18B1     		cbz	r0, .L31
 237 0028 5346     		mov	r3, sl
 238              	@ 239 "../src/ChibiOS_2.4.0/os/kernel/src/chqueues.c" 1
 239 002a 83F31188 		msr     BASEPRI, r3
 240              	@ 0 "" 2
 241              		.thumb
 242 002e 1BE0     		b	.L27
 243              	.L31:
 244 0030 D4F808A0 		ldr	sl, [r4, #8]
 245 0034 BAF1000F 		cmp	sl, #0
 246 0038 F1D0     		beq	.L28
 247 003a A369     		ldr	r3, [r4, #24]
 248 003c 0AF1FF31 		add	r1, sl, #-1
 249 0040 A160     		str	r1, [r4, #8]
 250 0042 13F8010B 		ldrb	r0, [r3], #1	@ zero_extendqisi2
 251 0046 A855     		strb	r0, [r5, r6]
 252 0048 2269     		ldr	r2, [r4, #16]
 253 004a A361     		str	r3, [r4, #24]
 254 004c 9342     		cmp	r3, r2
 255 004e 24BF     		itt	cs
 256 0050 E368     		ldrcs	r3, [r4, #12]
 257 0052 A361     		strcs	r3, [r4, #24]
 258 0054 0023     		movs	r3, #0
 259              	@ 249 "../src/ChibiOS_2.4.0/os/kernel/src/chqueues.c" 1
 260 0056 83F31188 		msr     BASEPRI, r3
 261              	@ 0 "" 2
 262              		.thumb
 263 005a 0136     		adds	r6, r6, #1
 264 005c 4E45     		cmp	r6, r9
 265 005e 03D0     		beq	.L27
 266 0060 2023     		movs	r3, #32
 267              	@ 254 "../src/ChibiOS_2.4.0/os/kernel/src/chqueues.c" 1
 268 0062 83F31188 		msr     BASEPRI, r3
 269              	@ 0 "" 2
 270              		.thumb
 271 0066 D6E7     		b	.L30
 272              	.L27:
 273 0068 3046     		mov	r0, r6
 274 006a BDE8F087 		pop	{r4, r5, r6, r7, r8, r9, sl, pc}
 276              		.section	.text.chOQInit,"ax",%progbits
 277              		.align	1
 278              		.global	chOQInit
 279              		.thumb
 280              		.thumb_func
 282              	chOQInit:
 283              		@ args = 0, pretend = 0, frame = 0
 284              		@ frame_needed = 0, uses_anonymous_args = 0
 285              		@ link register save eliminated.
 286 0000 4161     		str	r1, [r0, #20]
 287 0002 8161     		str	r1, [r0, #24]
 288 0004 C160     		str	r1, [r0, #12]
 289 0006 8918     		adds	r1, r1, r2
 290 0008 4060     		str	r0, [r0, #4]
 291 000a 0060     		str	r0, [r0, #0]
 292 000c 8260     		str	r2, [r0, #8]
 293 000e 0161     		str	r1, [r0, #16]
 294 0010 C361     		str	r3, [r0, #28]
 295 0012 7047     		bx	lr
 297              		.section	.text.chOQResetI,"ax",%progbits
 298              		.align	1
 299              		.global	chOQResetI
 300              		.thumb
 301              		.thumb_func
 303              	chOQResetI:
 304              		@ args = 0, pretend = 0, frame = 0
 305              		@ frame_needed = 0, uses_anonymous_args = 0
 306 0000 C168     		ldr	r1, [r0, #12]
 307 0002 0269     		ldr	r2, [r0, #16]
 308 0004 531A     		subs	r3, r2, r1
 309 0006 10B5     		push	{r4, lr}
 310 0008 0446     		mov	r4, r0
 311 000a 4161     		str	r1, [r0, #20]
 312 000c 8161     		str	r1, [r0, #24]
 313 000e 8360     		str	r3, [r0, #8]
 314 0010 07E0     		b	.L35
 315              	.L36:
 316 0012 2046     		mov	r0, r4
 317 0014 FFF7FEFF 		bl	fifo_remove
 318 0018 FFF7FEFF 		bl	chSchReadyI
 319 001c 6FF00103 		mvn	r3, #1
 320 0020 4362     		str	r3, [r0, #36]
 321              	.L35:
 322 0022 2068     		ldr	r0, [r4, #0]
 323 0024 A042     		cmp	r0, r4
 324 0026 F4D1     		bne	.L36
 325 0028 10BD     		pop	{r4, pc}
 327              		.section	.text.chOQPutTimeout,"ax",%progbits
 328              		.align	1
 329              		.global	chOQPutTimeout
 330              		.thumb
 331              		.thumb_func
 333              	chOQPutTimeout:
 334              		@ args = 0, pretend = 0, frame = 0
 335              		@ frame_needed = 0, uses_anonymous_args = 0
 336 0000 F8B5     		push	{r3, r4, r5, r6, r7, lr}
 337 0002 0446     		mov	r4, r0
 338 0004 0D46     		mov	r5, r1
 339 0006 1646     		mov	r6, r2
 340 0008 2023     		movs	r3, #32
 341              	@ 327 "../src/ChibiOS_2.4.0/os/kernel/src/chqueues.c" 1
 342 000a 83F31188 		msr     BASEPRI, r3
 343              	@ 0 "" 2
 344              		.thumb
 345 000e 09E0     		b	.L38
 346              	.L40:
 347 0010 2046     		mov	r0, r4
 348 0012 3146     		mov	r1, r6
 349 0014 FFF7FEFF 		bl	qwait
 350 0018 0028     		cmp	r0, #0
 351 001a 03DA     		bge	.L38
 352 001c 3B46     		mov	r3, r7
 353              	@ 332 "../src/ChibiOS_2.4.0/os/kernel/src/chqueues.c" 1
 354 001e 83F31188 		msr     BASEPRI, r3
 355              	@ 0 "" 2
 356              		.thumb
 357 0022 F8BD     		pop	{r3, r4, r5, r6, r7, pc}
 358              	.L38:
 359 0024 A768     		ldr	r7, [r4, #8]
 360 0026 002F     		cmp	r7, #0
 361 0028 F2D0     		beq	.L40
 362 002a 6369     		ldr	r3, [r4, #20]
 363 002c 013F     		subs	r7, r7, #1
 364 002e A760     		str	r7, [r4, #8]
 365 0030 03F8015B 		strb	r5, [r3], #1
 366 0034 2269     		ldr	r2, [r4, #16]
 367 0036 6361     		str	r3, [r4, #20]
 368 0038 9342     		cmp	r3, r2
 369 003a 24BF     		itt	cs
 370 003c E368     		ldrcs	r3, [r4, #12]
 371 003e 6361     		strcs	r3, [r4, #20]
 372 0040 E369     		ldr	r3, [r4, #28]
 373 0042 0BB1     		cbz	r3, .L42
 374 0044 2046     		mov	r0, r4
 375 0046 9847     		blx	r3
 376              	.L42:
 377 0048 0023     		movs	r3, #0
 378              	@ 345 "../src/ChibiOS_2.4.0/os/kernel/src/chqueues.c" 1
 379 004a 83F31188 		msr     BASEPRI, r3
 380              	@ 0 "" 2
 381              		.thumb
 382 004e 1846     		mov	r0, r3
 383 0050 F8BD     		pop	{r3, r4, r5, r6, r7, pc}
 385              		.section	.text.chOQGetI,"ax",%progbits
 386              		.align	1
 387              		.global	chOQGetI
 388              		.thumb
 389              		.thumb_func
 391              	chOQGetI:
 392              		@ args = 0, pretend = 0, frame = 0
 393              		@ frame_needed = 0, uses_anonymous_args = 0
 394 0000 4269     		ldr	r2, [r0, #20]
 395 0002 8369     		ldr	r3, [r0, #24]
 396 0004 9A42     		cmp	r2, r3
 397 0006 10B5     		push	{r4, lr}
 398 0008 8268     		ldr	r2, [r0, #8]
 399 000a 00D1     		bne	.L45
 400 000c A2B9     		cbnz	r2, .L49
 401              	.L45:
 402 000e 541C     		adds	r4, r2, #1
 403 0010 8460     		str	r4, [r0, #8]
 404 0012 13F8014B 		ldrb	r4, [r3], #1	@ zero_extendqisi2
 405 0016 0169     		ldr	r1, [r0, #16]
 406 0018 8361     		str	r3, [r0, #24]
 407 001a 8B42     		cmp	r3, r1
 408 001c 24BF     		itt	cs
 409 001e C368     		ldrcs	r3, [r0, #12]
 410 0020 8361     		strcs	r3, [r0, #24]
 411 0022 0368     		ldr	r3, [r0, #0]
 412 0024 8342     		cmp	r3, r0
 413 0026 05D0     		beq	.L48
 414 0028 FFF7FEFF 		bl	fifo_remove
 415 002c FFF7FEFF 		bl	chSchReadyI
 416 0030 0022     		movs	r2, #0
 417 0032 4262     		str	r2, [r0, #36]
 418              	.L48:
 419 0034 2046     		mov	r0, r4
 420 0036 10BD     		pop	{r4, pc}
 421              	.L49:
 422 0038 6FF00200 		mvn	r0, #2
 423 003c 10BD     		pop	{r4, pc}
 425              		.section	.text.chOQWriteTimeout,"ax",%progbits
 426              		.align	1
 427              		.global	chOQWriteTimeout
 428              		.thumb
 429              		.thumb_func
 431              	chOQWriteTimeout:
 432              		@ args = 0, pretend = 0, frame = 0
 433              		@ frame_needed = 0, uses_anonymous_args = 0
 434 0000 2DE9F047 		push	{r4, r5, r6, r7, r8, r9, sl, lr}
 435 0004 9946     		mov	r9, r3
 436 0006 0446     		mov	r4, r0
 437 0008 0D46     		mov	r5, r1
 438 000a 1746     		mov	r7, r2
 439 000c D0F81C80 		ldr	r8, [r0, #28]
 440 0010 2023     		movs	r3, #32
 441              	@ 409 "../src/ChibiOS_2.4.0/os/kernel/src/chqueues.c" 1
 442 0012 83F31188 		msr     BASEPRI, r3
 443              	@ 0 "" 2
 444              		.thumb
 445 0016 0026     		movs	r6, #0
 446 0018 08E0     		b	.L59
 447              	.L54:
 448 001a 2046     		mov	r0, r4
 449 001c 4946     		mov	r1, r9
 450 001e FFF7FEFF 		bl	qwait
 451 0022 18B1     		cbz	r0, .L59
 452 0024 5346     		mov	r3, sl
 453              	@ 413 "../src/ChibiOS_2.4.0/os/kernel/src/chqueues.c" 1
 454 0026 83F31188 		msr     BASEPRI, r3
 455              	@ 0 "" 2
 456              		.thumb
 457 002a 21E0     		b	.L53
 458              	.L59:
 459 002c D4F808A0 		ldr	sl, [r4, #8]
 460 0030 BAF1000F 		cmp	sl, #0
 461 0034 F1D0     		beq	.L54
 462 0036 0AF1FF31 		add	r1, sl, #-1
 463 003a A160     		str	r1, [r4, #8]
 464 003c 6369     		ldr	r3, [r4, #20]
 465 003e 2878     		ldrb	r0, [r5, #0]	@ zero_extendqisi2
 466 0040 03F8010B 		strb	r0, [r3], #1
 467 0044 2269     		ldr	r2, [r4, #16]
 468 0046 6361     		str	r3, [r4, #20]
 469 0048 9342     		cmp	r3, r2
 470 004a 24BF     		itt	cs
 471 004c E368     		ldrcs	r3, [r4, #12]
 472 004e 6361     		strcs	r3, [r4, #20]
 473 0050 B8F1000F 		cmp	r8, #0
 474 0054 01D0     		beq	.L56
 475 0056 2046     		mov	r0, r4
 476 0058 C047     		blx	r8
 477              	.L56:
 478 005a 0023     		movs	r3, #0
 479              	@ 425 "../src/ChibiOS_2.4.0/os/kernel/src/chqueues.c" 1
 480 005c 83F31188 		msr     BASEPRI, r3
 481              	@ 0 "" 2
 482              		.thumb
 483 0060 0136     		adds	r6, r6, #1
 484 0062 013F     		subs	r7, r7, #1
 485 0064 04D0     		beq	.L53
 486 0066 0135     		adds	r5, r5, #1
 487 0068 2023     		movs	r3, #32
 488              	@ 429 "../src/ChibiOS_2.4.0/os/kernel/src/chqueues.c" 1
 489 006a 83F31188 		msr     BASEPRI, r3
 490              	@ 0 "" 2
 491              		.thumb
 492 006e DDE7     		b	.L59
 493              	.L53:
 494 0070 3046     		mov	r0, r6
 495 0072 BDE8F087 		pop	{r4, r5, r6, r7, r8, r9, sl, pc}
 497              		.ident	"GCC: (Sourcery CodeBench Lite 2012.03-56) 4.6.3"