   1              		.syntax unified
   2              		.cpu cortex-m4
   3              		.eabi_attribute 27, 3
   4              		.fpu fpv4-sp-d16
   5              		.eabi_attribute 20, 1
   6              		.eabi_attribute 21, 1
   7              		.eabi_attribute 23, 3
   8              		.eabi_attribute 24, 1
   9              		.eabi_attribute 25, 1
  10              		.eabi_attribute 26, 1
  11              		.eabi_attribute 30, 4
  12              		.eabi_attribute 34, 1
  13              		.eabi_attribute 18, 4
  14              		.thumb
  15              		.file	"chschd.c"
  16              		.section	.text.fifo_remove.constprop.0,"ax",%progbits
  17              		.align	1
  18              		.thumb
  19              		.thumb_func
  21              	fifo_remove.constprop.0:
  22              		@ args = 0, pretend = 0, frame = 0
  23              		@ frame_needed = 0, uses_anonymous_args = 0
  24              		@ link register save eliminated.
  25 0000 024B     		ldr	r3, .L2
  26 0002 1868     		ldr	r0, [r3, #0]
  27 0004 0268     		ldr	r2, [r0, #0]
  28 0006 1A60     		str	r2, [r3, #0]
  29 0008 5360     		str	r3, [r2, #4]
  30 000a 7047     		bx	lr
  31              	.L3:
  32              		.align	2
  33              	.L2:
  34 000c 00000000 		.word	rlist
  36              		.section	.text._scheduler_init,"ax",%progbits
  37              		.align	1
  38              		.global	_scheduler_init
  39              		.thumb
  40              		.thumb_func
  42              	_scheduler_init:
  43              		@ args = 0, pretend = 0, frame = 0
  44              		@ frame_needed = 0, uses_anonymous_args = 0
  45              		@ link register save eliminated.
  46 0000 044B     		ldr	r3, .L5
  47 0002 0020     		movs	r0, #0
  48 0004 1422     		movs	r2, #20
  49 0006 5B60     		str	r3, [r3, #4]
  50 0008 1B60     		str	r3, [r3, #0]
  51 000a 9860     		str	r0, [r3, #8]
  52 000c 9A61     		str	r2, [r3, #24]
  53 000e 5B61     		str	r3, [r3, #20]
  54 0010 1B61     		str	r3, [r3, #16]
  55 0012 7047     		bx	lr
  56              	.L6:
  57              		.align	2
  58              	.L5:
  59 0014 00000000 		.word	rlist
  61              		.section	.text.chSchReadyI,"ax",%progbits
  62              		.align	1
  63              		.global	chSchReadyI
  64              		.thumb
  65              		.thumb_func
  67              	chSchReadyI:
  68              		@ args = 0, pretend = 0, frame = 0
  69              		@ frame_needed = 0, uses_anonymous_args = 0
  70              		@ link register save eliminated.
  71 0000 0023     		movs	r3, #0
  72 0002 0377     		strb	r3, [r0, #28]
  73 0004 8268     		ldr	r2, [r0, #8]
  74 0006 054B     		ldr	r3, .L10
  75              	.L8:
  76 0008 1B68     		ldr	r3, [r3, #0]
  77 000a 9968     		ldr	r1, [r3, #8]
  78 000c 9142     		cmp	r1, r2
  79 000e FBD2     		bcs	.L8
  80 0010 5A68     		ldr	r2, [r3, #4]
  81 0012 0360     		str	r3, [r0, #0]
  82 0014 4260     		str	r2, [r0, #4]
  83 0016 1060     		str	r0, [r2, #0]
  84 0018 5860     		str	r0, [r3, #4]
  85 001a 7047     		bx	lr
  86              	.L11:
  87              		.align	2
  88              	.L10:
  89 001c 00000000 		.word	rlist
  91              		.section	.text.wakeup,"ax",%progbits
  92              		.align	1
  93              		.thumb
  94              		.thumb_func
  96              	wakeup:
  97              		@ args = 0, pretend = 0, frame = 0
  98              		@ frame_needed = 0, uses_anonymous_args = 0
  99              		@ link register save eliminated.
 100 0000 037F     		ldrb	r3, [r0, #28]	@ zero_extendqisi2
 101 0002 032B     		cmp	r3, #3
 102 0004 07D0     		beq	.L15
 103 0006 01D8     		bhi	.L17
 104 0008 9BB1     		cbz	r3, .L12
 105 000a 0DE0     		b	.L13
 106              	.L17:
 107 000c 052B     		cmp	r3, #5
 108 000e 06D0     		beq	.L16
 109 0010 0D2B     		cmp	r3, #13
 110 0012 09D1     		bne	.L13
 111 0014 03E0     		b	.L16
 112              	.L15:
 113 0016 436A     		ldr	r3, [r0, #36]
 114 0018 9968     		ldr	r1, [r3, #8]
 115 001a 4A1C     		adds	r2, r1, #1
 116 001c 9A60     		str	r2, [r3, #8]
 117              	.L16:
 118 001e 90E80C00 		ldmia	r0, {r2, r3}
 119 0022 1A60     		str	r2, [r3, #0]
 120 0024 0268     		ldr	r2, [r0, #0]
 121 0026 5360     		str	r3, [r2, #4]
 122              	.L13:
 123 0028 4FF0FF33 		mov	r3, #-1
 124 002c 4362     		str	r3, [r0, #36]
 125 002e FFF7FEBF 		b	chSchReadyI
 126              	.L12:
 127 0032 7047     		bx	lr
 129              		.section	.text.chSchGoSleepS,"ax",%progbits
 130              		.align	1
 131              		.global	chSchGoSleepS
 132              		.thumb
 133              		.thumb_func
 135              	chSchGoSleepS:
 136              		@ args = 0, pretend = 0, frame = 0
 137              		@ frame_needed = 0, uses_anonymous_args = 0
 138 0000 38B5     		push	{r3, r4, r5, lr}
 139 0002 074C     		ldr	r4, .L19
 140 0004 E569     		ldr	r5, [r4, #28]
 141 0006 1423     		movs	r3, #20
 142 0008 2877     		strb	r0, [r5, #28]
 143 000a A361     		str	r3, [r4, #24]
 144 000c FFF7FEFF 		bl	fifo_remove.constprop.0
 145 0010 0122     		movs	r2, #1
 146 0012 2946     		mov	r1, r5
 147 0014 E061     		str	r0, [r4, #28]
 148 0016 0277     		strb	r2, [r0, #28]
 149 0018 BDE83840 		pop	{r3, r4, r5, lr}
 150 001c FFF7FEBF 		b	_port_switch
 151              	.L20:
 152              		.align	2
 153              	.L19:
 154 0020 00000000 		.word	rlist
 156              		.section	.text.chSchGoSleepTimeoutS,"ax",%progbits
 157              		.align	1
 158              		.global	chSchGoSleepTimeoutS
 159              		.thumb
 160              		.thumb_func
 162              	chSchGoSleepTimeoutS:
 163              		@ args = 0, pretend = 0, frame = 24
 164              		@ frame_needed = 0, uses_anonymous_args = 0
 165 0000 30B5     		push	{r4, r5, lr}
 166 0002 4B1C     		adds	r3, r1, #1
 167 0004 87B0     		sub	sp, sp, #28
 168 0006 0546     		mov	r5, r0
 169 0008 0A4C     		ldr	r4, .L24
 170 000a 0DD0     		beq	.L22
 171 000c E369     		ldr	r3, [r4, #28]
 172 000e 0A4A     		ldr	r2, .L24+4
 173 0010 01A8     		add	r0, sp, #4
 174 0012 FFF7FEFF 		bl	chVTSetI
 175 0016 2846     		mov	r0, r5
 176 0018 FFF7FEFF 		bl	chSchGoSleepS
 177 001c 049B     		ldr	r3, [sp, #16]
 178 001e 2BB1     		cbz	r3, .L23
 179 0020 01A8     		add	r0, sp, #4
 180 0022 FFF7FEFF 		bl	chVTResetI
 181 0026 01E0     		b	.L23
 182              	.L22:
 183 0028 FFF7FEFF 		bl	chSchGoSleepS
 184              	.L23:
 185 002c E069     		ldr	r0, [r4, #28]
 186 002e 406A     		ldr	r0, [r0, #36]
 187 0030 07B0     		add	sp, sp, #28
 188 0032 30BD     		pop	{r4, r5, pc}
 189              	.L25:
 190              		.align	2
 191              	.L24:
 192 0034 00000000 		.word	rlist
 193 0038 00000000 		.word	wakeup
 195              		.section	.text.chSchWakeupS,"ax",%progbits
 196              		.align	1
 197              		.global	chSchWakeupS
 198              		.thumb
 199              		.thumb_func
 201              	chSchWakeupS:
 202              		@ args = 0, pretend = 0, frame = 0
 203              		@ frame_needed = 0, uses_anonymous_args = 0
 204 0000 38B5     		push	{r3, r4, r5, lr}
 205 0002 0D4D     		ldr	r5, .L28
 206 0004 4162     		str	r1, [r0, #36]
 207 0006 EB69     		ldr	r3, [r5, #28]
 208 0008 8168     		ldr	r1, [r0, #8]
 209 000a 9A68     		ldr	r2, [r3, #8]
 210 000c 9142     		cmp	r1, r2
 211 000e 0446     		mov	r4, r0
 212 0010 03D8     		bhi	.L27
 213 0012 BDE83840 		pop	{r3, r4, r5, lr}
 214 0016 FFF7FEBF 		b	chSchReadyI
 215              	.L27:
 216 001a 1846     		mov	r0, r3
 217 001c FFF7FEFF 		bl	chSchReadyI
 218 0020 0146     		mov	r1, r0
 219 0022 1420     		movs	r0, #20
 220 0024 A861     		str	r0, [r5, #24]
 221 0026 0123     		movs	r3, #1
 222 0028 2046     		mov	r0, r4
 223 002a EC61     		str	r4, [r5, #28]
 224 002c 2377     		strb	r3, [r4, #28]
 225 002e BDE83840 		pop	{r3, r4, r5, lr}
 226 0032 FFF7FEBF 		b	_port_switch
 227              	.L29:
 228 0036 00BF     		.align	2
 229              	.L28:
 230 0038 00000000 		.word	rlist
 232              		.section	.text.chSchDoReschedule,"ax",%progbits
 233              		.align	1
 234              		.global	chSchDoReschedule
 235              		.thumb
 236              		.thumb_func
 238              	chSchDoReschedule:
 239              		@ args = 0, pretend = 0, frame = 0
 240              		@ frame_needed = 0, uses_anonymous_args = 0
 241 0000 38B5     		push	{r3, r4, r5, lr}
 242 0002 094C     		ldr	r4, .L31
 243 0004 1420     		movs	r0, #20
 244 0006 E569     		ldr	r5, [r4, #28]
 245 0008 A061     		str	r0, [r4, #24]
 246 000a FFF7FEFF 		bl	fifo_remove.constprop.0
 247 000e 0123     		movs	r3, #1
 248 0010 E061     		str	r0, [r4, #28]
 249 0012 0377     		strb	r3, [r0, #28]
 250 0014 2846     		mov	r0, r5
 251 0016 FFF7FEFF 		bl	chSchReadyI
 252 001a E069     		ldr	r0, [r4, #28]
 253 001c 2946     		mov	r1, r5
 254 001e BDE83840 		pop	{r3, r4, r5, lr}
 255 0022 FFF7FEBF 		b	_port_switch
 256              	.L32:
 257 0026 00BF     		.align	2
 258              	.L31:
 259 0028 00000000 		.word	rlist
 261              		.section	.text.chSchRescheduleS,"ax",%progbits
 262              		.align	1
 263              		.global	chSchRescheduleS
 264              		.thumb
 265              		.thumb_func
 267              	chSchRescheduleS:
 268              		@ args = 0, pretend = 0, frame = 0
 269              		@ frame_needed = 0, uses_anonymous_args = 0
 270              		@ link register save eliminated.
 271 0000 044A     		ldr	r2, .L35
 272 0002 D069     		ldr	r0, [r2, #28]
 273 0004 1168     		ldr	r1, [r2, #0]
 274 0006 8368     		ldr	r3, [r0, #8]
 275 0008 8A68     		ldr	r2, [r1, #8]
 276 000a 9A42     		cmp	r2, r3
 277 000c 01D9     		bls	.L33
 278 000e FFF7FEBF 		b	chSchDoReschedule
 279              	.L33:
 280 0012 7047     		bx	lr
 281              	.L36:
 282              		.align	2
 283              	.L35:
 284 0014 00000000 		.word	rlist
 286              		.comm	rlist,32,4
 287              		.ident	"GCC: (Sourcery CodeBench Lite 2012.03-56) 4.6.3"