   1              		.syntax unified
   2              		.cpu cortex-m4
   3              		.eabi_attribute 27, 3
   4              		.fpu fpv4-sp-d16
   5              		.eabi_attribute 20, 1
   6              		.eabi_attribute 21, 1
   7              		.eabi_attribute 23, 3
   8              		.eabi_attribute 24, 1
   9              		.eabi_attribute 25, 1
  10              		.eabi_attribute 26, 1
  11              		.eabi_attribute 30, 4
  12              		.eabi_attribute 34, 1
  13              		.eabi_attribute 18, 4
  14              		.thumb
  15              		.file	"chsys.c"
  16              		.section	.text._idle_thread,"ax",%progbits
  17              		.align	1
  18              		.global	_idle_thread
  19              		.thumb
  20              		.thumb_func
  22              	_idle_thread:
  23              		@ args = 0, pretend = 0, frame = 0
  24              		@ frame_needed = 0, uses_anonymous_args = 0
  25              		@ link register save eliminated.
  26 0000 0248     		ldr	r0, .L3
  27 0002 034A     		ldr	r2, .L3+4
  28 0004 C369     		ldr	r3, [r0, #28]
  29 0006 9A61     		str	r2, [r3, #24]
  30              	.L2:
  31 0008 FEE7     		b	.L2
  32              	.L4:
  33 000a 00BF     		.align	2
  34              	.L3:
  35 000c 00000000 		.word	rlist
  36 0010 00000000 		.word	.LC0
  38              		.section	.text.chSysInit,"ax",%progbits
  39              		.align	1
  40              		.global	chSysInit
  41              		.thumb
  42              		.thumb_func
  44              	chSysInit:
  45              		@ args = 0, pretend = 0, frame = 0
  46              		@ frame_needed = 0, uses_anonymous_args = 0
  47 0000 07B5     		push	{r0, r1, r2, lr}
  48 0002 FFF7FEFF 		bl	_port_init
  49 0006 FFF7FEFF 		bl	_scheduler_init
  50 000a FFF7FEFF 		bl	_vt_init
  51 000e FFF7FEFF 		bl	_core_init
  52 0012 FFF7FEFF 		bl	_heap_init
  53 0016 4021     		movs	r1, #64
  54 0018 0A48     		ldr	r0, .L6
  55 001a FFF7FEFF 		bl	_thread_init
  56 001e 0A49     		ldr	r1, .L6+4
  57 0020 0122     		movs	r2, #1
  58 0022 C861     		str	r0, [r1, #28]
  59 0024 0277     		strb	r2, [r0, #28]
  60 0026 0023     		movs	r3, #0
  61              	@ 109 "../src/ChibiOS_2.4.0/os/kernel/src/chsys.c" 1
  62 0028 83F31188 		msr     BASEPRI, r3                    
  63 002c 62B6     		cpsie   i
  64              	@ 0 "" 2
  65              		.thumb
  66 002e 0748     		ldr	r0, .L6+8
  67 0030 C969     		ldr	r1, [r1, #28]
  68 0032 8861     		str	r0, [r1, #24]
  69 0034 0093     		str	r3, [sp, #0]
  70 0036 C021     		movs	r1, #192
  71 0038 054B     		ldr	r3, .L6+12
  72 003a 0648     		ldr	r0, .L6+16
  73 003c FFF7FEFF 		bl	chThdCreateStatic
  74 0040 0EBD     		pop	{r1, r2, r3, pc}
  75              	.L7:
  76 0042 00BF     		.align	2
  77              	.L6:
  78 0044 00000000 		.word	.LANCHOR0
  79 0048 00000000 		.word	rlist
  80 004c 05000000 		.word	.LC1
  81 0050 00000000 		.word	_idle_thread
  82 0054 00000000 		.word	_idle_thread_wa
  84              		.section	.text.chSysTimerHandlerI,"ax",%progbits
  85              		.align	1
  86              		.global	chSysTimerHandlerI
  87              		.thumb
  88              		.thumb_func
  90              	chSysTimerHandlerI:
  91              		@ args = 0, pretend = 0, frame = 0
  92              		@ frame_needed = 0, uses_anonymous_args = 0
  93 0000 114B     		ldr	r3, .L13
  94 0002 9A69     		ldr	r2, [r3, #24]
  95 0004 002A     		cmp	r2, #0
  96 0006 10B5     		push	{r4, lr}
  97 0008 01DD     		ble	.L9
  98 000a 013A     		subs	r2, r2, #1
  99 000c 9A61     		str	r2, [r3, #24]
 100              	.L9:
 101 000e DC69     		ldr	r4, [r3, #28]
 102 0010 226A     		ldr	r2, [r4, #32]
 103 0012 511C     		adds	r1, r2, #1
 104 0014 2162     		str	r1, [r4, #32]
 105 0016 0D4C     		ldr	r4, .L13+4
 106 0018 E068     		ldr	r0, [r4, #12]
 107 001a 431C     		adds	r3, r0, #1
 108 001c E360     		str	r3, [r4, #12]
 109 001e 2368     		ldr	r3, [r4, #0]
 110 0020 A342     		cmp	r3, r4
 111 0022 0FD0     		beq	.L8
 112 0024 9968     		ldr	r1, [r3, #8]
 113 0026 481E     		subs	r0, r1, #1
 114 0028 9860     		str	r0, [r3, #8]
 115 002a 06E0     		b	.L11
 116              	.L12:
 117 002c D368     		ldr	r3, [r2, #12]
 118 002e D160     		str	r1, [r2, #12]
 119 0030 1168     		ldr	r1, [r2, #0]
 120 0032 4860     		str	r0, [r1, #4]
 121 0034 0160     		str	r1, [r0, #0]
 122 0036 1069     		ldr	r0, [r2, #16]
 123 0038 9847     		blx	r3
 124              	.L11:
 125 003a 2268     		ldr	r2, [r4, #0]
 126 003c 0348     		ldr	r0, .L13+4
 127 003e 9168     		ldr	r1, [r2, #8]
 128 0040 0029     		cmp	r1, #0
 129 0042 F3D0     		beq	.L12
 130              	.L8:
 131 0044 10BD     		pop	{r4, pc}
 132              	.L14:
 133 0046 00BF     		.align	2
 134              	.L13:
 135 0048 00000000 		.word	rlist
 136 004c 00000000 		.word	vtlist
 138              		.comm	_idle_thread_wa,192,8
 139              		.section	.rodata.str1.1,"aMS",%progbits,1
 140              	.LC0:
 141 0000 69646C65 		.ascii	"idle\000"
 141      00
 142              	.LC1:
 143 0005 6D61696E 		.ascii	"main\000"
 143      00
 144              		.section	.bss.mainthread.4666,"aw",%nobits
 145              		.align	2
 146              		.set	.LANCHOR0,. + 0
 149              	mainthread.4666:
 150 0000 00000000 		.space	72
 150      00000000 
 150      00000000 
 150      00000000 
 150      00000000 
 151              		.ident	"GCC: (Sourcery CodeBench Lite 2012.03-56) 4.6.3"