   1              		.syntax unified
   2              		.cpu cortex-m4
   3              		.eabi_attribute 27, 3
   4              		.fpu fpv4-sp-d16
   5              		.eabi_attribute 20, 1
   6              		.eabi_attribute 21, 1
   7              		.eabi_attribute 23, 3
   8              		.eabi_attribute 24, 1
   9              		.eabi_attribute 25, 1
  10              		.eabi_attribute 26, 1
  11              		.eabi_attribute 30, 4
  12              		.eabi_attribute 34, 1
  13              		.eabi_attribute 18, 4
  14              		.thumb
  15              		.file	"crt0.c"
  16              		.section	.text.fill32,"ax",%progbits
  17              		.align	1
  18              		.thumb
  19              		.thumb_func
  21              	fill32:
  22              		@ args = 0, pretend = 0, frame = 0
  23              		@ frame_needed = 0, uses_anonymous_args = 0
  24              		@ link register save eliminated.
  25 0000 01E0     		b	.L2
  26              	.L3:
  27 0002 40F8042B 		str	r2, [r0], #4
  28              	.L2:
  29 0006 8842     		cmp	r0, r1
  30 0008 FBD3     		bcc	.L3
  31 000a 7047     		bx	lr
  33              		.section	.text.__early_init,"ax",%progbits
  34              		.align	1
  35              		.weak	__early_init
  36              		.thumb
  37              		.thumb_func
  39              	__early_init:
  40              		@ args = 0, pretend = 0, frame = 0
  41              		@ frame_needed = 0, uses_anonymous_args = 0
  42              		@ link register save eliminated.
  43 0000 7047     		bx	lr
  45              		.section	.text.__late_init,"ax",%progbits
  46              		.align	1
  47              		.weak	__late_init
  48              		.thumb
  49              		.thumb_func
  51              	__late_init:
  52              		@ args = 0, pretend = 0, frame = 0
  53              		@ frame_needed = 0, uses_anonymous_args = 0
  54              		@ link register save eliminated.
  55 0000 7047     		bx	lr
  57              		.section	.text._default_exit,"ax",%progbits
  58              		.align	1
  59              		.weak	_default_exit
  60              		.thumb
  61              		.thumb_func
  63              	_default_exit:
  64              		@ Naked Function: prologue and epilogue provided by programmer.
  65              		@ args = 0, pretend = 0, frame = 0
  66              		@ frame_needed = 0, uses_anonymous_args = 0
  67              	.L7:
  68 0000 FEE7     		b	.L7
  70              		.section	.text.ResetHandler,"ax",%progbits
  71              		.align	1
  72              		.global	ResetHandler
  73              		.thumb
  74              		.thumb_func
  76              	ResetHandler:
  77              		@ Naked Function: prologue and epilogue provided by programmer.
  78              		@ args = 0, pretend = 0, frame = 0
  79              		@ frame_needed = 0, uses_anonymous_args = 0
  80              	@ 265 "../src/ChibiOS_2.4.0/os/ports/GCC/ARMCMx/crt0.c" 1
  81 0000 72B6     		cpsid   i
  82              	@ 0 "" 2
  83              		.thumb
  84 0002 1D48     		ldr	r0, .L15
  85              	@ 267 "../src/ChibiOS_2.4.0/os/ports/GCC/ARMCMx/crt0.c" 1
  86 0004 80F30988 		msr     PSP, r0
  87              	@ 0 "" 2
  88              		.thumb
  89 0008 0223     		movs	r3, #2
  90              	@ 271 "../src/ChibiOS_2.4.0/os/ports/GCC/ARMCMx/crt0.c" 1
  91 000a 83F31488 		msr     CONTROL, r3
  92              	@ 0 "" 2
  93              	@ 272 "../src/ChibiOS_2.4.0/os/ports/GCC/ARMCMx/crt0.c" 1
  94 000e BFF36F8F 		isb
  95              	@ 0 "" 2
  96              		.thumb
  97 0012 FFF7FEFF 		bl	__early_init
  98 0016 1948     		ldr	r0, .L15+4
  99 0018 1949     		ldr	r1, .L15+8
 100 001a 4FF05532 		mov	r2, #1431655765
 101 001e FFF7FEFF 		bl	fill32
 102 0022 4FF05532 		mov	r2, #1431655765
 103 0026 1748     		ldr	r0, .L15+12
 104 0028 1349     		ldr	r1, .L15
 105 002a FFF7FEFF 		bl	fill32
 106 002e 164A     		ldr	r2, .L15+16
 107 0030 164B     		ldr	r3, .L15+20
 108 0032 03E0     		b	.L9
 109              	.L10:
 110 0034 52F8041B 		ldr	r1, [r2], #4
 111 0038 43F8041B 		str	r1, [r3], #4
 112              	.L9:
 113 003c 144C     		ldr	r4, .L15+24
 114 003e A342     		cmp	r3, r4
 115 0040 F8D3     		bcc	.L10
 116 0042 1448     		ldr	r0, .L15+28
 117 0044 1449     		ldr	r1, .L15+32
 118 0046 154C     		ldr	r4, .L15+36
 119 0048 0022     		movs	r2, #0
 120 004a FFF7FEFF 		bl	fill32
 121 004e FFF7FEFF 		bl	__late_init
 122 0052 02E0     		b	.L11
 123              	.L12:
 124 0054 54F8042B 		ldr	r2, [r4], #4
 125 0058 9047     		blx	r2
 126              	.L11:
 127 005a 114B     		ldr	r3, .L15+40
 128 005c 9C42     		cmp	r4, r3
 129 005e F9D3     		bcc	.L12
 130 0060 FFF7FEFF 		bl	main
 131 0064 0F4C     		ldr	r4, .L15+44
 132 0066 02E0     		b	.L13
 133              	.L14:
 134 0068 54F8040B 		ldr	r0, [r4], #4
 135 006c 8047     		blx	r0
 136              	.L13:
 137 006e 0E49     		ldr	r1, .L15+48
 138 0070 8C42     		cmp	r4, r1
 139 0072 F9D3     		bcc	.L14
 140 0074 FFF7FEFF 		bl	_default_exit
 141              	.L16:
 142              		.align	2
 143              	.L15:
 144 0078 00000000 		.word	__process_stack_end__
 145 007c 00000000 		.word	__main_stack_base__
 146 0080 00000000 		.word	__main_stack_end__
 147 0084 00000000 		.word	__process_stack_base__
 148 0088 00000000 		.word	_textdata
 149 008c 00000000 		.word	_data
 150 0090 00000000 		.word	_edata
 151 0094 00000000 		.word	_bss_start
 152 0098 00000000 		.word	_bss_end
 153 009c 00000000 		.word	__init_array_start
 154 00a0 00000000 		.word	__init_array_end
 155 00a4 00000000 		.word	__fini_array_start
 156 00a8 00000000 		.word	__fini_array_end
 158              		.ident	"GCC: (Sourcery CodeBench Lite 2012.03-56) 4.6.3"