   1              		.syntax unified
   2              		.cpu cortex-m4
   3              		.eabi_attribute 27, 3
   4              		.fpu fpv4-sp-d16
   5              		.eabi_attribute 20, 1
   6              		.eabi_attribute 21, 1
   7              		.eabi_attribute 23, 3
   8              		.eabi_attribute 24, 1
   9              		.eabi_attribute 25, 1
  10              		.eabi_attribute 26, 1
  11              		.eabi_attribute 30, 4
  12              		.eabi_attribute 34, 1
  13              		.eabi_attribute 18, 4
  14              		.thumb
  15              		.file	"pal_lld.c"
  16              		.section	.text.initgpio,"ax",%progbits
  17              		.align	1
  18              		.thumb
  19              		.thumb_func
  21              	initgpio:
  22              		@ args = 0, pretend = 0, frame = 0
  23              		@ frame_needed = 0, uses_anonymous_args = 0
  24              		@ link register save eliminated.
  25 0000 0B68     		ldr	r3, [r1, #0]
  26 0002 4A68     		ldr	r2, [r1, #4]
  27 0004 0360     		str	r3, [r0, #0]
  28 0006 8B68     		ldr	r3, [r1, #8]
  29 0008 4260     		str	r2, [r0, #4]
  30 000a 8360     		str	r3, [r0, #8]
  31 000c CA68     		ldr	r2, [r1, #12]
  32 000e 0B69     		ldr	r3, [r1, #16]
  33 0010 C260     		str	r2, [r0, #12]
  34 0012 4361     		str	r3, [r0, #20]
  35 0014 4A69     		ldr	r2, [r1, #20]
  36 0016 8B69     		ldr	r3, [r1, #24]
  37 0018 0262     		str	r2, [r0, #32]
  38 001a 4362     		str	r3, [r0, #36]
  39 001c 7047     		bx	lr
  41              		.section	.text._pal_lld_init,"ax",%progbits
  42              		.align	1
  43              		.global	_pal_lld_init
  44              		.thumb
  45              		.thumb_func
  47              	_pal_lld_init:
  48              		@ args = 0, pretend = 0, frame = 0
  49              		@ frame_needed = 0, uses_anonymous_args = 0
  50 0000 1E4B     		ldr	r3, .L3
  51 0002 196B     		ldr	r1, [r3, #48]
  52 0004 10B5     		push	{r4, lr}
  53 0006 0446     		mov	r4, r0
  54 0008 6FEA5120 		mvn	r0, r1, lsr #9
  55 000c 6FEA4022 		mvn	r2, r0, lsl #9
  56 0010 1A63     		str	r2, [r3, #48]
  57 0012 196D     		ldr	r1, [r3, #80]
  58 0014 6FEA5120 		mvn	r0, r1, lsr #9
  59 0018 6FEA4022 		mvn	r2, r0, lsl #9
  60 001c 1A65     		str	r2, [r3, #80]
  61 001e 2146     		mov	r1, r4
  62 0020 1748     		ldr	r0, .L3+4
  63 0022 FFF7FEFF 		bl	initgpio
  64 0026 04F11C01 		add	r1, r4, #28
  65 002a 1648     		ldr	r0, .L3+8
  66 002c FFF7FEFF 		bl	initgpio
  67 0030 04F13801 		add	r1, r4, #56
  68 0034 1448     		ldr	r0, .L3+12
  69 0036 FFF7FEFF 		bl	initgpio
  70 003a 04F15401 		add	r1, r4, #84
  71 003e 1348     		ldr	r0, .L3+16
  72 0040 FFF7FEFF 		bl	initgpio
  73 0044 04F17001 		add	r1, r4, #112
  74 0048 1148     		ldr	r0, .L3+20
  75 004a FFF7FEFF 		bl	initgpio
  76 004e 04F18C01 		add	r1, r4, #140
  77 0052 1048     		ldr	r0, .L3+24
  78 0054 FFF7FEFF 		bl	initgpio
  79 0058 04F1A801 		add	r1, r4, #168
  80 005c 0E48     		ldr	r0, .L3+28
  81 005e FFF7FEFF 		bl	initgpio
  82 0062 04F1C401 		add	r1, r4, #196
  83 0066 0D48     		ldr	r0, .L3+32
  84 0068 FFF7FEFF 		bl	initgpio
  85 006c 0C48     		ldr	r0, .L3+36
  86 006e 04F1E001 		add	r1, r4, #224
  87 0072 BDE81040 		pop	{r4, lr}
  88 0076 FFF7FEBF 		b	initgpio
  89              	.L4:
  90 007a 00BF     		.align	2
  91              	.L3:
  92 007c 00380240 		.word	1073887232
  93 0080 00000240 		.word	1073872896
  94 0084 00040240 		.word	1073873920
  95 0088 00080240 		.word	1073874944
  96 008c 000C0240 		.word	1073875968
  97 0090 00100240 		.word	1073876992
  98 0094 00140240 		.word	1073878016
  99 0098 00180240 		.word	1073879040
 100 009c 001C0240 		.word	1073880064
 101 00a0 00200240 		.word	1073881088
 103              		.section	.text._pal_lld_setgroupmode,"ax",%progbits
 104              		.align	1
 105              		.global	_pal_lld_setgroupmode
 106              		.thumb
 107              		.thumb_func
 109              	_pal_lld_setgroupmode:
 110              		@ args = 0, pretend = 0, frame = 0
 111              		@ frame_needed = 0, uses_anonymous_args = 0
 112 0000 2DE9F043 		push	{r4, r5, r6, r7, r8, r9, lr}
 113 0004 02F00406 		and	r6, r2, #4
 114 0008 02F01805 		and	r5, r2, #24
 115 000c 02F06004 		and	r4, r2, #96
 116 0010 02F00307 		and	r7, r2, #3
 117 0014 02F4F062 		and	r2, r2, #1920
 118 0018 B608     		lsrs	r6, r6, #2
 119 001a ED08     		lsrs	r5, r5, #3
 120 001c 6409     		lsrs	r4, r4, #5
 121 001e D209     		lsrs	r2, r2, #7
 122 0020 0023     		movs	r3, #0
 123              	.L10:
 124 0022 11F0010F 		tst	r1, #1
 125 0026 4AD0     		beq	.L6
 126 0028 03F0070C 		and	ip, r3, #7
 127 002c 4FEA8C08 		lsl	r8, ip, #2
 128 0030 4FF00F09 		mov	r9, #15
 129 0034 02FA08FC 		lsl	ip, r2, r8
 130 0038 072B     		cmp	r3, #7
 131 003a 09FA08F8 		lsl	r8, r9, r8
 132 003e 6FEA0808 		mvn	r8, r8
 133 0042 08D8     		bhi	.L7
 134 0044 D0F82090 		ldr	r9, [r0, #32]
 135 0048 08EA0909 		and	r9, r8, r9
 136 004c 49EA0C08 		orr	r8, r9, ip
 137 0050 C0F82080 		str	r8, [r0, #32]
 138 0054 07E0     		b	.L8
 139              	.L7:
 140 0056 D0F82490 		ldr	r9, [r0, #36]
 141 005a 08EA0908 		and	r8, r8, r9
 142 005e 48EA0C0C 		orr	ip, r8, ip
 143 0062 C0F824C0 		str	ip, [r0, #36]
 144              	.L8:
 145 0066 D0F80490 		ldr	r9, [r0, #4]
 146 006a 4FF00108 		mov	r8, #1
 147 006e 08FA03FC 		lsl	ip, r8, r3
 148 0072 29EA0C08 		bic	r8, r9, ip
 149 0076 48EA0609 		orr	r9, r8, r6
 150 007a C0F80490 		str	r9, [r0, #4]
 151 007e 4FEA430C 		lsl	ip, r3, #1
 152 0082 4FF00309 		mov	r9, #3
 153 0086 D0F80880 		ldr	r8, [r0, #8]
 154 008a 09FA0CFC 		lsl	ip, r9, ip
 155 008e 6FEA0C0C 		mvn	ip, ip
 156 0092 0CEA0808 		and	r8, ip, r8
 157 0096 48EA0508 		orr	r8, r8, r5
 158 009a C0F80880 		str	r8, [r0, #8]
 159 009e D0F80C80 		ldr	r8, [r0, #12]
 160 00a2 0CEA0808 		and	r8, ip, r8
 161 00a6 48EA0408 		orr	r8, r8, r4
 162 00aa C0F80C80 		str	r8, [r0, #12]
 163 00ae D0F80080 		ldr	r8, [r0, #0]
 164 00b2 0CEA080C 		and	ip, ip, r8
 165 00b6 4CEA070C 		orr	ip, ip, r7
 166 00ba C0F800C0 		str	ip, [r0, #0]
 167              	.L6:
 168 00be 4908     		lsrs	r1, r1, #1
 169 00c0 05D0     		beq	.L5
 170 00c2 7600     		lsls	r6, r6, #1
 171 00c4 AD00     		lsls	r5, r5, #2
 172 00c6 A400     		lsls	r4, r4, #2
 173 00c8 BF00     		lsls	r7, r7, #2
 174 00ca 0133     		adds	r3, r3, #1
 175 00cc A9E7     		b	.L10
 176              	.L5:
 177 00ce BDE8F083 		pop	{r4, r5, r6, r7, r8, r9, pc}
 179              		.ident	"GCC: (Sourcery CodeBench Lite 2012.03-56) 4.6.3"